ASxxxx Linker V03.00/V05.40 + sdld,  page 1.
Hexadecimal  [32-Bits]

Area                                    Addr        Size        Decimal Bytes (Attributes)
--------------------------------        ----        ----        ------- ----- ------------
.  .ABS.                            00000000    00000000 =           0. bytes (ABS,CON)

      Value  Global                              Global Defined In Module
      -----  --------------------------------   ------------------------
     00000000  .__.ABS.                           
     00000000  _rRAMG                             
     00000000  l__BASE                         
     00000000  l__BSS                          
     00000000  l__CABS                         
     00000000  l__CODE_0                       
     00000000  l__CRASH_HEADER                 
     00000000  l__CRASH_SCRATCH                
     00000000  l__DABS                         
     00000000  l__HEADER                       
     00000000  l__HEADER_LCD                   
     00000000  l__HEADER_SIO                   
     00000000  l__HEADER_TIMER                 
     00000000  l__HEAP                         
     00000000  l__HEAP_END                     
     00000000  l__HRAM                         
     00000000  l__LIT                          
     00000000  s__CABS                         
     00000000  s__CRASH_HEADER                 
     00000000  s__CRASH_HEADER0                
     00000000  s__CRASH_HEADER1                
     00000000  s__CRASH_SCRATCH                
     00000000  s__CRASH_SCRATCH2               
     00000000  s__DABS                         
     00000000  s__HEADER                       
     00000000  s__HEADER0                      
     00000000  s__HEADER1                      
     00000000  s__HEADER10                     
     00000000  s__HEADER11                     
     00000000  s__HEADER2                      
     00000000  s__HEADER3                      
     00000000  s__HEADER4                      
     00000000  s__HEADER5                      
     00000000  s__HEADER6                      
     00000000  s__HEADER7                      
     00000000  s__HEADER8                      
     00000000  s__HEADER9                      
     00000000  s__HEADER_LCD                   
     00000000  s__HEADER_LCD0                  
     00000000  s__HEADER_SIO                   
     00000000  s__HEADER_SIO0                  
     00000000  s__HEADER_TIMER                 
     00000000  s__HEADER_TIMER0                
     00000000  s__HEADERa                      
     00000000  s__HEADERb                      
     00000000  s__HEADERc                      
     00000000  s__HEADERd                      
     00000000  s__HEADERe                      
     00000000  s__HEADERf                      
     00000000  s__HRAM                         
ASxxxx Linker V03.00/V05.40 + sdld,  page 2.
Hexadecimal  [32-Bits]

Area                                    Addr        Size        Decimal Bytes (Attributes)
--------------------------------        ----        ----        ------- ----- ------------
.  .ABS.                            00000000    00000000 =           0. bytes (ABS,CON)

      Value  Global                              Global Defined In Module
      -----  --------------------------------   ------------------------
     00000000  s__HRAM12                       
     00000001  ___bank_VM_SGB                     vm_sgb
     00000001  ___bank_bg_title_screen_tileset    bg_title_screen_tileset
     00000001  ___bank_sprite_navio_portugues_i   sprite_navio_portugues_inve_
     00000001  ___mute_mask_sound_legacy_0        sound_legacy_0
     00000001  ___mute_mask_sound_legacy_1        sound_legacy_1
     00000001  ___mute_mask_sound_legacy_2        sound_legacy_2
     00000001  b_platform_init                    platform
     00000001  b_platform_update                  platform
     00000001  b_shmup_init                       shmup
     00000001  b_shmup_update                     shmup
     00000001  b_ui_draw_frame                    ui
     00000001  b_ui_draw_text_buffer_char         ui
     00000001  b_ui_init                          ui
     00000001  b_ui_load_tiles                    ui
     00000001  b_ui_run_menu                      ui
     00000001  b_ui_run_modal                     ui
     00000001  b_ui_set_start_tile                ui
     00000001  l__GSFINAL                      
     00000001  l__HEADER0                      
     00000001  l__HEADER5                      
     00000001  l__HEADERa                      
     00000001  l__HEADERb                      
     00000001  l__HEADERc                      
     00000001  l__HEADERe                      
     00000001  l__HEADERf                      
     00000002  ___bank_ACTOR                      actor
     00000002  ___bank_VM_ACTOR                   vm_actor
     00000002  ___bank_VM_MAIN                    vm
     00000002  ___bank_actor_4_update             actor_4_update
     00000002  ___bank_scene_12_sprites           scene_12_sprites
     00000002  ___bank_script_2                   script_2
     00000002  b_activate_actor                   actor
     00000002  b_activate_actors_in_col           actor
     00000002  b_activate_actors_in_row           actor
     00000002  b_actor_at_tile                    actor
     00000002  b_actor_get_frame_offset           actor
     00000002  b_actor_in_front_of_player         actor
     00000002  b_actor_overlapping_bb             actor
     00000002  b_actor_overlapping_player         actor
     00000002  b_actor_set_anim_idle              actor
     00000002  b_actor_set_anim_moving            actor
     00000002  b_actor_set_dir                    actor
     00000002  b_actor_set_frame_offset           actor
     00000002  b_actor_set_frames                 actor
     00000002  b_actors_handle_player_collision   actor
     00000002  b_actors_init                      actor
     00000002  b_check_collision_in_direction     actor
     00000002  b_deactivate_actor                 actor
     00000002  b_player_init                      actor
     00000002  b_script_detach_hthread            vm
ASxxxx Linker V03.00/V05.40 + sdld,  page 3.
Hexadecimal  [32-Bits]

Area                                    Addr        Size        Decimal Bytes (Attributes)
--------------------------------        ----        ----        ------- ----- ------------
.  .ABS.                            00000000    00000000 =           0. bytes (ABS,CON)

      Value  Global                              Global Defined In Module
      -----  --------------------------------   ------------------------
     00000002  b_script_execute                   vm
     00000002  b_script_runner_init               vm
     00000002  b_script_terminate                 vm
     00000002  b_vm_actor_activate                vm_actor
     00000002  b_vm_actor_begin_update            vm_actor
     00000002  b_vm_actor_deactivate              vm_actor
     00000002  b_vm_actor_emote                   vm_actor
     00000002  b_vm_actor_get_angle               vm_actor
     00000002  b_vm_actor_get_anim_frame          vm_actor
     00000002  b_vm_actor_get_dir                 vm_actor
     00000002  b_vm_actor_get_pos                 vm_actor
     00000002  b_vm_actor_move_cancel             vm_actor
     00000002  b_vm_actor_move_to                 vm_actor
     00000002  b_vm_actor_replace_tile            vm_actor
     00000002  b_vm_actor_set_anim                vm_actor
     00000002  b_vm_actor_set_anim_frame          vm_actor
     00000002  b_vm_actor_set_anim_set            vm_actor
     00000002  b_vm_actor_set_anim_tick           vm_actor
     00000002  b_vm_actor_set_bounds              vm_actor
     00000002  b_vm_actor_set_dir                 vm_actor
     00000002  b_vm_actor_set_flags               vm_actor
     00000002  b_vm_actor_set_move_speed          vm_actor
     00000002  b_vm_actor_set_pos                 vm_actor
     00000002  b_vm_actor_set_spritesheet         vm_actor
     00000002  b_vm_actor_set_spritesheet_by_re   vm_actor
     00000002  b_vm_actor_terminate_update        vm_actor
     00000002  b_vm_call                          vm
     00000002  b_vm_call_far                      vm
     00000002  b_vm_get_indirect                  vm
     00000002  b_vm_get_int16                     vm
     00000002  b_vm_get_int8                      vm
     00000002  b_vm_get_tlocal                    vm
     00000002  b_vm_get_uint8                     vm
     00000002  b_vm_idle                          vm
     00000002  b_vm_if                            vm
     00000002  b_vm_if_const                      vm
     00000002  b_vm_init_rng                      vm
     00000002  b_vm_invoke                        vm
     00000002  b_vm_join                          vm
     00000002  b_vm_jump                          vm
     00000002  b_vm_lock                          vm
     00000002  b_vm_loop                          vm
     00000002  b_vm_memcpy                        vm
     00000002  b_vm_memset                        vm
     00000002  b_vm_poll_loaded                   vm
     00000002  b_vm_pop                           vm
     00000002  b_vm_push                          vm
     00000002  b_vm_push_reference                vm
     00000002  b_vm_push_value                    vm
     00000002  b_vm_push_value_ind                vm
     00000002  b_vm_raise                         vm
ASxxxx Linker V03.00/V05.40 + sdld,  page 4.
Hexadecimal  [32-Bits]

Area                                    Addr        Size        Decimal Bytes (Attributes)
--------------------------------        ----        ----        ------- ----- ------------
.  .ABS.                            00000000    00000000 =           0. bytes (ABS,CON)

      Value  Global                              Global Defined In Module
      -----  --------------------------------   ------------------------
     00000002  b_vm_rand                          vm
     00000002  b_vm_reserve                       vm
     00000002  b_vm_ret                           vm
     00000002  b_vm_ret_far                       vm
     00000002  b_vm_set                           vm
     00000002  b_vm_set_const                     vm
     00000002  b_vm_set_const_int16               vm
     00000002  b_vm_set_const_int8                vm
     00000002  b_vm_set_indirect                  vm
     00000002  b_vm_set_int16                     vm
     00000002  b_vm_set_int8                      vm
     00000002  b_vm_set_uint8                     vm
     00000002  b_vm_terminate                     vm
     00000002  b_vm_test_terminate                vm
     00000002  b_vm_unlock                        vm
     00000002  b_wait_frames                      vm
     00000002  l__HEADER10                     
     00000002  l__HEADER6                      
     00000002  l__HEADERd                      
     00000003  ___bank_bg_cutscene_ingame_tiles   bg_cutscene_ingame_tileset
     00000003  ___bank_bg_grassfield_tilemap      bg_grassfield_tilemap
     00000003  ___bank_bg_skeleton_back_tilemap   bg_skeleton_back_tilemap
     00000003  ___bank_font_gbs_mono              font_gbs_mono
     00000003  ___bank_scene_12_init              scene_12_init
     00000003  ___bank_scene_27_collisions        scene_27_collisions
     00000003  ___bank_scene_7_collisions         scene_7_collisions
     00000003  l__HEADER9                      
     00000003  l__HEADER_LCD0                  
     00000003  l__HRAM12                       
     00000004  ___bank_bg_inventory_chief_tiles   bg_inventory_chief_tileset
     00000004  ___bank_bg_inventory_samurai_til   bg_inventory_samurai_tileset
     00000004  ___bank_bg_vila_2_tileset          bg_vila_2_tileset
     00000004  ___bank_palette_0                  palette_0
     00000004  b_adventure_init                   adventure
     00000004  b_adventure_update                 adventure
     00000004  b_do_load_palette                  data_manager
     00000004  b_load_background                  data_manager
     00000004  b_load_bkg_tileset                 data_manager
     00000004  b_load_bounds                      data_manager
     00000004  b_load_emote                       data_manager
     00000004  b_load_init                        data_manager
     00000004  b_load_player                      data_manager
     00000004  b_load_scene                       data_manager
     00000004  b_load_sprite                      data_manager
     00000004  b_projectile_launch                projectiles
     00000004  b_projectiles_init                 projectiles
     00000004  b_scroll_init                      scroll
     00000004  b_scroll_repaint                   scroll
     00000004  b_scroll_reset                     scroll
     00000004  b_scroll_update                    scroll
     00000004  b_topdown_init                     topdown
ASxxxx Linker V03.00/V05.40 + sdld,  page 5.
Hexadecimal  [32-Bits]

Area                                    Addr        Size        Decimal Bytes (Attributes)
--------------------------------        ----        ----        ------- ----- ------------
.  .ABS.                            00000000    00000000 =           0. bytes (ABS,CON)

      Value  Global                              Global Defined In Module
      -----  --------------------------------   ------------------------
     00000004  b_topdown_update                   topdown
     00000004  l__CRASH_HEADER1                
     00000004  l__HEADER_SIO0                  
     00000004  l__HEADER_TIMER0                
     00000005  ___bank_VM_GAMEBOY                 vm_gameboy
     00000005  ___bank_VM_UI                      vm_ui
     00000005  ___bank_bg_chief_entrance_tilese   bg_chief_entrance_tileset
     00000005  ___bank_bg_diningroom_tileset      bg_diningroom_tileset
     00000005  ___bank_bg_docas_tileset           bg_docas_tileset
     00000005  ___bank_bg_vila_1_tileset          bg_vila_1_tileset
     00000005  ___bank_bg_vila_2_tilemap          bg_vila_2_tilemap
     00000005  ___bank_scene_12_collisions        scene_12_collisions
     00000005  ___bank_scene_15_init              scene_15_init
     00000005  ___bank_scene_16_collisions        scene_16_collisions
     00000005  b___HandleCrash_banked             
     00000005  b_core_reset                       core
     00000005  b_core_run                         core
     00000005  b_data_clear                       load_save
     00000005  b_data_init                        load_save
     00000005  b_data_load                        load_save
     00000005  b_data_peek                        load_save
     00000005  b_data_save                        load_save
     00000005  b_gbprinter_detect                 gbprinter
     00000005  b_gbprinter_print_overlay          gbprinter
     00000005  b_pointnclick_init                 pointnclick
     00000005  b_pointnclick_update               pointnclick
     00000005  b_trigger_activate_at              trigger
     00000005  b_trigger_activate_at_intersecti   trigger
     00000005  b_trigger_at_intersection          trigger
     00000005  b_trigger_at_tile                  trigger
     00000005  b_trigger_interact                 trigger
     00000005  b_trigger_reset                    trigger
     00000005  b_vm_choice                        vm_ui
     00000005  b_vm_context_prepare               vm_gameboy
     00000005  b_vm_display_text                  vm_ui
     00000005  b_vm_fade                          vm_gameboy
     00000005  b_vm_get_tile_xy                   vm_gameboy
     00000005  b_vm_input_attach                  vm_gameboy
     00000005  b_vm_input_detach                  vm_gameboy
     00000005  b_vm_input_get                     vm_gameboy
     00000005  b_vm_input_wait                    vm_gameboy
     00000005  b_vm_load_tiles                    vm_gameboy
     00000005  b_vm_load_tileset                  vm_gameboy
     00000005  b_vm_overlay_clear                 vm_ui
     00000005  b_vm_overlay_move_to               vm_ui
     00000005  b_vm_overlay_scroll                vm_ui
     00000005  b_vm_overlay_set_map               vm_ui
     00000005  b_vm_overlay_set_scroll            vm_ui
     00000005  b_vm_overlay_set_submap            vm_ui
     00000005  b_vm_overlay_set_submap_ex         vm_ui
     00000005  b_vm_overlay_setpos                vm_ui
ASxxxx Linker V03.00/V05.40 + sdld,  page 6.
Hexadecimal  [32-Bits]

Area                                    Addr        Size        Decimal Bytes (Attributes)
--------------------------------        ----        ----        ------- ----- ------------
.  .ABS.                            00000000    00000000 =           0. bytes (ABS,CON)

      Value  Global                              Global Defined In Module
      -----  --------------------------------   ------------------------
     00000005  b_vm_overlay_show                  vm_ui
     00000005  b_vm_overlay_wait                  vm_ui
     00000005  b_vm_poll                          vm_gameboy
     00000005  b_vm_replace_tile                  vm_gameboy
     00000005  b_vm_replace_tile_xy               vm_gameboy
     00000005  b_vm_rumble                        vm_gameboy
     00000005  b_vm_set_font                      vm_ui
     00000005  b_vm_set_sprite_mode               vm_gameboy
     00000005  b_vm_set_sprites_visible           vm_gameboy
     00000005  b_vm_set_text_sound                vm_ui
     00000005  b_vm_switch_text_layer             vm_ui
     00000005  b_vm_timer_prepare                 vm_gameboy
     00000005  b_vm_timer_reset                   vm_gameboy
     00000005  b_vm_timer_set                     vm_gameboy
     00000005  b_vm_timer_stop                    vm_gameboy
     00000005  l__CRASH_HEADER0                
     00000005  l__HEADER1                      
     00000006  ___bank_VM_CAMERA                  vm_camera
     00000006  ___bank_VM_SIO                     vm_sio
     00000006  ___bank_actor_12_interact          actor_12_interact
     00000006  ___bank_actor_14_interact          actor_14_interact
     00000006  ___bank_bg_beco_tilemap            bg_beco_tilemap
     00000006  ___bank_bg_beco_tileset            bg_beco_tileset
     00000006  ___bank_bg_docas_tilemap           bg_docas_tilemap
     00000006  ___bank_bg_skeleton_back_tileset   bg_skeleton_back_tileset
     00000006  ___bank_bg_vila_1_tilemap          bg_vila_1_tilemap
     00000006  ___bank_scene_10_init              scene_10_init
     00000006  ___bank_scene_13_init              scene_13_init
     00000006  ___bank_scene_14_collisions        scene_14_collisions
     00000006  ___bank_scene_17_collisions        scene_17_collisions
     00000006  ___bank_scene_18_collisions        scene_18_collisions
     00000006  ___bank_scene_19_collisions        scene_19_collisions
     00000006  ___bank_scene_24_collisions        scene_24_collisions
     00000006  ___bank_scene_24_sprites           scene_24_sprites
     00000006  ___bank_scene_25_collisions        scene_25_collisions
     00000006  ___bank_scene_6_collisions         scene_6_collisions
     00000006  ___bank_sprite_chefe_vila_tilese   sprite_chefe_vila_tileset
     00000006  ___bank_sprite_main_character_ti   sprite_main_character_tilese
     00000006  ___bank_sprite_ninja_tileset       sprite_ninja_tileset
     00000006  ___bank_sprite_pirata2_tileset     sprite_pirata2_tileset
     00000006  ___bank_sprite_samurai_tileset     sprite_samurai_tileset
     00000006  ___bank_sprite_tradutor_tileset    sprite_tradutor_tileset
     00000006  b_atan2                            math_atan2
     00000006  b_camera_shake_frames              vm_camera
     00000006  b_set_sgb_border                   sgb_border
     00000006  b_vm_camera_move_to                vm_camera
     00000006  b_vm_camera_set_pos                vm_camera
     00000006  b_vm_sio_exchange                  vm_sio
     00000006  b_vm_sio_set_mode                  vm_sio
     00000006  l__HEADER8                      
     00000007  ___bank_VM_MATH                    vm_math
ASxxxx Linker V03.00/V05.40 + sdld,  page 7.
Hexadecimal  [32-Bits]

Area                                    Addr        Size        Decimal Bytes (Attributes)
--------------------------------        ----        ----        ------- ----- ------------
.  .ABS.                            00000000    00000000 =           0. bytes (ABS,CON)

      Value  Global                              Global Defined In Module
      -----  --------------------------------   ------------------------
     00000007  ___bank_VM_MUSIC                   vm_music
     00000007  ___bank_VM_PALETTE                 vm_palette
     00000007  ___bank_actor_13_interact          actor_13_interact
     00000007  ___bank_actor_15_interact          actor_15_interact
     00000007  ___bank_actor_31_interact          actor_31_interact
     00000007  ___bank_actor_32_interact          actor_32_interact
     00000007  ___bank_actor_33_interact          actor_33_interact
     00000007  ___bank_actor_34_interact          actor_34_interact
     00000007  ___bank_actor_35_interact          actor_35_interact
     00000007  ___bank_actor_36_interact          actor_36_interact
     00000007  ___bank_actor_46_interact          actor_46_interact
     00000007  ___bank_bg_chief_entrance_tilema   bg_chief_entrance_tilemap
     00000007  ___bank_bg_cutscene_ingame_tilem   bg_cutscene_ingame_tilemap
     00000007  ___bank_bg_diningroom_tilemap      bg_diningroom_tilemap
     00000007  ___bank_bg_inventory_chief_tilem   bg_inventory_chief_tilemap
     00000007  ___bank_bg_inventory_samurai_til   bg_inventory_samurai_tilemap
     00000007  ___bank_bg_placeholder_tilemap     bg_placeholder_tilemap
     00000007  ___bank_bg_title_screen_tilemap    bg_title_screen_tilemap
     00000007  ___bank_scene_0_collisions         scene_0_collisions
     00000007  ___bank_scene_10_collisions        scene_10_collisions
     00000007  ___bank_scene_11_collisions        scene_11_collisions
     00000007  ___bank_scene_13_collisions        scene_13_collisions
     00000007  ___bank_scene_15_collisions        scene_15_collisions
     00000007  ___bank_scene_19_actors            scene_19_actors
     00000007  ___bank_scene_1_collisions         scene_1_collisions
     00000007  ___bank_scene_20_collisions        scene_20_collisions
     00000007  ___bank_scene_21_collisions        scene_21_collisions
     00000007  ___bank_scene_22_collisions        scene_22_collisions
     00000007  ___bank_scene_23_collisions        scene_23_collisions
     00000007  ___bank_scene_26_collisions        scene_26_collisions
     00000007  ___bank_scene_29_collisions        scene_29_collisions
     00000007  ___bank_scene_2_collisions         scene_2_collisions
     00000007  ___bank_scene_30_collisions        scene_30_collisions
     00000007  ___bank_scene_3_collisions         scene_3_collisions
     00000007  ___bank_scene_4_collisions         scene_4_collisions
     00000007  ___bank_scene_5_collisions         scene_5_collisions
     00000007  ___bank_scene_8_collisions         scene_8_collisions
     00000007  ___bank_scene_9_collisions         scene_9_collisions
     00000007  ___bank_sprite_actor_animated_ti   sprite_actor_animated_tilese
     00000007  ___bank_sprite_boat_life_bar_til   sprite_boat_life_bar_tileset
     00000007  ___bank_sprite_boat_life_reverse   sprite_boat_life_reverse_til
     00000007  ___bank_sprite_main_character      sprite_main_character
     00000007  ___bank_sprite_pirata1_tileset     sprite_pirata1_tileset
     00000007  ___bank_sprite_slash_placeholder   sprite_slash_placeholder_til
     00000007  b_fade_applypalettechange          fade_manager
     00000007  b_fade_in                          fade_manager
     00000007  b_fade_in_modal                    fade_manager
     00000007  b_fade_init                        fade_manager
     00000007  b_fade_out                         fade_manager
     00000007  b_fade_out_modal                   fade_manager
     00000007  b_fade_setspeed                    fade_manager
ASxxxx Linker V03.00/V05.40 + sdld,  page 8.
Hexadecimal  [32-Bits]

Area                                    Addr        Size        Decimal Bytes (Attributes)
--------------------------------        ----        ----        ------- ----- ------------
.  .ABS.                            00000000    00000000 =           0. bytes (ABS,CON)

      Value  Global                              Global Defined In Module
      -----  --------------------------------   ------------------------
     00000007  b_fade_update                      fade_manager
     00000007  b_scroll_rect                      
     00000007  b_vm_cos_scale                     vm_math
     00000007  b_vm_load_palette                  vm_palette
     00000007  b_vm_music_mute                    vm_music
     00000007  b_vm_music_play                    vm_music
     00000007  b_vm_music_routine                 vm_music
     00000007  b_vm_music_setpos                  vm_music
     00000007  b_vm_music_stop                    vm_music
     00000007  b_vm_sfx_play                      vm_music
     00000007  b_vm_sin_scale                     vm_math
     00000007  b_vm_sound_mastervol               vm_music
     00000007  l__HEADER2                      
     00000008  ___bank_VM_GBPRINTER               vm_gbprinter
     00000008  ___bank_VM_LOAD_SAVE               vm_load_save
     00000008  ___bank_VM_PROJECTILE              vm_projectiles
     00000008  ___bank_VM_RTC                     vm_rtc
     00000008  ___bank_VM_SCENE                   vm_scene
     00000008  ___bank_actor_13_update            actor_13_update
     00000008  ___bank_actor_14_update            actor_14_update
     00000008  ___bank_actor_18_update            actor_18_update
     00000008  ___bank_actor_19_update            actor_19_update
     00000008  ___bank_actor_20_update            actor_20_update
     00000008  ___bank_actor_21_update            actor_21_update
     00000008  ___bank_actor_22_update            actor_22_update
     00000008  ___bank_actor_23_update            actor_23_update
     00000008  ___bank_actor_27_update            actor_27_update
     00000008  ___bank_actor_29_update            actor_29_update
     00000008  ___bank_actor_30_update            actor_30_update
     00000008  ___bank_actor_37_interact          actor_37_interact
     00000008  ___bank_actor_37_update            actor_37_update
     00000008  ___bank_actor_38_update            actor_38_update
     00000008  ___bank_actor_39_update            actor_39_update
     00000008  ___bank_actor_43_update            actor_43_update
     00000008  ___bank_actor_45_update            actor_45_update
     00000008  ___bank_actor_52_interact          actor_52_interact
     00000008  ___bank_actor_9_update             actor_9_update
     00000008  ___bank_frame_image                frame_image
     00000008  ___bank_scene_11_init              scene_11_init
     00000008  ___bank_scene_12_actors            scene_12_actors
     00000008  ___bank_scene_14_actors            scene_14_actors
     00000008  ___bank_scene_14_init              scene_14_init
     00000008  ___bank_scene_16_init              scene_16_init
     00000008  ___bank_scene_17_init              scene_17_init
     00000008  ___bank_scene_19_init              scene_19_init
     00000008  ___bank_scene_20_actors            scene_20_actors
     00000008  ___bank_scene_20_init              scene_20_init
     00000008  ___bank_scene_21_actors            scene_21_actors
     00000008  ___bank_scene_21_init              scene_21_init
     00000008  ___bank_scene_22_actors            scene_22_actors
     00000008  ___bank_scene_23_init              scene_23_init
ASxxxx Linker V03.00/V05.40 + sdld,  page 9.
Hexadecimal  [32-Bits]

Area                                    Addr        Size        Decimal Bytes (Attributes)
--------------------------------        ----        ----        ------- ----- ------------
.  .ABS.                            00000000    00000000 =           0. bytes (ABS,CON)

      Value  Global                              Global Defined In Module
      -----  --------------------------------   ------------------------
     00000008  ___bank_scene_24_actors            scene_24_actors
     00000008  ___bank_scene_24_p_hit1            scene_24_p_hit1
     00000008  ___bank_scene_25_actors            scene_25_actors
     00000008  ___bank_scene_26_init              scene_26_init
     00000008  ___bank_scene_27_actors            scene_27_actors
     00000008  ___bank_scene_27_init              scene_27_init
     00000008  ___bank_scene_27_triggers          scene_27_triggers
     00000008  ___bank_scene_29_actors            scene_29_actors
     00000008  ___bank_scene_6_actors             scene_6_actors
     00000008  ___bank_scene_6_init               scene_6_init
     00000008  ___bank_scene_7_actors             scene_7_actors
     00000008  ___bank_scene_7_triggers           scene_7_triggers
     00000008  ___bank_script_3                   script_3
     00000008  ___bank_script_6                   script_6
     00000008  ___bank_sprite_actor               sprite_actor
     00000008  ___bank_sprite_actor_animated      sprite_actor_animated
     00000008  ___bank_sprite_actor_tileset       sprite_actor_tileset
     00000008  ___bank_sprite_boat_life_bar       sprite_boat_life_bar
     00000008  ___bank_sprite_boat_life_reverse   sprite_boat_life_reverse
     00000008  ___bank_sprite_chefe_vila          sprite_chefe_vila
     00000008  ___bank_sprite_cristao             sprite_cristao
     00000008  ___bank_sprite_cristao_tileset     sprite_cristao_tileset
     00000008  ___bank_sprite_navio_portugues_t   sprite_navio_portugues_tiles
     00000008  ___bank_sprite_ninja               sprite_ninja
     00000008  ___bank_sprite_pirata1             sprite_pirata1
     00000008  ___bank_sprite_pirata2             sprite_pirata2
     00000008  ___bank_sprite_samurai             sprite_samurai
     00000008  ___bank_sprite_slash_placeholder   sprite_slash_placeholder
     00000008  ___bank_sprite_tradutor            sprite_tradutor
     00000008  ___bank_sprite_tripulante1_tiles   sprite_tripulante1_tileset
     00000008  ___bank_sprite_tripulante2_tiles   sprite_tripulante2_tileset
     00000008  ___bank_trigger_10_interact        trigger_10_interact
     00000008  ___bank_trigger_11_interact        trigger_11_interact
     00000008  ___bank_trigger_12_interact        trigger_12_interact
     00000008  ___bank_trigger_13_interact        trigger_13_interact
     00000008  ___bank_trigger_14_interact        trigger_14_interact
     00000008  ___bank_trigger_27_interact        trigger_27_interact
     00000008  ___bank_trigger_29_interact        trigger_29_interact
     00000008  ___bank_trigger_2_interact         trigger_2_interact
     00000008  ___bank_trigger_30_interact        trigger_30_interact
     00000008  ___bank_trigger_31_interact        trigger_31_interact
     00000008  ___bank_trigger_32_interact        trigger_32_interact
     00000008  ___bank_trigger_33_interact        trigger_33_interact
     00000008  ___bank_trigger_34_interact        trigger_34_interact
     00000008  ___bank_trigger_35_interact        trigger_35_interact
     00000008  ___bank_trigger_36_interact        trigger_36_interact
     00000008  ___bank_trigger_37_interact        trigger_37_interact
     00000008  ___bank_trigger_38_interact        trigger_38_interact
     00000008  ___bank_trigger_39_interact        trigger_39_interact
     00000008  ___bank_trigger_40_interact        trigger_40_interact
     00000008  ___bank_trigger_4_interact         trigger_4_interact
ASxxxx Linker V03.00/V05.40 + sdld,  page 10.
Hexadecimal  [32-Bits]

Area                                    Addr        Size        Decimal Bytes (Attributes)
--------------------------------        ----        ----        ------- ----- ------------
.  .ABS.                            00000000    00000000 =           0. bytes (ABS,CON)

      Value  Global                              Global Defined In Module
      -----  --------------------------------   ------------------------
     00000008  ___bank_trigger_5_interact         trigger_5_interact
     00000008  ___bank_trigger_6_interact         trigger_6_interact
     00000008  ___bank_trigger_7_interact         trigger_7_interact
     00000008  ___bank_trigger_8_interact         trigger_8_interact
     00000008  ___bank_trigger_9_interact         trigger_9_interact
     00000008  ___mute_mask_sound_legacy_3        sound_legacy_3
     00000008  b_erase_flash                      
     00000008  b_events_init                      events
     00000008  b_itoa_fmt                         vm_ui_a
     00000008  b_music_events_poll                music_manager
     00000008  b_music_init_driver                music_manager
     00000008  b_music_init_events                music_manager
     00000008  b_restore_sram                     flasher
     00000008  b_restore_sram_bank                flasher
     00000008  b_save_sram                        flasher
     00000008  b_save_sram_banks                  
     00000008  b_timers_init                      events
     00000008  b_vm_print_detect                  vm_gbprinter
     00000008  b_vm_print_overlay                 vm_gbprinter
     00000008  b_vm_projectile_launch             vm_projectiles
     00000008  b_vm_projectile_load_type          vm_projectiles
     00000008  b_vm_rtc_get                       vm_rtc
     00000008  b_vm_rtc_latch                     vm_rtc
     00000008  b_vm_rtc_set                       vm_rtc
     00000008  b_vm_rtc_start                     vm_rtc
     00000008  b_vm_save_clear                    vm_load_save
     00000008  b_vm_save_peek                     vm_load_save
     00000008  b_vm_scene_pop                     vm_scene
     00000008  b_vm_scene_pop_all                 vm_scene
     00000008  b_vm_scene_push                    vm_scene
     00000008  b_vm_scene_stack_reset             vm_scene
     00000008  l__HEADER3                      
     00000009  ___bank_actor_10_interact          actor_10_interact
     00000009  ___bank_actor_10_update            actor_10_update
     00000009  ___bank_actor_15_update            actor_15_update
     00000009  ___bank_actor_19_interact          actor_19_interact
     00000009  ___bank_actor_1_interact           actor_1_interact
     00000009  ___bank_actor_1_update             actor_1_update
     00000009  ___bank_actor_20_interact          actor_20_interact
     00000009  ___bank_actor_22_interact          actor_22_interact
     00000009  ___bank_actor_25_update            actor_25_update
     00000009  ___bank_actor_26_interact          actor_26_interact
     00000009  ___bank_actor_27_interact          actor_27_interact
     00000009  ___bank_actor_29_interact          actor_29_interact
     00000009  ___bank_actor_2_interact           actor_2_interact
     00000009  ___bank_actor_2_update             actor_2_update
     00000009  ___bank_actor_30_interact          actor_30_interact
     00000009  ___bank_actor_3_interact           actor_3_interact
     00000009  ___bank_actor_3_update             actor_3_update
     00000009  ___bank_actor_40_interact          actor_40_interact
     00000009  ___bank_actor_41_interact          actor_41_interact
ASxxxx Linker V03.00/V05.40 + sdld,  page 11.
Hexadecimal  [32-Bits]

Area                                    Addr        Size        Decimal Bytes (Attributes)
--------------------------------        ----        ----        ------- ----- ------------
.  .ABS.                            00000000    00000000 =           0. bytes (ABS,CON)

      Value  Global                              Global Defined In Module
      -----  --------------------------------   ------------------------
     00000009  ___bank_actor_42_interact          actor_42_interact
     00000009  ___bank_actor_47_interact          actor_47_interact
     00000009  ___bank_actor_48_interact          actor_48_interact
     00000009  ___bank_actor_49_interact          actor_49_interact
     00000009  ___bank_actor_50_interact          actor_50_interact
     00000009  ___bank_actor_51_interact          actor_51_interact
     00000009  ___bank_actor_53_interact          actor_53_interact
     00000009  ___bank_actor_5_interact           actor_5_interact
     00000009  ___bank_actor_5_update             actor_5_update
     00000009  ___bank_actor_6_interact           actor_6_interact
     00000009  ___bank_actor_6_update             actor_6_update
     00000009  ___bank_actor_7_interact           actor_7_interact
     00000009  ___bank_actor_7_update             actor_7_update
     00000009  ___bank_actor_8_interact           actor_8_interact
     00000009  ___bank_actor_8_update             actor_8_update
     00000009  ___bank_bg_beco                    bg_beco
     00000009  ___bank_bg_chief_entrance          bg_chief_entrance
     00000009  ___bank_bg_cutscene_ingame         bg_cutscene_ingame
     00000009  ___bank_bg_diningroom              bg_diningroom
     00000009  ___bank_bg_docas                   bg_docas
     00000009  ___bank_bg_grassfield              bg_grassfield
     00000009  ___bank_bg_grassfield_tileset      bg_grassfield_tileset
     00000009  ___bank_bg_inventory_chief         bg_inventory_chief
     00000009  ___bank_bg_inventory_samurai       bg_inventory_samurai
     00000009  ___bank_bg_placeholder             bg_placeholder
     00000009  ___bank_bg_placeholder_tileset     bg_placeholder_tileset
     00000009  ___bank_bg_skeleton_back           bg_skeleton_back
     00000009  ___bank_bg_title_screen            bg_title_screen
     00000009  ___bank_bg_vila_1                  bg_vila_1
     00000009  ___bank_bg_vila_2                  bg_vila_2
     00000009  ___bank_bootstrap_script           
     00000009  ___bank_cursor_image               cursor_image
     00000009  ___bank_emote_anger                emote_anger
     00000009  ___bank_emote_music                emote_music
     00000009  ___bank_emote_pause                emote_pause
     00000009  ___bank_emote_question             emote_question
     00000009  ___bank_emote_shock                emote_shock
     00000009  ___bank_emote_sweat                emote_sweat
     00000009  ___bank_palette_1                  palette_1
     00000009  ___bank_scene_0                    scene_0
     00000009  ___bank_scene_0_init               scene_0_init
     00000009  ___bank_scene_1                    scene_1
     00000009  ___bank_scene_10                   scene_10
     00000009  ___bank_scene_10_actors            scene_10_actors
     00000009  ___bank_scene_10_sprites           scene_10_sprites
     00000009  ___bank_scene_11                   scene_11
     00000009  ___bank_scene_12                   scene_12
     00000009  ___bank_scene_13                   scene_13
     00000009  ___bank_scene_13_actors            scene_13_actors
     00000009  ___bank_scene_13_sprites           scene_13_sprites
     00000009  ___bank_scene_14                   scene_14
ASxxxx Linker V03.00/V05.40 + sdld,  page 12.
Hexadecimal  [32-Bits]

Area                                    Addr        Size        Decimal Bytes (Attributes)
--------------------------------        ----        ----        ------- ----- ------------
.  .ABS.                            00000000    00000000 =           0. bytes (ABS,CON)

      Value  Global                              Global Defined In Module
      -----  --------------------------------   ------------------------
     00000009  ___bank_scene_14_p_hit1            scene_14_p_hit1
     00000009  ___bank_scene_14_projectiles       scene_14_projectiles
     00000009  ___bank_scene_14_sprites           scene_14_sprites
     00000009  ___bank_scene_14_triggers          scene_14_triggers
     00000009  ___bank_scene_15                   scene_15
     00000009  ___bank_scene_16                   scene_16
     00000009  ___bank_scene_16_actors            scene_16_actors
     00000009  ___bank_scene_16_sprites           scene_16_sprites
     00000009  ___bank_scene_16_triggers          scene_16_triggers
     00000009  ___bank_scene_17                   scene_17
     00000009  ___bank_scene_17_actors            scene_17_actors
     00000009  ___bank_scene_17_sprites           scene_17_sprites
     00000009  ___bank_scene_17_triggers          scene_17_triggers
     00000009  ___bank_scene_18                   scene_18
     00000009  ___bank_scene_18_actors            scene_18_actors
     00000009  ___bank_scene_18_init              scene_18_init
     00000009  ___bank_scene_18_sprites           scene_18_sprites
     00000009  ___bank_scene_18_triggers          scene_18_triggers
     00000009  ___bank_scene_19                   scene_19
     00000009  ___bank_scene_19_sprites           scene_19_sprites
     00000009  ___bank_scene_19_triggers          scene_19_triggers
     00000009  ___bank_scene_1_init               scene_1_init
     00000009  ___bank_scene_2                    scene_2
     00000009  ___bank_scene_20                   scene_20
     00000009  ___bank_scene_20_sprites           scene_20_sprites
     00000009  ___bank_scene_20_triggers          scene_20_triggers
     00000009  ___bank_scene_21                   scene_21
     00000009  ___bank_scene_21_sprites           scene_21_sprites
     00000009  ___bank_scene_21_triggers          scene_21_triggers
     00000009  ___bank_scene_22                   scene_22
     00000009  ___bank_scene_22_init              scene_22_init
     00000009  ___bank_scene_22_sprites           scene_22_sprites
     00000009  ___bank_scene_22_triggers          scene_22_triggers
     00000009  ___bank_scene_23                   scene_23
     00000009  ___bank_scene_24                   scene_24
     00000009  ___bank_scene_24_init              scene_24_init
     00000009  ___bank_scene_24_projectiles       scene_24_projectiles
     00000009  ___bank_scene_24_triggers          scene_24_triggers
     00000009  ___bank_scene_25                   scene_25
     00000009  ___bank_scene_25_init              scene_25_init
     00000009  ___bank_scene_25_sprites           scene_25_sprites
     00000009  ___bank_scene_25_triggers          scene_25_triggers
     00000009  ___bank_scene_26                   scene_26
     00000009  ___bank_scene_27                   scene_27
     00000009  ___bank_scene_27_sprites           scene_27_sprites
     00000009  ___bank_scene_29                   scene_29
     00000009  ___bank_scene_29_init              scene_29_init
     00000009  ___bank_scene_29_sprites           scene_29_sprites
     00000009  ___bank_scene_29_triggers          scene_29_triggers
     00000009  ___bank_scene_2_init               scene_2_init
     00000009  ___bank_scene_3                    scene_3
ASxxxx Linker V03.00/V05.40 + sdld,  page 13.
Hexadecimal  [32-Bits]

Area                                    Addr        Size        Decimal Bytes (Attributes)
--------------------------------        ----        ----        ------- ----- ------------
.  .ABS.                            00000000    00000000 =           0. bytes (ABS,CON)

      Value  Global                              Global Defined In Module
      -----  --------------------------------   ------------------------
     00000009  ___bank_scene_30                   scene_30
     00000009  ___bank_scene_30_init              scene_30_init
     00000009  ___bank_scene_3_init               scene_3_init
     00000009  ___bank_scene_4                    scene_4
     00000009  ___bank_scene_4_init               scene_4_init
     00000009  ___bank_scene_5                    scene_5
     00000009  ___bank_scene_5_actors             scene_5_actors
     00000009  ___bank_scene_5_init               scene_5_init
     00000009  ___bank_scene_5_sprites            scene_5_sprites
     00000009  ___bank_scene_6                    scene_6
     00000009  ___bank_scene_6_p_hit1             scene_6_p_hit1
     00000009  ___bank_scene_6_projectiles        scene_6_projectiles
     00000009  ___bank_scene_6_sprites            scene_6_sprites
     00000009  ___bank_scene_6_triggers           scene_6_triggers
     00000009  ___bank_scene_7                    scene_7
     00000009  ___bank_scene_7_init               scene_7_init
     00000009  ___bank_scene_7_sprites            scene_7_sprites
     00000009  ___bank_scene_8                    scene_8
     00000009  ___bank_scene_8_init               scene_8_init
     00000009  ___bank_scene_9                    scene_9
     00000009  ___bank_scene_9_init               scene_9_init
     00000009  ___bank_script_1                   script_1
     00000009  ___bank_script_4                   script_4
     00000009  ___bank_script_engine_init         
     00000009  ___bank_script_input_0             script_input_0
     00000009  ___bank_script_input_1             script_input_1
     00000009  ___bank_script_input_10            script_input_10
     00000009  ___bank_script_input_11            script_input_11
     00000009  ___bank_script_input_12            script_input_12
     00000009  ___bank_script_input_13            script_input_13
     00000009  ___bank_script_input_14            script_input_14
     00000009  ___bank_script_input_15            script_input_15
     00000009  ___bank_script_input_16            script_input_16
     00000009  ___bank_script_input_17            script_input_17
     00000009  ___bank_script_input_18            script_input_18
     00000009  ___bank_script_input_2             script_input_2
     00000009  ___bank_script_input_3             script_input_3
     00000009  ___bank_script_input_4             script_input_4
     00000009  ___bank_script_input_5             script_input_5
     00000009  ___bank_script_input_6             script_input_6
     00000009  ___bank_script_input_7             script_input_7
     00000009  ___bank_script_input_8             script_input_8
     00000009  ___bank_script_input_9             script_input_9
     00000009  ___bank_script_timer_0             script_timer_0
     00000009  ___bank_script_timer_1             script_timer_1
     00000009  ___bank_sound_legacy_0             sound_legacy_0
     00000009  ___bank_sound_legacy_1             sound_legacy_1
     00000009  ___bank_sound_legacy_2             sound_legacy_2
     00000009  ___bank_sound_legacy_3             sound_legacy_3
     00000009  ___bank_sprite_arcabuz             sprite_arcabuz
     00000009  ___bank_sprite_arcabuz_tileset     sprite_arcabuz_tileset
ASxxxx Linker V03.00/V05.40 + sdld,  page 14.
Hexadecimal  [32-Bits]

Area                                    Addr        Size        Decimal Bytes (Attributes)
--------------------------------        ----        ----        ------- ----- ------------
.  .ABS.                            00000000    00000000 =           0. bytes (ABS,CON)

      Value  Global                              Global Defined In Module
      -----  --------------------------------   ------------------------
     00000009  ___bank_sprite_caixa_2             sprite_caixa_2
     00000009  ___bank_sprite_caixa_2_tileset     sprite_caixa_2_tileset
     00000009  ___bank_sprite_comerciant_1_vers   sprite_comerciant_1_vers_o_
     00000009  ___bank_sprite_comerciant_1_vers   sprite_comerciant_1_vers_o__
     00000009  ___bank_sprite_comerciant_2_vers   sprite_comerciant_2_vers_o_
     00000009  ___bank_sprite_comerciant_2_vers   sprite_comerciant_2_vers_o__
     00000009  ___bank_sprite_comerciant_vers_o   sprite_comerciant_vers_o_0
     00000009  ___bank_sprite_comerciant_vers_o   sprite_comerciant_vers_o_0_t
     00000009  ___bank_sprite_comerciant_vers_o   sprite_comerciant_vers_o_1
     00000009  ___bank_sprite_comerciant_vers_o   sprite_comerciant_vers_o_1_t
     00000009  ___bank_sprite_espada_europeia     sprite_espada_europeia
     00000009  ___bank_sprite_espada_europeia_t   sprite_espada_europeia_tiles
     00000009  ___bank_sprite_estatua_buda        sprite_estatua_buda
     00000009  ___bank_sprite_estatua_buda_tile   sprite_estatua_buda_tileset
     00000009  ___bank_sprite_inventory_cursor    sprite_inventory_cursor
     00000009  ___bank_sprite_inventory_cursor_   sprite_inventory_cursor_tile
     00000009  ___bank_sprite_jaula               sprite_jaula
     00000009  ___bank_sprite_jaula_tileset       sprite_jaula_tileset
     00000009  ___bank_sprite_navio_portugues     sprite_navio_portugues
     00000009  ___bank_sprite_navio_portugues_i   sprite_navio_portugues_inve
     00000009  ___bank_sprite_skull               sprite_skull
     00000009  ___bank_sprite_skull_tileset       sprite_skull_tileset
     00000009  ___bank_sprite_static              sprite_static
     00000009  ___bank_sprite_static_tileset      sprite_static_tileset
     00000009  ___bank_sprite_tripulante1         sprite_tripulante1
     00000009  ___bank_sprite_tripulante2         sprite_tripulante2
     00000009  ___bank_sprite_yipper              sprite_yipper
     00000009  ___bank_sprite_yipper_tileset      sprite_yipper_tileset
     00000009  ___bank_spritesheet_none           spritesheet_none
     00000009  ___bank_trigger_0_interact         trigger_0_interact
     00000009  ___bank_trigger_15_interact        trigger_15_interact
     00000009  ___bank_trigger_16_interact        trigger_16_interact
     00000009  ___bank_trigger_17_interact        trigger_17_interact
     00000009  ___bank_trigger_18_interact        trigger_18_interact
     00000009  ___bank_trigger_19_interact        trigger_19_interact
     00000009  ___bank_trigger_1_interact         trigger_1_interact
     00000009  ___bank_trigger_20_interact        trigger_20_interact
     00000009  ___bank_trigger_21_interact        trigger_21_interact
     00000009  ___bank_trigger_22_interact        trigger_22_interact
     00000009  ___bank_trigger_23_interact        trigger_23_interact
     00000009  ___bank_trigger_24_interact        trigger_24_interact
     00000009  ___bank_trigger_25_interact        trigger_25_interact
     00000009  ___bank_trigger_26_interact        trigger_26_interact
     00000009  ___bank_trigger_28_interact        trigger_28_interact
     00000009  ___bank_trigger_3_interact         trigger_3_interact
     00000009  ___bank_trigger_41_interact        trigger_41_interact
     00000009  ___bank_trigger_42_interact        trigger_42_interact
     00000009  ___bank_trigger_43_interact        trigger_43_interact
     00000009  ___bank_trigger_44_interact        trigger_44_interact
     00000009  b_SIO_init                         sio
     00000009  b_camera_init                      camera
ASxxxx Linker V03.00/V05.40 + sdld,  page 15.
Hexadecimal  [32-Bits]

Area                                    Addr        Size        Decimal Bytes (Attributes)
--------------------------------        ----        ----        ------- ----- ------------
.  .ABS.                            00000000    00000000 =           0. bytes (ABS,CON)

      Value  Global                              Global Defined In Module
      -----  --------------------------------   ------------------------
     00000009  b_camera_reset                     camera
     00000009  b_input_init                       input
     00000009  b_logo_init                        logo
     00000009  b_logo_update                      logo
     00000009  b_palette_init                     palette
     00000009  b_parallax_init                    parallax
     00000009  b_remove_LCD_ISRs                  interrupts
     0000000C  __start_save                    
     0000001A  l__INITIALIZED                  
     0000001A  l__INITIALIZER                  
     00000027  l__GSINIT                       
     00000030  l__HEADER7                      
     00000060  l__HEADER4                      
     000000AB  l__HEADER11                     
     000001CB  l__CRASH_SCRATCH2               
     00000200  s__CODE                         
     00000E5E  l__CODE                         
     0000105E  s__HOME                         
     00001992  l__DATA                         
     00002000  _rROMB0                            
     00002406  l__CODE_9                       
     000029C0  l__HOME                         
     00003000  _rROMB1                            
     00003A1E  s__BASE                         
     00003A1E  s__CODE_0                       
     00003A1E  s__INITIALIZER                  
     00003A1E  s__LIT                          
     00003A38  s__GSINIT                       
     00003A5F  s__GSFINAL                      
     00003FFF  l__CODE_2                       
     00003FFF  l__CODE_5                       
     00003FFF  l__CODE_7                       
     00004000  _RTC_SELECT_REG                    vm_rtc
     00004000  _rRAMB                             
     00004000  l__CODE_1                       
     00004000  l__CODE_3                       
     00004000  l__CODE_4                       
     00004000  l__CODE_6                       
     00004000  l__CODE_8                       
     00006000  _RTC_LATCH_REG                     vm_rtc
     00008000  __VRAM                             
     00008000  __VRAM8000                         
     00008800  __VRAM8800                         
     00009000  __VRAM9000                         
     00009800  __SCRN0                            
     00009C00  __SCRN1                            
     0000A000  _RTC_VALUE_REG                     vm_rtc
     0000A000  __SRAM                             
     0000C000  __RAM                              
     0000C000  _shadow_OAM                     
     0000C0A0  s__DATA                         
ASxxxx Linker V03.00/V05.40 + sdld,  page 16.
Hexadecimal  [32-Bits]

Area                                    Addr        Size        Decimal Bytes (Attributes)
--------------------------------        ----        ----        ------- ----- ------------
.  .ABS.                            00000000    00000000 =           0. bytes (ABS,CON)

      Value  Global                              Global Defined In Module
      -----  --------------------------------   ------------------------
     0000D000  __RAMBANK                          
     0000DA32  s__BSS                          
     0000DA32  s__INITIALIZED                  
     0000DA4C  s__HEAP                         
     0000DA4C  s__HEAP_END                     
     0000DF00  .STACK                          
     0000DF00  _shadow_OAM2                       absolute
     0000DFA0  _BkgPalette                        absolute
     0000DFE0  _vwf_tile_data                     absolute
     0000FE00  __OAMRAM                           
     0000FF00  _P1_REG                            
     0000FF00  __IO                               
     0000FF01  _SB_REG                            
     0000FF02  _SC_REG                            
     0000FF04  _DIV_REG                           
     0000FF05  _TIMA_REG                          
     0000FF06  _TMA_REG                           
     0000FF07  _TAC_REG                           
     0000FF0F  _IF_REG                            
     0000FF10  _NR10_REG                          
     0000FF11  _NR11_REG                          
     0000FF12  _NR12_REG                          
     0000FF13  _NR13_REG                          
     0000FF14  _NR14_REG                          
     0000FF16  _NR21_REG                          
     0000FF17  _NR22_REG                          
     0000FF18  _NR23_REG                          
     0000FF19  _NR24_REG                          
     0000FF1A  _NR30_REG                          
     0000FF1B  _NR31_REG                          
     0000FF1C  _NR32_REG                          
     0000FF1D  _NR33_REG                          
     0000FF1E  _NR34_REG                          
     0000FF20  _NR41_REG                          
     0000FF21  _NR42_REG                          
     0000FF22  _NR43_REG                          
     0000FF23  _NR44_REG                          
     0000FF24  _NR50_REG                          
     0000FF25  _NR51_REG                          
     0000FF26  _NR52_REG                          
     0000FF30  _AUD3WAVE                          
     0000FF30  _PCM_SAMPLE                        
     0000FF30  __AUD3WAVERAM                      
     0000FF40  _LCDC_REG                          
     0000FF41  _STAT_REG                          
     0000FF42  _SCY_REG                           
     0000FF43  _SCX_REG                           
     0000FF44  _LY_REG                            
     0000FF45  _LYC_REG                           
     0000FF46  _DMA_REG                           
     0000FF47  _BGP_REG                           
ASxxxx Linker V03.00/V05.40 + sdld,  page 17.
Hexadecimal  [32-Bits]

Area                                    Addr        Size        Decimal Bytes (Attributes)
--------------------------------        ----        ----        ------- ----- ------------
.  .ABS.                            00000000    00000000 =           0. bytes (ABS,CON)

      Value  Global                              Global Defined In Module
      -----  --------------------------------   ------------------------
     0000FF48  _OBP0_REG                          
     0000FF49  _OBP1_REG                          
     0000FF4A  _WY_REG                            
     0000FF4B  _WX_REG                            
     0000FF4D  _KEY1_REG                          
     0000FF4F  _VBK_REG                           
     0000FF51  _HDMA1_REG                         
     0000FF52  _HDMA2_REG                         
     0000FF53  _HDMA3_REG                         
     0000FF54  _HDMA4_REG                         
     0000FF55  _HDMA5_REG                         
     0000FF56  _RP_REG                            
     0000FF68  _BCPS_REG                          
     0000FF69  _BCPD_REG                          
     0000FF6A  _OCPS_REG                          
     0000FF6B  _OCPD_REG                          
     0000FF70  _SVBK_REG                          
     0000FF76  _PCM12_REG                         
     0000FF77  _PCM34_REG                         
     0000FF80  .refresh_OAM                    
     0000FF80  __HRAM                             
     0000FFFF  _IE_REG                            
     00014000  s__CODE_1                       
     00024000  s__CODE_2                       
     00034000  s__CODE_3                       
     00044000  s__CODE_4                       
     00054000  s__CODE_5                       
     00064000  s__CODE_6                       
     00074000  s__CODE_7                       
     00084000  s__CODE_8                       
     00094000  s__CODE_9                       
ASxxxx Linker V03.00/V05.40 + sdld,  page 18.
Hexadecimal  [32-Bits]

Area                                    Addr        Size        Decimal Bytes (Attributes)
--------------------------------        ----        ----        ------- ----- ------------
_CODE                               00000200    00000E5E =        3678. bytes (REL,CON)

      Value  Global                              Global Defined In Module
      -----  --------------------------------   ------------------------
     00000200  ___HandleCrash                     
     0000020A  _SIO_send_byte                     
     0000021D  _SIO_receive                       
     0000022E  _GetWinAddr                        
     00000236  _GetBkgAddr                        
     00000244  _state_init                        
     00000249  _state_update                      
     0000026B  _ui_time_masks                     
     00000273  _ui_print_shift_char               
     000002F6  _ui_draw_frame_row                 
     000002FF  .ui_draw_frame_row                 
     00000328  _script_cmds                       vm_instructions
     00000560  _save_signature                    game_signature
     00000564  _start_scene_x                     
     00000566  _start_scene_y                     
     00000568  _start_scene_dir                   
     00000569  _start_scene                       
     0000056C  _start_player_move_speed           
     0000056D  _start_player_anim_tick            
     0000056E  _ui_fonts                          
     00000571  _core_reset_hook                   main
     00000579  _main                              main
     00000581  _state_start_fns                   
     00000593  _state_update_fns                  
     000005A5  _hUGE_init                         hUGEDriver_obj
     000005A7  hUGE_init                          hUGEDriver_obj
     000005FD  _hUGE_mute_channel                 hUGEDriver_obj
     000005FF  hUGE_mute_channel                  hUGEDriver_obj
     0000084D  _hUGE_set_position                 hUGEDriver_obj
     0000084F  hUGE_set_position                  hUGEDriver_obj
     00000A14  _hUGE_dosound                      hUGEDriver_obj
     00000A14  hUGE_dosound                       hUGEDriver_obj
     00000D40  _get_vram_byte                     
     00000D48  _get_win_tile_xy                   
     00000D50  _get_bkg_tile_xy                   
     00000D77  _hide_sprites_range                Metasprites
     00000DA6  __mulsuchar                        mul
     00000DA9  __muluschar                        mul
     00000DB2  __mulschar                         mul
     00000DBA  __mulint                           mul
     00000DD9  __muluchar                         mul
     00000DEB  _set_vram_byte                     
     00000DF4  _set_win_tile_xy                   
     00000DFC  _set_bkg_tile_xy                   
     00000E26  .sgb_check                         
     00000E26  _sgb_check                         
     00000E6E  _sgb_transfer                      
     00000E73  .sgb_transfer                      
     00000EB4  .copy_vram                         
     00000EBA  _get_data                          
ASxxxx Linker V03.00/V05.40 + sdld,  page 19.
Hexadecimal  [32-Bits]

Area                                    Addr        Size        Decimal Bytes (Attributes)
--------------------------------        ----        ----        ------- ----- ------------
_CODE                               00000200    00000E5E =        3678. bytes (REL,CON)

      Value  Global                              Global Defined In Module
      -----  --------------------------------   ------------------------
     00000EBA  _set_data                          
     00000EBA  _vmemcpy                           
     00000F08  ___move_metasprite                 Metasprites
     00000F45  ___memcpy                          
     00000F45  _memcpy                            
     00000F77  __divsuchar                        divmod
     00000F7D  __modsuchar                        divmod
     00000F86  __divuschar                        divmod
     00000F8F  __moduschar                        divmod
     00000F9B  __divschar                         divmod
     00000FA0  __modschar                         divmod
     00000FA7  __divsint                          divmod
     00000FB0  __modsint                          divmod
     00000FBC  __divuchar                         divmod
     00000FC1  __moduchar                         divmod
     00000FC8  __divuint                          divmod
     00000FD1  __moduint                          divmod
     00000FDD  .div8                              divmod
     00000FDD  .mod8                              divmod
     00000FE5  .div16                             divmod
     00000FE5  .mod16                             divmod
     0000101B  .divu8                             divmod
     0000101B  .modu8                             divmod
     0000101E  .divu16                            divmod
     0000101E  .modu16                            divmod
ASxxxx Linker V03.00/V05.40 + sdld,  page 20.
Hexadecimal  [32-Bits]

Area                                    Addr        Size        Decimal Bytes (Attributes)
--------------------------------        ----        ----        ------- ----- ------------
_HEADER0                            00000000    00000001 =           1. bytes (ABS,CON)

      Value  Global                              Global Defined In Module
      -----  --------------------------------   ------------------------
     00000020  .call_hl                           Runtime

ASxxxx Linker V03.00/V05.40 + sdld,  page 21.
Hexadecimal  [32-Bits]

Area                                    Addr        Size        Decimal Bytes (Attributes)
--------------------------------        ----        ----        ------- ----- ------------
_HEADER1                            00000000    00000005 =           5. bytes (ABS,CON)

      Value  Global                              Global Defined In Module
      -----  --------------------------------   ------------------------
     00000028  .MemsetSmall                       Runtime

ASxxxx Linker V03.00/V05.40 + sdld,  page 22.
Hexadecimal  [32-Bits]

Area                                    Addr        Size        Decimal Bytes (Attributes)
--------------------------------        ----        ----        ------- ----- ------------
_HEADER2                            00000000    00000007 =           7. bytes (ABS,CON)

      Value  Global                              Global Defined In Module
      -----  --------------------------------   ------------------------
     00000030  .MemcpySmall                       Runtime

ASxxxx Linker V03.00/V05.40 + sdld,  page 23.
Hexadecimal  [32-Bits]

Area                                    Addr        Size        Decimal Bytes (Attributes)
--------------------------------        ----        ----        ------- ----- ------------
_HEADER3                            00000000    00000008 =           8. bytes (ABS,CON)

      Value  Global                              Global Defined In Module
      -----  --------------------------------   ------------------------
ASxxxx Linker V03.00/V05.40 + sdld,  page 24.
Hexadecimal  [32-Bits]

Area                                    Addr        Size        Decimal Bytes (Attributes)
--------------------------------        ----        ----        ------- ----- ------------
_HEADER4                            00000000    00000060 =          96. bytes (ABS,CON)

      Value  Global                              Global Defined In Module
      -----  --------------------------------   ------------------------
     00000080  .int                               Runtime
     0000008F  _wait_int_handler                  Runtime
     0000009C  __standard_VBL_handler             Runtime
     000000AB  _refresh_OAM                       Runtime
     000000CC  _set_interrupts                    Runtime

ASxxxx Linker V03.00/V05.40 + sdld,  page 25.
Hexadecimal  [32-Bits]

Area                                    Addr        Size        Decimal Bytes (Attributes)
--------------------------------        ----        ----        ------- ----- ------------
_HEADER5                            00000000    00000001 =           1. bytes (ABS,CON)

      Value  Global                              Global Defined In Module
      -----  --------------------------------   ------------------------
ASxxxx Linker V03.00/V05.40 + sdld,  page 26.
Hexadecimal  [32-Bits]

Area                                    Addr        Size        Decimal Bytes (Attributes)
--------------------------------        ----        ----        ------- ----- ------------
_HEADER6                            00000000    00000002 =           2. bytes (ABS,CON)

      Value  Global                              Global Defined In Module
      -----  --------------------------------   ------------------------
ASxxxx Linker V03.00/V05.40 + sdld,  page 27.
Hexadecimal  [32-Bits]

Area                                    Addr        Size        Decimal Bytes (Attributes)
--------------------------------        ----        ----        ------- ----- ------------
_HEADER7                            00000000    00000030 =          48. bytes (ABS,CON)

      Value  Global                              Global Defined In Module
      -----  --------------------------------   ------------------------
ASxxxx Linker V03.00/V05.40 + sdld,  page 28.
Hexadecimal  [32-Bits]

Area                                    Addr        Size        Decimal Bytes (Attributes)
--------------------------------        ----        ----        ------- ----- ------------
_HEADER8                            00000000    00000006 =           6. bytes (ABS,CON)

      Value  Global                              Global Defined In Module
      -----  --------------------------------   ------------------------
ASxxxx Linker V03.00/V05.40 + sdld,  page 29.
Hexadecimal  [32-Bits]

Area                                    Addr        Size        Decimal Bytes (Attributes)
--------------------------------        ----        ----        ------- ----- ------------
_HEADER9                            00000000    00000003 =           3. bytes (ABS,CON)

      Value  Global                              Global Defined In Module
      -----  --------------------------------   ------------------------
ASxxxx Linker V03.00/V05.40 + sdld,  page 30.
Hexadecimal  [32-Bits]

Area                                    Addr        Size        Decimal Bytes (Attributes)
--------------------------------        ----        ----        ------- ----- ------------
_HEADERa                            00000000    00000001 =           1. bytes (ABS,CON)

      Value  Global                              Global Defined In Module
      -----  --------------------------------   ------------------------
ASxxxx Linker V03.00/V05.40 + sdld,  page 31.
Hexadecimal  [32-Bits]

Area                                    Addr        Size        Decimal Bytes (Attributes)
--------------------------------        ----        ----        ------- ----- ------------
_HEADERb                            00000000    00000001 =           1. bytes (ABS,CON)

      Value  Global                              Global Defined In Module
      -----  --------------------------------   ------------------------
ASxxxx Linker V03.00/V05.40 + sdld,  page 32.
Hexadecimal  [32-Bits]

Area                                    Addr        Size        Decimal Bytes (Attributes)
--------------------------------        ----        ----        ------- ----- ------------
_HEADERc                            00000000    00000001 =           1. bytes (ABS,CON)

      Value  Global                              Global Defined In Module
      -----  --------------------------------   ------------------------
ASxxxx Linker V03.00/V05.40 + sdld,  page 33.
Hexadecimal  [32-Bits]

Area                                    Addr        Size        Decimal Bytes (Attributes)
--------------------------------        ----        ----        ------- ----- ------------
_HEADERd                            00000000    00000002 =           2. bytes (ABS,CON)

      Value  Global                              Global Defined In Module
      -----  --------------------------------   ------------------------
ASxxxx Linker V03.00/V05.40 + sdld,  page 34.
Hexadecimal  [32-Bits]

Area                                    Addr        Size        Decimal Bytes (Attributes)
--------------------------------        ----        ----        ------- ----- ------------
_HEADERe                            00000000    00000001 =           1. bytes (ABS,CON)

      Value  Global                              Global Defined In Module
      -----  --------------------------------   ------------------------
ASxxxx Linker V03.00/V05.40 + sdld,  page 35.
Hexadecimal  [32-Bits]

Area                                    Addr        Size        Decimal Bytes (Attributes)
--------------------------------        ----        ----        ------- ----- ------------
_HEADERf                            00000000    00000001 =           1. bytes (ABS,CON)

      Value  Global                              Global Defined In Module
      -----  --------------------------------   ------------------------
ASxxxx Linker V03.00/V05.40 + sdld,  page 36.
Hexadecimal  [32-Bits]

Area                                    Addr        Size        Decimal Bytes (Attributes)
--------------------------------        ----        ----        ------- ----- ------------
_HEADER10                           00000000    00000002 =           2. bytes (ABS,CON)

      Value  Global                              Global Defined In Module
      -----  --------------------------------   ------------------------
ASxxxx Linker V03.00/V05.40 + sdld,  page 37.
Hexadecimal  [32-Bits]

Area                                    Addr        Size        Decimal Bytes (Attributes)
--------------------------------        ----        ----        ------- ----- ------------
_HEADER11                           00000000    000000AB =         171. bytes (ABS,CON)

      Value  Global                              Global Defined In Module
      -----  --------------------------------   ------------------------
     00000150  .reset                             Runtime
     00000150  _reset                             Runtime
     00000157  .code_start                        Runtime
     000001B9  _exit                              Runtime
     000001BD  .wait_vbl_done                     Runtime
     000001BD  _vsync                             Runtime
     000001BD  _wait_vbl_done                     Runtime
     000001CD  .remove_VBL                        Runtime
     000001CD  _remove_VBL                        Runtime
     000001D0  .remove_int                        Runtime
     000001ED  .add_VBL                           Runtime
     000001ED  _add_VBL                           Runtime
     000001F0  .add_int                           Runtime

ASxxxx Linker V03.00/V05.40 + sdld,  page 38.
Hexadecimal  [32-Bits]

Area                                    Addr        Size        Decimal Bytes (Attributes)
--------------------------------        ----        ----        ------- ----- ------------
_HOME                               0000105E    000029C0 =       10688. bytes (REL,CON)

      Value  Global                              Global Defined In Module
      -----  --------------------------------   ------------------------
     0000105E  .memset_simple                     Runtime
     00001067  .memcpy_simple                     Runtime
     00001084  .display_off                       Runtime
     00001084  _display_off                       Runtime
     0000109C  _actors_update                     actor
     0000148F  _SetBankedBkgData                  bankdata
     000014AB  _SetBankedSpriteData               bankdata
     000014C7  _SetBankedBkgTiles                 bankdata
     000014E3  _SetBankedWinTiles                 bankdata
     000014FF  _ReadBankedFarPtr                  bankdata
     00001521  _ReadBankedUWORD                   bankdata
     0000153B  _MemcpyBanked                      bankdata
     0000155D  _MemcpyVRAMBanked                  bankdata
     0000158C  _IndexOfFarPtr                     bankdata
     00001611  _camera_update                     camera
     00001744  _load_animations                   data_manager
     0000179D  _events_update                     events
     00001870  _timers_update                     events
     000018F9  _input_update                      input
     0000191C  .sio_ISR                           
     00001976  .timer_ISR                         
     0000198B  _simple_LCD_isr                    interrupts
     00001A0A  _fullscreen_LCD_isr                interrupts
     00001A36  _VBL_isr                           interrupts
     00001A80  _isqrt                             math
     00001ADD  _sine_wave                         math
     00001BDD  _dir_lookup                        math
     00001BE5  _dir_angle_lookup                  math
     00001BE9  _hUGETrackerRoutine                music_manager
     00001C10  _music_events_update               music_manager
     00001C92  _music_play_isr                    music_manager
     00001D33  _parallax_LCD_isr                  parallax
     00001D70  _projectiles_update                projectiles
     000021F1  _projectiles_render                projectiles
     00002346  _scroll_load_pending_row           scroll
     00002394  _scroll_load_row                   scroll
     000023D4  _scroll_load_col                   scroll
     00002409  _scroll_load_pending_col           scroll
     00002458  _set_bkg_submap                    
     0000249B  _set_xy_win_submap                 
     000024C8  .set_xy_win_submap                 
     000024D1  .set_xy_bkg_submap                 
     000024E0  .set_xy_submap                     
     0000252A  _sfx_play_isr                      sfx_player
     00002603  _on_SIO_receive                    sio
     00002642  _SIO_update                        sio
     000026A6  _ui_update                         ui
     000027DE  _vm_sgb_transfer                   vm_sgb
     0000282B  _vm_load_text                      vm_ui
     00002A81  _vm_switch                         vm
ASxxxx Linker V03.00/V05.40 + sdld,  page 39.
Hexadecimal  [32-Bits]

Area                                    Addr        Size        Decimal Bytes (Attributes)
--------------------------------        ----        ----        ------- ----- ------------
_HOME                               0000105E    000029C0 =       10688. bytes (REL,CON)

      Value  Global                              Global Defined In Module
      -----  --------------------------------   ------------------------
     00002BB2  _vm_beginthread                    vm
     00002CD6  _vm_rpn                            vm
     000034AF  _vm_get_far                        vm
     0000351D  _vm_call_native                    vm
     00003530  _VM_STEP                           vm
     0000359A  _script_runner_update              vm
     000036FF  _fill_win_rect                     
     00003711  _rand                              
     00003711  _randw                             
     0000373C  _initrand                          
     0000373E  .initrand                          
     00003747  _get_bkg_data                      
     00003747  _get_win_data                      
     00003794  _get_sprite_data                   
     000037C7  _abs                               abs
     000037D6  _set_win_tiles                     
     000037EA  _set_tile_data                     
     000037EF  _set_bkg_data                      
     000037EF  _set_win_data                      
     000037F7  _set_sprite_data                   
     00003827  _reverse                           reverse
     0000385B  ___call__banked                    far_ptr
     00003878  _to_far_ptr                        far_ptr
     000038AE  .add_LCD                           
     000038AE  _add_LCD                           
     000038B4  .remove_LCD                        
     000038B4  _remove_LCD                        
     000038BA  .fill_rect_wtt                     
     000038C3  .fill_rect_btt                     
     00003910  _fill_bkg_rect                     
     00003922  .padup                             
     00003922  _waitpadup                         
     00003932  .jpad                              
     00003932  _joypad                            
     0000395A  _waitpad                           
     0000395B  .wait_pad                          
     00003962  ___sdcc_call_hl                    call_hl
     00003963  _memset                            memset
     00003996  .set_xy_wtt                        SetTileMap
     0000399F  .set_xy_btt                        SetTileMap
     000039AE  .set_xy_tt                         SetTileMap
     000039F0  ___sdcc_bcall_ehl                  
     00003A0A  _set_bkg_tiles                     
ASxxxx Linker V03.00/V05.40 + sdld,  page 40.
Hexadecimal  [32-Bits]

Area                                    Addr        Size        Decimal Bytes (Attributes)
--------------------------------        ----        ----        ------- ----- ------------
_INITIALIZER                        00003A1E    0000001A =          26. bytes (REL,CON)

      Value  Global                              Global Defined In Module
      -----  --------------------------------   ------------------------
ASxxxx Linker V03.00/V05.40 + sdld,  page 41.
Hexadecimal  [32-Bits]

Area                                    Addr        Size        Decimal Bytes (Attributes)
--------------------------------        ----        ----        ------- ----- ------------
_GSINIT                             00003A38    00000027 =          39. bytes (REL,CON)

      Value  Global                              Global Defined In Module
      -----  --------------------------------   ------------------------
     00003A38  gsinit                             Runtime

ASxxxx Linker V03.00/V05.40 + sdld,  page 42.
Hexadecimal  [32-Bits]

Area                                    Addr        Size        Decimal Bytes (Attributes)
--------------------------------        ----        ----        ------- ----- ------------
_GSFINAL                            00003A5F    00000001 =           1. bytes (REL,CON)

      Value  Global                              Global Defined In Module
      -----  --------------------------------   ------------------------
ASxxxx Linker V03.00/V05.40 + sdld,  page 43.
Hexadecimal  [32-Bits]

Area                                    Addr        Size        Decimal Bytes (Attributes)
--------------------------------        ----        ----        ------- ----- ------------
_DATA                               0000C0A0    00001992 =        6546. bytes (REL,CON)

      Value  Global                              Global Defined In Module
      -----  --------------------------------   ------------------------
     0000C0A0  __cpu                              Runtime
     0000C0A1  __is_GBA                           Runtime
     0000C0A2  .mode                              Runtime
     0000C0A3  .sys_time                          Runtime
     0000C0A3  _sys_time                          Runtime
     0000C0A5  .int_0x40                          Runtime
     0000C0B1  _actors                            actor
     0000C4F5  _actors_active_head                actor
     0000C4F7  _actors_active_tail                actor
     0000C4F9  _actors_inactive_head              actor
     0000C4FB  _screen_x                          actor
     0000C4FC  _screen_y                          actor
     0000C4FD  _invalid                           actor
     0000C4FF  _player_moving                     actor
     0000C500  _player_iframes                    actor
     0000C501  _player_collision_actor            actor
     0000C503  _emote_actor                       actor
     0000C505  _emote_timer                       actor
     0000C506  _allocated_sprite_tiles            actor
     0000C507  _allocated_hardware_sprites        actor
     0000C513  _camera_x                          camera
     0000C515  _camera_y                          camera
     0000C517  _camera_offset_x                   camera
     0000C518  _camera_offset_y                   camera
     0000C519  _camera_deadzone_x                 camera
     0000C51A  _camera_deadzone_y                 camera
     0000C51B  _camera_settings                   camera
     0000C51F  _current_scene                     data_manager
     0000C522  _image_bank                        data_manager
     0000C523  _image_ptr                         data_manager
     0000C525  _image_attr_bank                   data_manager
     0000C526  _image_attr_ptr                    data_manager
     0000C528  _collision_bank                    data_manager
     0000C529  _collision_ptr                     data_manager
     0000C52B  _image_tile_width                  data_manager
     0000C52C  _image_tile_height                 data_manager
     0000C52D  _image_width                       data_manager
     0000C52F  _image_height                      data_manager
     0000C531  _sprites_len                       data_manager
     0000C532  _actors_len                        data_manager
     0000C533  _projectiles_len                   data_manager
     0000C534  _player_sprite_len                 data_manager
     0000C535  _scene_type                        data_manager
     0000C536  _scene_LCD_type                    data_manager
     0000C537  _scene_stack                       data_manager
     0000C577  _scene_stack_ptr                   data_manager
     0000C579  _scene_sprites_base_tiles          data_manager
     0000C5B9  _input_events                      events
     0000C5E1  _input_slots                       events
     0000C5E9  _timer_events                      events
ASxxxx Linker V03.00/V05.40 + sdld,  page 44.
Hexadecimal  [32-Bits]

Area                                    Addr        Size        Decimal Bytes (Attributes)
--------------------------------        ----        ----        ------- ----- ------------
_DATA                               0000C0A0    00001992 =        6546. bytes (REL,CON)

      Value  Global                              Global Defined In Module
      -----  --------------------------------   ------------------------
     0000C5FD  _timer_values                      events
     0000C605  _fade_running                      fade_manager
     0000C606  _fade_frames_per_step              fade_manager
     0000C607  _fade_timer                        fade_manager
     0000C60F  _joypads                           input
     0000C614  _frame_joy                         input
     0000C615  _last_joy                          input
     0000C616  _recent_joy                        input
     0000C617  _SIO_status                        
     0000C618  _link_byte_sent                    
     0000C619  _link_next_mode                    
     0000C61A  _save_blob_size                    load_save
     0000C61C  _routine_queue                     music_manager
     0000C620  _routine_queue_head                music_manager
     0000C621  _routine_queue_tail                music_manager
     0000C622  _music_events                      music_manager
     0000C636  _music_current_track_bank          music_manager
     0000C637  _music_mute_mask                   music_manager
     0000C638  _music_effective_mute              music_manager
     0000C639  _music_next_track                  music_manager
     0000C63B  _music_current_track               music_manager
     0000C63D  _music_play_isr_counter            music_manager
     0000C63E  _music_play_isr_pause              music_manager
     0000C63F  _music_global_mute_mask            music_manager
     0000C640  _music_sfx_priority                music_manager
     0000C641  _DMG_palette                       palette
     0000C644  _SprPalette                        palette
     0000C684  _parallax_rows                     parallax
     0000C696  _parallax_row                      parallax
     0000C698  _projectiles                       projectiles
     0000C751  _projectile_defs                   projectiles
     0000C7C4  _projectiles_active_head           projectiles
     0000C7C6  _projectiles_inactive_head         projectiles
     0000C7CD  _scroll_x                          scroll
     0000C7CF  _scroll_y                          scroll
     0000C7D1  _draw_scroll_x                     scroll
     0000C7D3  _draw_scroll_y                     scroll
     0000C7D5  _scroll_x_max                      scroll
     0000C7D7  _scroll_y_max                      scroll
     0000C7D9  _scroll_offset_x                   scroll
     0000C7DA  _scroll_offset_y                   scroll
     0000C7DB  _pending_h_x                       scroll
     0000C7DC  _pending_h_y                       scroll
     0000C7DD  _pending_h_i                       scroll
     0000C7DE  _pending_w_x                       scroll
     0000C7DF  _pending_w_y                       scroll
     0000C7E0  _pending_w_i                       scroll
     0000C7E1  _current_row                       scroll
     0000C7E3  _new_row                           scroll
     0000C7E5  _current_col                       scroll
     0000C7E7  _new_col                           scroll
ASxxxx Linker V03.00/V05.40 + sdld,  page 45.
Hexadecimal  [32-Bits]

Area                                    Addr        Size        Decimal Bytes (Attributes)
--------------------------------        ----        ----        ------- ----- ------------
_DATA                               0000C0A0    00001992 =        6546. bytes (REL,CON)

      Value  Global                              Global Defined In Module
      -----  --------------------------------   ------------------------
     0000C7E9  .image_tile_width                  
     0000C7EA  _sfx_play_bank                     sfx_player
     0000C7EB  _sfx_play_sample                   sfx_player
     0000C7ED  _sfx_frame_skip                    sfx_player
     0000C7EE  _link_operation_mode               sio
     0000C7EF  _link_packet                       sio
     0000C80F  _link_packet_len                   sio
     0000C810  _link_packet_ptr                   sio
     0000C812  _link_packet_received              sio
     0000C813  _link_packet_snd_len               sio
     0000C814  _link_packet_snd_ptr               sio
     0000C816  _link_packet_sent                  sio
     0000C817  __is_CGB                           system
     0000C818  __is_SGB                           system
     0000C819  __current_ram_bank                 system
     0000C81A  _triggers                          trigger
     0000C912  _last_trigger_tx                   trigger
     0000C913  _last_trigger_ty                   trigger
     0000C914  _last_trigger                      trigger
     0000C915  _win_pos_x                         ui
     0000C916  _win_dest_pos_x                    ui
     0000C917  _win_pos_y                         ui
     0000C918  _win_dest_pos_y                    ui
     0000C919  _win_speed                         ui
     0000C91A  _text_drawn                        ui
     0000C91B  _current_text_speed                ui
     0000C91C  _text_wait                         ui
     0000C91D  _text_options                      ui
     0000C91E  _text_in_speed                     ui
     0000C91F  _text_out_speed                    ui
     0000C920  _text_draw_speed                   ui
     0000C921  _text_ff_joypad                    ui
     0000C922  _text_ff                           ui
     0000C923  _text_bkg_fill                     ui
     0000C924  _ui_text_data                      ui
     0000CA2E  _vwf_current_mask                  ui
     0000CA2F  _vwf_current_rotate                ui
     0000CA30  _vwf_inverse_map                   ui
     0000CA31  _vwf_direction                     ui
     0000CA32  _vwf_current_font_desc             ui
     0000CA3A  _vwf_current_font_bank             ui
     0000CA3B  _vwf_current_font_idx              ui
     0000CA3C  _text_render_base_addr             ui
     0000CA3E  _text_scroll_addr                  ui
     0000CA40  _text_scroll_width                 ui
     0000CA41  _text_scroll_height                ui
     0000CA42  _text_scroll_fill                  ui
     0000CA43  _text_sound_mask                   ui
     0000CA44  _text_sound_bank                   ui
     0000CA45  _text_sound_data                   ui
     0000CA47  _overlay_priority                  ui
ASxxxx Linker V03.00/V05.40 + sdld,  page 46.
Hexadecimal  [32-Bits]

Area                                    Addr        Size        Decimal Bytes (Attributes)
--------------------------------        ----        ----        ------- ----- ------------
_DATA                               0000C0A0    00001992 =        6546. bytes (REL,CON)

      Value  Global                              Global Defined In Module
      -----  --------------------------------   ------------------------
     0000CA48  _text_palette                      ui
     0000CA4F  __itoa_fmt_len                     vm_ui_a
     0000CA50  .itoa_fmt_buf                      vm_ui_a
     0000CA53  _CTXS                              vm
     0000CB83  _first_ctx                         vm
     0000CB85  _free_ctxs                         vm
     0000CB87  _old_executing_ctx                 vm
     0000CB89  _executing_ctx                     vm
     0000CB8B  _vm_lock_state                     vm
     0000CB8C  _vm_loaded_state                   vm
     0000CB8D  _vm_exception_code                 vm
     0000CB8E  _vm_exception_params_length        vm
     0000CB8F  _vm_exception_params_bank          vm
     0000CB90  _vm_exception_params_offset        vm
     0000CB93  _script_memory                     vm
     0000D999  _grounded                          platform
     0000D99A  _on_slope                          platform
     0000D99B  _slope_y                           platform
     0000D99C  _on_ladder                         platform
     0000D99D  _pl_vel_x                          platform
     0000D99F  _pl_vel_y                          platform
     0000D9A1  _plat_min_vel                      platform
     0000D9A3  _plat_walk_vel                     platform
     0000D9A5  _plat_climb_vel                    platform
     0000D9A7  _plat_run_vel                      platform
     0000D9A9  _plat_walk_acc                     platform
     0000D9AB  _plat_run_acc                      platform
     0000D9AD  _plat_dec                          platform
     0000D9AF  _plat_jump_vel                     platform
     0000D9B1  _plat_grav                         platform
     0000D9B3  _plat_hold_grav                    platform
     0000D9B5  _plat_max_fall_vel                 platform
     0000D9B7  _shooter_reached_end               shmup
     0000D9B8  _shooter_dest                      shmup
     0000D9BA  _shooter_direction                 shmup
     0000D9BB  _topdown_grid                      topdown
     0000D9BC  ___rand_seed                       
     0000D9DA  _hUGE_current_wave                 hUGEDriver_obj
     0000D9DA  hUGE_current_wave                  hUGEDriver_obj
     0000D9DB  _hUGE_mute_mask                    hUGEDriver_obj
     0000DA22  ___call_banked_addr                far_ptr
     0000DA22  ___call_banked_ptr                 far_ptr
     0000DA24  ___call_banked_bank                far_ptr
     0000DA26  .int_0x48                          
     0000DA2E  ___current_metasprite              Metasprites
     0000DA30  ___current_base_tile               Metasprites
     0000DA31  ___current_base_prop               Metasprites

ASxxxx Linker V03.00/V05.40 + sdld,  page 47.
Hexadecimal  [32-Bits]

Area                                    Addr        Size        Decimal Bytes (Attributes)
--------------------------------        ----        ----        ------- ----- ------------
_INITIALIZED                        0000DA32    0000001A =          26. bytes (REL,CON)

      Value  Global                              Global Defined In Module
      -----  --------------------------------   ------------------------
     0000DA32  _fade_style                        fade_manager
     0000DA33  _game_time                         game_time
     0000DA34  _PRN_PKT_START                     gbprinter
     0000DA42  _hide_sprites                      interrupts
     0000DA43  _show_actors_on_overlay            interrupts
     0000DA44  _overlay_cut_scanline              interrupts
     0000DA45  __submap_tile_offset               
     0000DA46  _triggers_len                      trigger
     0000DA47  _exchange_state                    vm_sio
     0000DA48  _last_hit_trigger                  pointnclick
     0000DA49  _shooter_scroll_speed              shmup
     0000DA4A  ___render_shadow_OAM               Metasprites
     0000DA4B  __map_tile_offset                  SetTileMap

ASxxxx Linker V03.00/V05.40 + sdld,  page 48.
Hexadecimal  [32-Bits]

Area                                    Addr        Size        Decimal Bytes (Attributes)
--------------------------------        ----        ----        ------- ----- ------------
_HRAM12                             00000000    00000003 =           3. bytes (ABS,CON)

      Value  Global                              Global Defined In Module
      -----  --------------------------------   ------------------------
     0000FF90  __current_bank                     Runtime
     0000FF92  __shadow_OAM_base                  Runtime

ASxxxx Linker V03.00/V05.40 + sdld,  page 49.
Hexadecimal  [32-Bits]

Area                                    Addr        Size        Decimal Bytes (Attributes)
--------------------------------        ----        ----        ------- ----- ------------
_CODE_2                             00024000    00003FFF =       16383. bytes (REL,CON)

      Value  Global                              Global Defined In Module
      -----  --------------------------------   ------------------------
     00024000  ___func_ACTOR                      actor
     00024000  _actors_init                       actor
     0002403A  _emote_offsets                     actor
     00024049  _emote_metasprite                  actor
     00024055  _player_init                       actor
     0002406A  _deactivate_actor                  actor
     000241CB  _activate_actor                    actor
     0002430A  _activate_actors_in_row            actor
     00024401  _activate_actors_in_col            actor
     00024552  _actor_set_frames                  actor
     000245A8  _actor_set_frame_offset            actor
     000245E3  _actor_get_frame_offset            actor
     000245F5  _actor_set_anim_idle               actor
     00024623  _actor_set_anim_moving             actor
     00024654  _actor_set_dir                     actor
     000246B9  _actor_at_tile                     actor
     0002478D  _actor_in_front_of_player          actor
     00024841  _actor_overlapping_player          actor
     00024ADA  _actor_overlapping_bb              actor
     00024CF9  _actors_handle_player_collision    actor
     00024D85  _check_collision_in_direction      actor
     000255A3  ___func_VM_ACTOR                   vm_actor
     000255A3  _vm_actor_move_to                  vm_actor
     00025F3F  _vm_actor_move_cancel              vm_actor
     00025F75  _vm_actor_activate                 vm_actor
     00025FC6  _vm_actor_deactivate               vm_actor
     00026017  _vm_actor_begin_update             vm_actor
     0002609E  _vm_actor_terminate_update         vm_actor
     000260E5  _vm_actor_set_dir                  vm_actor
     0002612E  _vm_actor_set_anim                 vm_actor
     000261BC  _vm_actor_set_pos                  vm_actor
     00026236  _vm_actor_get_pos                  vm_actor
     000262A5  _vm_actor_get_dir                  vm_actor
     0002631F  _vm_actor_get_angle                vm_actor
     000263A0  _vm_actor_emote                    vm_actor
     00026464  _vm_actor_set_bounds               vm_actor
     000264C2  _vm_actor_set_spritesheet          vm_actor
     0002658C  _vm_actor_replace_tile             vm_actor
     000265F7  _vm_actor_set_anim_tick            vm_actor
     00026635  _vm_actor_set_move_speed           vm_actor
     00026673  _vm_actor_set_anim_frame           vm_actor
     000266B7  _vm_actor_get_anim_frame           vm_actor
     00026701  _vm_actor_set_anim_set             vm_actor
     00026789  _vm_actor_set_spritesheet_by_ref   vm_actor
     00026896  _vm_actor_set_flags                vm_actor
     00026944  ___func_VM_MAIN                    vm
     00026944  _vm_call                           vm
     00026986  _vm_ret                            vm
     000269E6  _vm_call_far                       vm
     00026A65  _vm_ret_far                        vm
ASxxxx Linker V03.00/V05.40 + sdld,  page 50.
Hexadecimal  [32-Bits]

Area                                    Addr        Size        Decimal Bytes (Attributes)
--------------------------------        ----        ----        ------- ----- ------------
_CODE_2                             00024000    00003FFF =       16383. bytes (REL,CON)

      Value  Global                              Global Defined In Module
      -----  --------------------------------   ------------------------
     00026ADD  _vm_push                           vm
     00026B08  _vm_pop                            vm
     00026B43  _vm_loop                           vm
     00026BCE  _vm_jump                           vm
     00026BDA  _wait_frames                       vm
     00026C50  _vm_invoke                         vm
     00026D7D  _vm_join                           vm
     00026DDF  _vm_terminate                      vm
     00026E0C  _vm_if                             vm
     00026F51  _vm_if_const                       vm
     00027066  _vm_push_value                     vm
     000270B8  _vm_push_value_ind                 vm
     0002712D  _vm_push_reference                 vm
     00027184  _vm_reserve                        vm
     000271B2  _vm_set                            vm
     00027213  _vm_set_const                      vm
     0002723F  _vm_get_tlocal                     vm
     000272CC  _vm_test_terminate                 vm
     000272D7  _vm_idle                           vm
     000272E3  _vm_get_uint8                      vm
     00027316  _vm_get_int8                       vm
     0002734A  _vm_get_int16                      vm
     0002738C  _vm_set_uint8                      vm
     000273B8  _vm_set_int8                       vm
     000273E4  _vm_set_int16                      vm
     00027423  _vm_set_const_int8                 vm
     0002742C  _vm_set_const_int16                vm
     00027438  _vm_init_rng                       vm
     00027464  _vm_rand                           vm
     000274E9  _vm_lock                           vm
     000274F8  _vm_unlock                         vm
     0002750B  _vm_raise                          vm
     0002754D  _vm_set_indirect                   vm
     000275C8  _vm_get_indirect                   vm
     00027643  _vm_poll_loaded                    vm
     00027673  _vm_memset                         vm
     000276AD  _vm_memcpy                         vm
     0002772A  _script_runner_init                vm
     000277E1  _script_execute                    vm
     00027947  _script_terminate                  vm
     000279AC  _script_detach_hthread             vm
     000279E8  _actor_4_update                    actor_4_update
     00027A36  ___func_scene_12_sprites           scene_12_sprites
     00027A36  _scene_12_sprites                  scene_12_sprites
     00027A3C  _script_2                          script_2

ASxxxx Linker V03.00/V05.40 + sdld,  page 51.
Hexadecimal  [32-Bits]

Area                                    Addr        Size        Decimal Bytes (Attributes)
--------------------------------        ----        ----        ------- ----- ------------
_CODE_9                             00094000    00002406 =        9222. bytes (REL,CON)

      Value  Global                              Global Defined In Module
      -----  --------------------------------   ------------------------
     00094000  _bootstrap_script                  
     0009400B  _camera_init                       camera
     00094029  _camera_reset                      camera
     00094039  _input_init                        input
     0009405F  _remove_LCD_ISRs                   interrupts
     0009407A  _palette_init                      palette
     00094088  _parallax_init                     parallax
     000940A8  _SIO_init                          sio
     000940D1  _actor_1_interact                  actor_1_interact
     000940F3  _actor_1_update                    actor_1_update
     00094118  _actor_10_interact                 actor_10_interact
     0009413A  _actor_10_update                   actor_10_update
     0009415F  _actor_15_update                   actor_15_update
     000941AB  _actor_19_interact                 actor_19_interact
     000941D4  _actor_2_interact                  actor_2_interact
     000941F6  _actor_2_update                    actor_2_update
     0009421B  _actor_20_interact                 actor_20_interact
     00094244  _actor_22_interact                 actor_22_interact
     0009426D  _actor_25_update                   actor_25_update
     000942A2  _actor_26_interact                 actor_26_interact
     000942D2  _actor_27_interact                 actor_27_interact
     000942FB  _actor_29_interact                 actor_29_interact
     00094324  _actor_3_interact                  actor_3_interact
     00094346  _actor_3_update                    actor_3_update
     0009436B  _actor_30_interact                 actor_30_interact
     00094394  _actor_40_interact                 actor_40_interact
     000943B1  _actor_41_interact                 actor_41_interact
     000943CE  _actor_42_interact                 actor_42_interact
     000943EB  _actor_47_interact                 actor_47_interact
     00094425  _actor_48_interact                 actor_48_interact
     00094454  _actor_49_interact                 actor_49_interact
     00094490  _actor_5_interact                  actor_5_interact
     000944B2  _actor_5_update                    actor_5_update
     000944D7  _actor_50_interact                 actor_50_interact
     000944FD  _actor_51_interact                 actor_51_interact
     00094523  _actor_53_interact                 actor_53_interact
     00094534  _actor_6_interact                  actor_6_interact
     00094556  _actor_6_update                    actor_6_update
     0009457B  _actor_7_interact                  actor_7_interact
     0009459D  _actor_7_update                    actor_7_update
     000945C2  _actor_8_interact                  actor_8_interact
     000945E4  _actor_8_update                    actor_8_update
     00094609  ___func_bg_beco                    bg_beco
     00094609  _bg_beco                           bg_beco
     00094617  ___func_bg_chief_entrance          bg_chief_entrance
     00094617  _bg_chief_entrance                 bg_chief_entrance
     00094625  ___func_bg_cutscene_ingame         bg_cutscene_ingame
     00094625  _bg_cutscene_ingame                bg_cutscene_ingame
     00094633  ___func_bg_diningroom              bg_diningroom
     00094633  _bg_diningroom                     bg_diningroom
ASxxxx Linker V03.00/V05.40 + sdld,  page 52.
Hexadecimal  [32-Bits]

Area                                    Addr        Size        Decimal Bytes (Attributes)
--------------------------------        ----        ----        ------- ----- ------------
_CODE_9                             00094000    00002406 =        9222. bytes (REL,CON)

      Value  Global                              Global Defined In Module
      -----  --------------------------------   ------------------------
     00094641  ___func_bg_docas                   bg_docas
     00094641  _bg_docas                          bg_docas
     0009464F  ___func_bg_grassfield_tileset      bg_grassfield_tileset
     0009464F  _bg_grassfield_tileset             bg_grassfield_tileset
     00094671  ___func_bg_grassfield              bg_grassfield
     00094671  _bg_grassfield                     bg_grassfield
     0009467F  ___func_bg_inventory_chief         bg_inventory_chief
     0009467F  _bg_inventory_chief                bg_inventory_chief
     0009468D  ___func_bg_inventory_samurai       bg_inventory_samurai
     0009468D  _bg_inventory_samurai              bg_inventory_samurai
     0009469B  ___func_bg_placeholder_tileset     bg_placeholder_tileset
     0009469B  _bg_placeholder_tileset            bg_placeholder_tileset
     000946DD  ___func_bg_placeholder             bg_placeholder
     000946DD  _bg_placeholder                    bg_placeholder
     000946EB  ___func_bg_skeleton_back           bg_skeleton_back
     000946EB  _bg_skeleton_back                  bg_skeleton_back
     000946F9  ___func_bg_title_screen            bg_title_screen
     000946F9  _bg_title_screen                   bg_title_screen
     00094707  ___func_bg_vila_1                  bg_vila_1
     00094707  _bg_vila_1                         bg_vila_1
     00094715  ___func_bg_vila_2                  bg_vila_2
     00094715  _bg_vila_2                         bg_vila_2
     00094723  ___func_cursor_image               cursor_image
     00094723  _cursor_image                      cursor_image
     00094733  ___func_emote_anger                emote_anger
     00094733  _emote_anger                       emote_anger
     00094773  ___func_emote_music                emote_music
     00094773  _emote_music                       emote_music
     000947B3  ___func_emote_pause                emote_pause
     000947B3  _emote_pause                       emote_pause
     000947F3  ___func_emote_question             emote_question
     000947F3  _emote_question                    emote_question
     00094833  ___func_emote_shock                emote_shock
     00094833  _emote_shock                       emote_shock
     00094873  ___func_emote_sweat                emote_sweat
     00094873  _emote_sweat                       emote_sweat
     000948B3  ___func_palette_1                  palette_1
     000948B3  _palette_1                         palette_1
     000948B6  _scene_0_init                      scene_0_init
     000948CC  ___func_scene_0                    scene_0
     000948CC  _scene_0                           scene_0
     00094907  _scene_1_init                      scene_1_init
     00094949  ___func_scene_1                    scene_1
     00094949  _scene_1                           scene_1
     00094984  ___func_scene_10_actors            scene_10_actors
     00094984  _scene_10_actors                   scene_10_actors
     000949B8  ___func_scene_10_sprites           scene_10_sprites
     000949B8  _scene_10_sprites                  scene_10_sprites
     000949BB  ___func_scene_10                   scene_10
     000949BB  _scene_10                          scene_10
     000949F6  ___func_scene_11                   scene_11
ASxxxx Linker V03.00/V05.40 + sdld,  page 53.
Hexadecimal  [32-Bits]

Area                                    Addr        Size        Decimal Bytes (Attributes)
--------------------------------        ----        ----        ------- ----- ------------
_CODE_9                             00094000    00002406 =        9222. bytes (REL,CON)

      Value  Global                              Global Defined In Module
      -----  --------------------------------   ------------------------
     000949F6  _scene_11                          scene_11
     00094A31  ___func_scene_12                   scene_12
     00094A31  _scene_12                          scene_12
     00094A6C  ___func_scene_13_actors            scene_13_actors
     00094A6C  _scene_13_actors                   scene_13_actors
     00094AA0  ___func_scene_13_sprites           scene_13_sprites
     00094AA0  _scene_13_sprites                  scene_13_sprites
     00094AA3  ___func_scene_13                   scene_13
     00094AA3  _scene_13                          scene_13
     00094ADE  _scene_14_p_hit1                   scene_14_p_hit1
     00094AFA  ___func_scene_14_projectiles       scene_14_projectiles
     00094AFA  _scene_14_projectiles              scene_14_projectiles
     00094B28  ___func_scene_14_sprites           scene_14_sprites
     00094B28  _scene_14_sprites                  scene_14_sprites
     00094B34  ___func_scene_14_triggers          scene_14_triggers
     00094B34  _scene_14_triggers                 scene_14_triggers
     00094B3C  ___func_scene_14                   scene_14
     00094B3C  _scene_14                          scene_14
     00094B77  ___func_scene_15                   scene_15
     00094B77  _scene_15                          scene_15
     00094BB2  ___func_scene_16_actors            scene_16_actors
     00094BB2  _scene_16_actors                   scene_16_actors
     00094BE6  ___func_scene_16_sprites           scene_16_sprites
     00094BE6  _scene_16_sprites                  scene_16_sprites
     00094BE9  ___func_scene_16_triggers          scene_16_triggers
     00094BE9  _scene_16_triggers                 scene_16_triggers
     00094BF9  ___func_scene_16                   scene_16
     00094BF9  _scene_16                          scene_16
     00094C34  ___func_scene_17_actors            scene_17_actors
     00094C34  _scene_17_actors                   scene_17_actors
     00094C68  ___func_scene_17_sprites           scene_17_sprites
     00094C68  _scene_17_sprites                  scene_17_sprites
     00094C6B  ___func_scene_17_triggers          scene_17_triggers
     00094C6B  _scene_17_triggers                 scene_17_triggers
     00094C83  ___func_scene_17                   scene_17
     00094C83  _scene_17                          scene_17
     00094CBE  ___func_scene_18_actors            scene_18_actors
     00094CBE  _scene_18_actors                   scene_18_actors
     00094CF2  _scene_18_init                     scene_18_init
     00094D10  ___func_scene_18_sprites           scene_18_sprites
     00094D10  _scene_18_sprites                  scene_18_sprites
     00094D13  ___func_scene_18_triggers          scene_18_triggers
     00094D13  _scene_18_triggers                 scene_18_triggers
     00094D1B  ___func_scene_18                   scene_18
     00094D1B  _scene_18                          scene_18
     00094D56  ___func_scene_19_sprites           scene_19_sprites
     00094D56  _scene_19_sprites                  scene_19_sprites
     00094D6B  ___func_scene_19_triggers          scene_19_triggers
     00094D6B  _scene_19_triggers                 scene_19_triggers
     00094D7B  ___func_scene_19                   scene_19
     00094D7B  _scene_19                          scene_19
ASxxxx Linker V03.00/V05.40 + sdld,  page 54.
Hexadecimal  [32-Bits]

Area                                    Addr        Size        Decimal Bytes (Attributes)
--------------------------------        ----        ----        ------- ----- ------------
_CODE_9                             00094000    00002406 =        9222. bytes (REL,CON)

      Value  Global                              Global Defined In Module
      -----  --------------------------------   ------------------------
     00094DB6  _scene_2_init                      scene_2_init
     00094DD4  ___func_scene_2                    scene_2
     00094DD4  _scene_2                           scene_2
     00094E0F  ___func_scene_20_sprites           scene_20_sprites
     00094E0F  _scene_20_sprites                  scene_20_sprites
     00094E1B  ___func_scene_20_triggers          scene_20_triggers
     00094E1B  _scene_20_triggers                 scene_20_triggers
     00094E23  ___func_scene_20                   scene_20
     00094E23  _scene_20                          scene_20
     00094E5E  ___func_scene_21_sprites           scene_21_sprites
     00094E5E  _scene_21_sprites                  scene_21_sprites
     00094E6A  ___func_scene_21_triggers          scene_21_triggers
     00094E6A  _scene_21_triggers                 scene_21_triggers
     00094E72  ___func_scene_21                   scene_21
     00094E72  _scene_21                          scene_21
     00094EAD  _scene_22_init                     scene_22_init
     00094EF5  ___func_scene_22_sprites           scene_22_sprites
     00094EF5  _scene_22_sprites                  scene_22_sprites
     00094EFB  ___func_scene_22_triggers          scene_22_triggers
     00094EFB  _scene_22_triggers                 scene_22_triggers
     00094F0B  ___func_scene_22                   scene_22
     00094F0B  _scene_22                          scene_22
     00094F46  ___func_scene_23                   scene_23
     00094F46  _scene_23                          scene_23
     00094F81  _scene_24_init                     scene_24_init
     00094FA9  ___func_scene_24_projectiles       scene_24_projectiles
     00094FA9  _scene_24_projectiles              scene_24_projectiles
     00094FC0  ___func_scene_24_triggers          scene_24_triggers
     00094FC0  _scene_24_triggers                 scene_24_triggers
     00094FD0  ___func_scene_24                   scene_24
     00094FD0  _scene_24                          scene_24
     0009500B  _scene_25_init                     scene_25_init
     00095033  ___func_scene_25_sprites           scene_25_sprites
     00095033  _scene_25_sprites                  scene_25_sprites
     00095039  ___func_scene_25_triggers          scene_25_triggers
     00095039  _scene_25_triggers                 scene_25_triggers
     00095041  ___func_scene_25                   scene_25
     00095041  _scene_25                          scene_25
     0009507C  ___func_scene_26                   scene_26
     0009507C  _scene_26                          scene_26
     000950B7  ___func_scene_27_sprites           scene_27_sprites
     000950B7  _scene_27_sprites                  scene_27_sprites
     000950BD  ___func_scene_27                   scene_27
     000950BD  _scene_27                          scene_27
     000950F8  _scene_29_init                     scene_29_init
     0009511F  ___func_scene_29_sprites           scene_29_sprites
     0009511F  _scene_29_sprites                  scene_29_sprites
     00095125  ___func_scene_29_triggers          scene_29_triggers
     00095125  _scene_29_triggers                 scene_29_triggers
     0009512D  ___func_scene_29                   scene_29
     0009512D  _scene_29                          scene_29
ASxxxx Linker V03.00/V05.40 + sdld,  page 55.
Hexadecimal  [32-Bits]

Area                                    Addr        Size        Decimal Bytes (Attributes)
--------------------------------        ----        ----        ------- ----- ------------
_CODE_9                             00094000    00002406 =        9222. bytes (REL,CON)

      Value  Global                              Global Defined In Module
      -----  --------------------------------   ------------------------
     00095168  _scene_3_init                      scene_3_init
     0009518E  ___func_scene_3                    scene_3
     0009518E  _scene_3                           scene_3
     000951C9  _scene_30_init                     scene_30_init
     00095211  ___func_scene_30                   scene_30
     00095211  _scene_30                          scene_30
     0009524C  _scene_4_init                      scene_4_init
     0009526A  ___func_scene_4                    scene_4
     0009526A  _scene_4                           scene_4
     000952A5  ___func_scene_5_actors             scene_5_actors
     000952A5  _scene_5_actors                    scene_5_actors
     000952D9  _scene_5_init                      scene_5_init
     000952FF  ___func_scene_5_sprites            scene_5_sprites
     000952FF  _scene_5_sprites                   scene_5_sprites
     00095302  ___func_scene_5                    scene_5
     00095302  _scene_5                           scene_5
     0009533D  _scene_6_p_hit1                    scene_6_p_hit1
     00095359  ___func_scene_6_projectiles        scene_6_projectiles
     00095359  _scene_6_projectiles               scene_6_projectiles
     00095387  ___func_scene_6_sprites            scene_6_sprites
     00095387  _scene_6_sprites                   scene_6_sprites
     00095393  ___func_scene_6_triggers           scene_6_triggers
     00095393  _scene_6_triggers                  scene_6_triggers
     0009539B  ___func_scene_6                    scene_6
     0009539B  _scene_6                           scene_6
     000953D6  _scene_7_init                      scene_7_init
     00095419  ___func_scene_7_sprites            scene_7_sprites
     00095419  _scene_7_sprites                   scene_7_sprites
     0009541F  ___func_scene_7                    scene_7
     0009541F  _scene_7                           scene_7
     0009545A  _scene_8_init                      scene_8_init
     00095470  ___func_scene_8                    scene_8
     00095470  _scene_8                           scene_8
     000954AB  _scene_9_init                      scene_9_init
     000954C1  ___func_scene_9                    scene_9
     000954C1  _scene_9                           scene_9
     000954FC  _script_1                          script_1
     00095515  _script_4                          script_4
     00095548  _script_engine_init                
     00095590  _script_input_0                    script_input_0
     000955C8  _script_input_1                    script_input_1
     00095600  _script_input_10                   script_input_10
     00095608  _script_input_11                   script_input_11
     00095640  _script_input_12                   script_input_12
     00095678  _script_input_13                   script_input_13
     000956B0  _script_input_14                   script_input_14
     000956E8  _script_input_15                   script_input_15
     00095720  _script_input_16                   script_input_16
     00095758  _script_input_17                   script_input_17
     00095790  _script_input_18                   script_input_18
     000957C8  _script_input_2                    script_input_2
ASxxxx Linker V03.00/V05.40 + sdld,  page 56.
Hexadecimal  [32-Bits]

Area                                    Addr        Size        Decimal Bytes (Attributes)
--------------------------------        ----        ----        ------- ----- ------------
_CODE_9                             00094000    00002406 =        9222. bytes (REL,CON)

      Value  Global                              Global Defined In Module
      -----  --------------------------------   ------------------------
     00095800  _script_input_3                    script_input_3
     0009582F  _script_input_4                    script_input_4
     0009585E  _script_input_5                    script_input_5
     000958A7  _script_input_6                    script_input_6
     000958DF  _script_input_7                    script_input_7
     00095917  _script_input_8                    script_input_8
     0009591F  _script_input_9                    script_input_9
     00095957  _script_timer_0                    script_timer_0
     00095987  _script_timer_1                    script_timer_1
     000959B7  ___func_sound_legacy_0             sound_legacy_0
     000959B7  _sound_legacy_0                    sound_legacy_0
     000959C6  ___func_sound_legacy_1             sound_legacy_1
     000959C6  _sound_legacy_1                    sound_legacy_1
     000959D4  ___func_sound_legacy_2             sound_legacy_2
     000959D4  _sound_legacy_2                    sound_legacy_2
     000959E3  ___func_sound_legacy_3             sound_legacy_3
     000959E3  _sound_legacy_3                    sound_legacy_3
     000959F3  ___func_sprite_arcabuz_tileset     sprite_arcabuz_tileset
     000959F3  _sprite_arcabuz_tileset            sprite_arcabuz_tileset
     00095A35  ___func_sprite_arcabuz             sprite_arcabuz
     00095A35  _sprite_arcabuz_metasprite_0       sprite_arcabuz
     00095A41  _sprite_arcabuz_metasprites        sprite_arcabuz
     00095A43  _sprite_arcabuz_animations         sprite_arcabuz
     00095A53  _sprite_arcabuz_animations_looku   sprite_arcabuz
     00095A55  _sprite_arcabuz                    sprite_arcabuz
     00095A68  ___func_sprite_caixa_2_tileset     sprite_caixa_2_tileset
     00095A68  _sprite_caixa_2_tileset            sprite_caixa_2_tileset
     00095AAA  ___func_sprite_caixa_2             sprite_caixa_2
     00095AAA  _sprite_caixa_2_metasprite_0       sprite_caixa_2
     00095AB6  _sprite_caixa_2_metasprites        sprite_caixa_2
     00095AB8  _sprite_caixa_2_animations         sprite_caixa_2
     00095AC8  _sprite_caixa_2_animations_looku   sprite_caixa_2
     00095ACA  _sprite_caixa_2                    sprite_caixa_2
     00095ADD  ___func_sprite_comerciant_1_vers   sprite_comerciant_1_vers_o__
     00095ADD  _sprite_comerciant_1_vers_o__til   sprite_comerciant_1_vers_o__
     00095B1F  ___func_sprite_comerciant_1_vers   sprite_comerciant_1_vers_o_
     00095B1F  _sprite_comerciant_1_vers_o__met   sprite_comerciant_1_vers_o_
     00095B2B  _sprite_comerciant_1_vers_o__met   sprite_comerciant_1_vers_o_
     00095B2D  _sprite_comerciant_1_vers_o__ani   sprite_comerciant_1_vers_o_
     00095B3D  _sprite_comerciant_1_vers_o__ani   sprite_comerciant_1_vers_o_
     00095B3F  _sprite_comerciant_1_vers_o_       sprite_comerciant_1_vers_o_
     00095B52  ___func_sprite_comerciant_2_vers   sprite_comerciant_2_vers_o__
     00095B52  _sprite_comerciant_2_vers_o__til   sprite_comerciant_2_vers_o__
     00095B94  ___func_sprite_comerciant_2_vers   sprite_comerciant_2_vers_o_
     00095B94  _sprite_comerciant_2_vers_o__met   sprite_comerciant_2_vers_o_
     00095BA0  _sprite_comerciant_2_vers_o__met   sprite_comerciant_2_vers_o_
     00095BA2  _sprite_comerciant_2_vers_o__ani   sprite_comerciant_2_vers_o_
     00095BB2  _sprite_comerciant_2_vers_o__ani   sprite_comerciant_2_vers_o_
     00095BB4  _sprite_comerciant_2_vers_o_       sprite_comerciant_2_vers_o_
     00095BC7  ___func_sprite_comerciant_vers_o   sprite_comerciant_vers_o_0_t
     00095BC7  _sprite_comerciant_vers_o_0_tile   sprite_comerciant_vers_o_0_t
ASxxxx Linker V03.00/V05.40 + sdld,  page 57.
Hexadecimal  [32-Bits]

Area                                    Addr        Size        Decimal Bytes (Attributes)
--------------------------------        ----        ----        ------- ----- ------------
_CODE_9                             00094000    00002406 =        9222. bytes (REL,CON)

      Value  Global                              Global Defined In Module
      -----  --------------------------------   ------------------------
     00095C09  ___func_sprite_comerciant_vers_o   sprite_comerciant_vers_o_0
     00095C09  _sprite_comerciant_vers_o_0_meta   sprite_comerciant_vers_o_0
     00095C15  _sprite_comerciant_vers_o_0_meta   sprite_comerciant_vers_o_0
     00095C17  _sprite_comerciant_vers_o_0_anim   sprite_comerciant_vers_o_0
     00095C27  _sprite_comerciant_vers_o_0_anim   sprite_comerciant_vers_o_0
     00095C29  _sprite_comerciant_vers_o_0        sprite_comerciant_vers_o_0
     00095C3C  ___func_sprite_comerciant_vers_o   sprite_comerciant_vers_o_1_t
     00095C3C  _sprite_comerciant_vers_o_1_tile   sprite_comerciant_vers_o_1_t
     00095C7E  ___func_sprite_comerciant_vers_o   sprite_comerciant_vers_o_1
     00095C7E  _sprite_comerciant_vers_o_1_meta   sprite_comerciant_vers_o_1
     00095C8A  _sprite_comerciant_vers_o_1_meta   sprite_comerciant_vers_o_1
     00095C8C  _sprite_comerciant_vers_o_1_anim   sprite_comerciant_vers_o_1
     00095C9C  _sprite_comerciant_vers_o_1_anim   sprite_comerciant_vers_o_1
     00095C9E  _sprite_comerciant_vers_o_1        sprite_comerciant_vers_o_1
     00095CB1  ___func_sprite_espada_europeia_t   sprite_espada_europeia_tiles
     00095CB1  _sprite_espada_europeia_tileset    sprite_espada_europeia_tiles
     00095CF3  ___func_sprite_espada_europeia     sprite_espada_europeia
     00095CF3  _sprite_espada_europeia_metaspri   sprite_espada_europeia
     00095CFF  _sprite_espada_europeia_metaspri   sprite_espada_europeia
     00095D01  _sprite_espada_europeia_animatio   sprite_espada_europeia
     00095D11  _sprite_espada_europeia_animatio   sprite_espada_europeia
     00095D13  _sprite_espada_europeia            sprite_espada_europeia
     00095D26  ___func_sprite_estatua_buda_tile   sprite_estatua_buda_tileset
     00095D26  _sprite_estatua_buda_tileset       sprite_estatua_buda_tileset
     00095D48  ___func_sprite_estatua_buda        sprite_estatua_buda
     00095D48  _sprite_estatua_buda_metasprite_   sprite_estatua_buda
     00095D54  _sprite_estatua_buda_metasprites   sprite_estatua_buda
     00095D56  _sprite_estatua_buda_animations    sprite_estatua_buda
     00095D66  _sprite_estatua_buda_animations_   sprite_estatua_buda
     00095D68  _sprite_estatua_buda               sprite_estatua_buda
     00095D7B  ___func_sprite_inventory_cursor_   sprite_inventory_cursor_tile
     00095D7B  _sprite_inventory_cursor_tileset   sprite_inventory_cursor_tile
     00095DBD  ___func_sprite_inventory_cursor    sprite_inventory_cursor
     00095DBD  _sprite_inventory_cursor_metaspr   sprite_inventory_cursor
     00095DC9  _sprite_inventory_cursor_metaspr   sprite_inventory_cursor
     00095DCB  _sprite_inventory_cursor_animati   sprite_inventory_cursor
     00095DDB  _sprite_inventory_cursor_animati   sprite_inventory_cursor
     00095DDD  _sprite_inventory_cursor           sprite_inventory_cursor
     00095DF0  ___func_sprite_jaula_tileset       sprite_jaula_tileset
     00095DF0  _sprite_jaula_tileset              sprite_jaula_tileset
     00095E12  ___func_sprite_jaula               sprite_jaula
     00095E12  _sprite_jaula_metasprite_0         sprite_jaula
     00095E1E  _sprite_jaula_metasprites          sprite_jaula
     00095E20  _sprite_jaula_animations           sprite_jaula
     00095E30  _sprite_jaula_animations_lookup    sprite_jaula
     00095E32  _sprite_jaula                      sprite_jaula
     00095E45  ___func_sprite_navio_portugues_i   sprite_navio_portugues_inve
     00095E45  _sprite_navio_portugues_inve_met   sprite_navio_portugues_inve
     00095E59  _sprite_navio_portugues_inve_met   sprite_navio_portugues_inve
     00095E5B  _sprite_navio_portugues_inve_ani   sprite_navio_portugues_inve
     00095E6B  _sprite_navio_portugues_inve_ani   sprite_navio_portugues_inve
ASxxxx Linker V03.00/V05.40 + sdld,  page 58.
Hexadecimal  [32-Bits]

Area                                    Addr        Size        Decimal Bytes (Attributes)
--------------------------------        ----        ----        ------- ----- ------------
_CODE_9                             00094000    00002406 =        9222. bytes (REL,CON)

      Value  Global                              Global Defined In Module
      -----  --------------------------------   ------------------------
     00095E6D  _sprite_navio_portugues_inve       sprite_navio_portugues_inve
     00095E80  ___func_sprite_navio_portugues     sprite_navio_portugues
     00095E80  _sprite_navio_portugues_metaspri   sprite_navio_portugues
     00095E94  _sprite_navio_portugues_metaspri   sprite_navio_portugues
     00095E96  _sprite_navio_portugues_animatio   sprite_navio_portugues
     00095EA6  _sprite_navio_portugues_animatio   sprite_navio_portugues
     00095EA8  _sprite_navio_portugues            sprite_navio_portugues
     00095EBB  ___func_sprite_skull_tileset       sprite_skull_tileset
     00095EBB  _sprite_skull_tileset              sprite_skull_tileset
     00095EFD  ___func_sprite_skull               sprite_skull
     00095EFD  _sprite_skull_metasprite_0         sprite_skull
     00095F09  _sprite_skull_metasprites          sprite_skull
     00095F0B  _sprite_skull_animations           sprite_skull
     00095F1B  _sprite_skull_animations_lookup    sprite_skull
     00095F1D  _sprite_skull                      sprite_skull
     00095F30  ___func_sprite_static_tileset      sprite_static_tileset
     00095F30  _sprite_static_tileset             sprite_static_tileset
     00095F72  ___func_sprite_static              sprite_static
     00095F72  _sprite_static_metasprite_0        sprite_static
     00095F7E  _sprite_static_metasprites         sprite_static
     00095F80  _sprite_static_animations          sprite_static
     00095F90  _sprite_static_animations_lookup   sprite_static
     00095F92  _sprite_static                     sprite_static
     00095FA5  ___func_sprite_tripulante1         sprite_tripulante1
     00095FA5  _sprite_tripulante1_metasprite_0   sprite_tripulante1
     00095FB1  _sprite_tripulante1_metasprite_1   sprite_tripulante1
     00095FBD  _sprite_tripulante1_metasprites    sprite_tripulante1
     00095FC1  _sprite_tripulante1_animations     sprite_tripulante1
     00095FD1  _sprite_tripulante1_animations_l   sprite_tripulante1
     00095FD3  _sprite_tripulante1                sprite_tripulante1
     00095FE6  ___func_sprite_tripulante2         sprite_tripulante2
     00095FE6  _sprite_tripulante2_metasprite_0   sprite_tripulante2
     00095FF2  _sprite_tripulante2_metasprite_1   sprite_tripulante2
     00095FFE  _sprite_tripulante2_metasprites    sprite_tripulante2
     00096002  _sprite_tripulante2_animations     sprite_tripulante2
     00096012  _sprite_tripulante2_animations_l   sprite_tripulante2
     00096014  _sprite_tripulante2                sprite_tripulante2
     00096027  ___func_sprite_yipper_tileset      sprite_yipper_tileset
     00096027  _sprite_yipper_tileset             sprite_yipper_tileset
     00096069  ___func_sprite_yipper              sprite_yipper
     00096069  _sprite_yipper_metasprite_0        sprite_yipper
     00096075  _sprite_yipper_metasprites         sprite_yipper
     00096077  _sprite_yipper_animations          sprite_yipper
     00096087  _sprite_yipper_animations_lookup   sprite_yipper
     00096089  _sprite_yipper                     sprite_yipper
     0009609C  _spritesheet_none_metasprite       spritesheet_none
     000960A0  _spritesheet_none_metasprites      spritesheet_none
     000960A2  _spritesheet_none                  spritesheet_none
     000960B5  _trigger_0_interact                trigger_0_interact
     000960DB  _trigger_1_interact                trigger_1_interact
     00096101  _trigger_15_interact               trigger_15_interact
ASxxxx Linker V03.00/V05.40 + sdld,  page 59.
Hexadecimal  [32-Bits]

Area                                    Addr        Size        Decimal Bytes (Attributes)
--------------------------------        ----        ----        ------- ----- ------------
_CODE_9                             00094000    00002406 =        9222. bytes (REL,CON)

      Value  Global                              Global Defined In Module
      -----  --------------------------------   ------------------------
     00096127  _trigger_16_interact               trigger_16_interact
     0009614D  _trigger_17_interact               trigger_17_interact
     00096173  _trigger_18_interact               trigger_18_interact
     00096199  _trigger_19_interact               trigger_19_interact
     000961BF  _trigger_20_interact               trigger_20_interact
     000961E5  _trigger_21_interact               trigger_21_interact
     0009620B  _trigger_22_interact               trigger_22_interact
     00096231  _trigger_23_interact               trigger_23_interact
     00096263  _trigger_24_interact               trigger_24_interact
     00096295  _trigger_25_interact               trigger_25_interact
     000962DF  _trigger_26_interact               trigger_26_interact
     00096305  _trigger_28_interact               trigger_28_interact
     0009632B  _trigger_3_interact                trigger_3_interact
     00096351  _trigger_41_interact               trigger_41_interact
     00096377  _trigger_42_interact               trigger_42_interact
     0009639D  _trigger_43_interact               trigger_43_interact
     000963C3  _trigger_44_interact               trigger_44_interact
     000963F5  _logo_init                         logo
     00096405  _logo_update                       logo
ASxxxx Linker V03.00/V05.40 + sdld,  page 60.
Hexadecimal  [32-Bits]

Area                                    Addr        Size        Decimal Bytes (Attributes)
--------------------------------        ----        ----        ------- ----- ------------
_CODE_5                             00054000    00003FFF =       16383. bytes (REL,CON)

      Value  Global                              Global Defined In Module
      -----  --------------------------------   ------------------------
     00054000  _core_reset                        core
     00054075  _process_VM                        core
     000542F7  _core_run                          core
     000543CA  ___HandleCrash_banked              
     00054732  _printer_send_receive              gbprinter
     00054768  _printer_send_byte                 gbprinter
     0005477B  _printer_send_command              gbprinter
     0005479E  _printer_print_tile                gbprinter
     0005482F  _printer_wait                      gbprinter
     00054861  _gbprinter_detect                  gbprinter
     0005487B  _gbprinter_print_overlay           gbprinter
     00054A40  _data_init                         load_save
     00054A8B  _save_points                       load_save
     00054AEB  _data_slot_address                 load_save
     00054B63  _data_save                         load_save
     00054C24  _data_load                         load_save
     00054D38  _data_clear                        load_save
     00054D65  _data_peek                         load_save
     00054E06  _trigger_reset                     trigger
     00054E16  _trigger_interact                  trigger
     00054E55  _trigger_activate_at               trigger
     00054EA0  _trigger_at_intersection           trigger
     00054FC7  _trigger_activate_at_intersectio   trigger
     00055108  _trigger_at_tile                   trigger
     00055199  ___func_VM_GAMEBOY                 vm_gameboy
     00055199  _vm_set_sprites_visible            vm_gameboy
     000551B0  _vm_input_wait                     vm_gameboy
     000551D9  _vm_context_prepare                vm_gameboy
     00055204  _vm_input_attach                   vm_gameboy
     0005521A  _vm_input_detach                   vm_gameboy
     0005522E  _vm_input_get                      vm_gameboy
     00055262  _vm_fade                           vm_gameboy
     00055292  _vm_timer_prepare                  vm_gameboy
     000552BD  _vm_timer_set                      vm_gameboy
     000552D8  _vm_timer_stop                     vm_gameboy
     000552EC  _vm_timer_reset                    vm_gameboy
     00055303  _vm_get_tile_xy                    vm_gameboy
     000553A3  _vm_replace_tile                   vm_gameboy
     00055434  _vm_poll                           vm_gameboy
     00055506  _vm_set_sprite_mode                vm_gameboy
     0005551A  _vm_replace_tile_xy                vm_gameboy
     00055682  _vm_rumble                         vm_gameboy
     000556A2  _vm_load_tiles                     vm_gameboy
     000556B7  _vm_load_tileset                   vm_gameboy
     00055724  ___func_VM_UI                      vm_ui
     00055724  _vm_display_text                   vm_ui
     00055757  _vm_switch_text_layer              vm_ui
     00055771  _vm_overlay_setpos                 vm_ui
     0005578B  _vm_overlay_wait                   vm_ui
     0005581B  _vm_overlay_move_to                vm_ui
ASxxxx Linker V03.00/V05.40 + sdld,  page 61.
Hexadecimal  [32-Bits]

Area                                    Addr        Size        Decimal Bytes (Attributes)
--------------------------------        ----        ----        ------- ----- ------------
_CODE_5                             00054000    00003FFF =       16383. bytes (REL,CON)

      Value  Global                              Global Defined In Module
      -----  --------------------------------   ------------------------
     0005585F  _vm_overlay_set_scroll             vm_ui
     00055898  _vm_overlay_clear                  vm_ui
     00055938  _vm_overlay_show                   vm_ui
     00055986  _vm_choice                         vm_ui
     00055AA1  _vm_set_font                       vm_ui
     00055AD0  _vm_overlay_scroll                 vm_ui
     00055B07  _vm_overlay_set_submap             vm_ui
     00055B40  _vm_overlay_set_submap_ex          vm_ui
     00055BBC  _vm_overlay_set_map                vm_ui
     00055CA6  _vm_set_text_sound                 vm_ui
     00055CBF  ___func_bg_chief_entrance_tilese   bg_chief_entrance_tileset
     00055CBF  _bg_chief_entrance_tileset         bg_chief_entrance_tileset
     00056261  ___func_bg_diningroom_tileset      bg_diningroom_tileset
     00056261  _bg_diningroom_tileset             bg_diningroom_tileset
     000566F3  ___func_bg_docas_tileset           bg_docas_tileset
     000566F3  _bg_docas_tileset                  bg_docas_tileset
     00056C65  ___func_bg_vila_1_tileset          bg_vila_1_tileset
     00056C65  _bg_vila_1_tileset                 bg_vila_1_tileset
     00057307  ___func_bg_vila_2_tilemap          bg_vila_2_tilemap
     00057307  _bg_vila_2_tilemap                 bg_vila_2_tilemap
     00057687  ___func_scene_12_collisions        scene_12_collisions
     00057687  _scene_12_collisions               scene_12_collisions
     000578C7  _scene_15_init                     scene_15_init
     0005790B  ___func_scene_16_collisions        scene_16_collisions
     0005790B  _scene_16_collisions               scene_16_collisions
     00057C8B  _pointnclick_init                  pointnclick
     00057CC4  _pointnclick_update                pointnclick

ASxxxx Linker V03.00/V05.40 + sdld,  page 62.
Hexadecimal  [32-Bits]

Area                                    Addr        Size        Decimal Bytes (Attributes)
--------------------------------        ----        ----        ------- ----- ------------
_CRASH_HEADER0                      00000000    00000005 =           5. bytes (ABS,CON)

      Value  Global                              Global Defined In Module
      -----  --------------------------------   ------------------------
ASxxxx Linker V03.00/V05.40 + sdld,  page 63.
Hexadecimal  [32-Bits]

Area                                    Addr        Size        Decimal Bytes (Attributes)
--------------------------------        ----        ----        ------- ----- ------------
_CRASH_HEADER1                      00000000    00000004 =           4. bytes (ABS,CON)

      Value  Global                              Global Defined In Module
      -----  --------------------------------   ------------------------
ASxxxx Linker V03.00/V05.40 + sdld,  page 64.
Hexadecimal  [32-Bits]

Area                                    Addr        Size        Decimal Bytes (Attributes)
--------------------------------        ----        ----        ------- ----- ------------
_CRASH_SCRATCH2                     00000000    000001CB =         459. bytes (ABS,CON)

      Value  Global                              Global Defined In Module
      -----  --------------------------------   ------------------------
ASxxxx Linker V03.00/V05.40 + sdld,  page 65.
Hexadecimal  [32-Bits]

Area                                    Addr        Size        Decimal Bytes (Attributes)
--------------------------------        ----        ----        ------- ----- ------------
_CODE_4                             00044000    00004000 =       16384. bytes (REL,CON)

      Value  Global                              Global Defined In Module
      -----  --------------------------------   ------------------------
     00044000  _load_init                         data_manager
     00044013  _spritesheet_none_far              data_manager
     00044016  _load_bkg_tileset                  data_manager
     000440F3  _load_background                   data_manager
     00044191  _load_sprite                       data_manager
     000441E4  _load_bounds                       data_manager
     00044201  _do_load_palette                   data_manager
     00044286  _load_scene                        data_manager
     000448EB  _load_player                       data_manager
     00044934  _load_emote                        data_manager
     0004494D  _projectiles_init                  projectiles
     0004497C  _projectile_launch                 projectiles
     00044D93  _scroll_init                       scroll
     00044DBD  _scroll_reset                      scroll
     00044DDD  _scroll_update                     scroll
     00044EEE  _scroll_viewport                   scroll
     00045387  _scroll_repaint                    scroll
     00045397  _scroll_render_rows                scroll
     0004542D  _scroll_queue_row                  scroll
     0004544F  _scroll_queue_col                  scroll
     0004549A  ___func_bg_inventory_chief_tiles   bg_inventory_chief_tileset
     0004549A  _bg_inventory_chief_tileset        bg_inventory_chief_tileset
     00045FBC  ___func_bg_inventory_samurai_til   bg_inventory_samurai_tileset
     00045FBC  _bg_inventory_samurai_tileset      bg_inventory_samurai_tileset
     00046A0E  ___func_bg_vila_2_tileset          bg_vila_2_tileset
     00046A0E  _bg_vila_2_tileset                 bg_vila_2_tileset
     00047270  ___func_palette_0                  palette_0
     00047270  _palette_0                         palette_0
     00047273  _adventure_init                    adventure
     00047288  _adventure_update                  adventure
     0004793F  _topdown_init                      topdown
     000479D6  _topdown_update                    topdown

ASxxxx Linker V03.00/V05.40 + sdld,  page 66.
Hexadecimal  [32-Bits]

Area                                    Addr        Size        Decimal Bytes (Attributes)
--------------------------------        ----        ----        ------- ----- ------------
_CODE_8                             00084000    00004000 =       16384. bytes (REL,CON)

      Value  Global                              Global Defined In Module
      -----  --------------------------------   ------------------------
     00084000  _events_init                       events
     00084040  _timers_init                       events
     000840E8  _save_sram_banks                   
     00084170  _erase_flash                       
     00084186  _restore_sram_bank                 flasher
     000841BC  _restore_sram                      flasher
     000841D2  _save_sram                         flasher
     000841FE  _music_init_driver                 music_manager
     0008425A  _music_init_events                 music_manager
     00084296  _music_events_poll                 music_manager
     000842BE  _music_pause                       music_manager
     000842E0  ___func_VM_GBPRINTER               vm_gbprinter
     000842E0  _vm_print_detect                   vm_gbprinter
     0008432F  _vm_print_overlay                  vm_gbprinter
     00084384  ___func_VM_LOAD_SAVE               vm_load_save
     00084384  _vm_save_clear                     vm_load_save
     00084393  _vm_save_peek                      vm_load_save
     00084415  ___func_VM_PROJECTILE              vm_projectiles
     00084415  _vm_projectile_launch              vm_projectiles
     00084456  _vm_projectile_load_type           vm_projectiles
     000844E8  ___func_VM_RTC                     vm_rtc
     000844E8  _vm_rtc_latch                      vm_rtc
     000844F0  _vm_rtc_get                        vm_rtc
     00084557  _vm_rtc_set                        vm_rtc
     000845B5  _vm_rtc_start                      vm_rtc
     000845D8  ___func_VM_SCENE                   vm_scene
     000845D8  _vm_scene_push                     vm_scene
     0008464E  _vm_scene_pop                      vm_scene
     0008465C  _vm_scene_pop_all                  vm_scene
     00084667  _vm_scene_stack_reset              vm_scene
     00084670  _itoa_fmt                          vm_ui_a
     000846A9  .utoa_fmt                          vm_ui_a
     00084753  _actor_13_update                   actor_13_update
     000847C0  _actor_14_update                   actor_14_update
     00084847  _actor_18_update                   actor_18_update
     000848BA  _actor_19_update                   actor_19_update
     000849A5  _actor_20_update                   actor_20_update
     00084AC3  _actor_21_update                   actor_21_update
     00084B2F  _actor_22_update                   actor_22_update
     00084C25  _actor_23_update                   actor_23_update
     00084C91  _actor_27_update                   actor_27_update
     00084D87  _actor_29_update                   actor_29_update
     00084E72  _actor_30_update                   actor_30_update
     00084F5A  _actor_37_interact                 actor_37_interact
     00084FBE  _actor_37_update                   actor_37_update
     0008502A  _actor_38_update                   actor_38_update
     00085081  _actor_39_update                   actor_39_update
     000851A0  _actor_43_update                   actor_43_update
     0008520E  _actor_45_update                   actor_45_update
     00085281  _actor_52_interact                 actor_52_interact
ASxxxx Linker V03.00/V05.40 + sdld,  page 67.
Hexadecimal  [32-Bits]

Area                                    Addr        Size        Decimal Bytes (Attributes)
--------------------------------        ----        ----        ------- ----- ------------
_CODE_8                             00084000    00004000 =       16384. bytes (REL,CON)

      Value  Global                              Global Defined In Module
      -----  --------------------------------   ------------------------
     00085333  _actor_9_update                    actor_9_update
     00085381  ___func_frame_image                frame_image
     00085381  _frame_image                       frame_image
     00085411  _scene_11_init                     scene_11_init
     0008546D  ___func_scene_12_actors            scene_12_actors
     0008546D  _scene_12_actors                   scene_12_actors
     0008553D  ___func_scene_14_actors            scene_14_actors
     0008553D  _scene_14_actors                   scene_14_actors
     00085641  _scene_14_init                     scene_14_init
     0008568F  _scene_16_init                     scene_16_init
     00085771  _scene_17_init                     scene_17_init
     00085853  _scene_19_init                     scene_19_init
     00085921  ___func_scene_20_actors            scene_20_actors
     00085921  _scene_20_actors                   scene_20_actors
     000859F1  _scene_20_init                     scene_20_init
     00085A63  ___func_scene_21_actors            scene_21_actors
     00085A63  _scene_21_actors                   scene_21_actors
     00085B33  _scene_21_init                     scene_21_init
     00085BA5  ___func_scene_22_actors            scene_22_actors
     00085BA5  _scene_22_actors                   scene_22_actors
     00085CA9  _scene_23_init                     scene_23_init
     00085D0F  ___func_scene_24_actors            scene_24_actors
     00085D0F  _scene_24_actors                   scene_24_actors
     00085E13  _scene_24_p_hit1                   scene_24_p_hit1
     00085E6E  ___func_scene_25_actors            scene_25_actors
     00085E6E  _scene_25_actors                   scene_25_actors
     00085ED6  _scene_26_init                     scene_26_init
     00085F99  ___func_scene_27_actors            scene_27_actors
     00085F99  _scene_27_actors                   scene_27_actors
     00086001  _scene_27_init                     scene_27_init
     00086044  ___func_scene_27_triggers          scene_27_triggers
     00086044  _scene_27_triggers                 scene_27_triggers
     000860B4  ___func_scene_29_actors            scene_29_actors
     000860B4  _scene_29_actors                   scene_29_actors
     0008611C  ___func_scene_6_actors             scene_6_actors
     0008611C  _scene_6_actors                    scene_6_actors
     00086220  _scene_6_init                      scene_6_init
     0008626E  ___func_scene_7_actors             scene_7_actors
     0008626E  _scene_7_actors                    scene_7_actors
     000862D6  ___func_scene_7_triggers           scene_7_triggers
     000862D6  _scene_7_triggers                  scene_7_triggers
     0008633E  _script_3                          script_3
     0008645C  _script_6                          script_6
     00086574  ___func_sprite_actor_animated      sprite_actor_animated
     00086574  _sprite_actor_animated_metasprit   sprite_actor_animated
     00086580  _sprite_actor_animated_metasprit   sprite_actor_animated
     0008658C  _sprite_actor_animated_metasprit   sprite_actor_animated
     00086598  _sprite_actor_animated_metasprit   sprite_actor_animated
     000865A4  _sprite_actor_animated_metasprit   sprite_actor_animated
     000865B0  _sprite_actor_animated_metasprit   sprite_actor_animated
     000865BC  _sprite_actor_animated_metasprit   sprite_actor_animated
ASxxxx Linker V03.00/V05.40 + sdld,  page 68.
Hexadecimal  [32-Bits]

Area                                    Addr        Size        Decimal Bytes (Attributes)
--------------------------------        ----        ----        ------- ----- ------------
_CODE_8                             00084000    00004000 =       16384. bytes (REL,CON)

      Value  Global                              Global Defined In Module
      -----  --------------------------------   ------------------------
     000865C8  _sprite_actor_animated_metasprit   sprite_actor_animated
     000865D4  _sprite_actor_animated_metasprit   sprite_actor_animated
     000865EC  _sprite_actor_animated_animation   sprite_actor_animated
     000865FC  _sprite_actor_animated_animation   sprite_actor_animated
     000865FE  _sprite_actor_animated             sprite_actor_animated
     00086611  ___func_sprite_actor_tileset       sprite_actor_tileset
     00086611  _sprite_actor_tileset              sprite_actor_tileset
     000866B3  ___func_sprite_actor               sprite_actor
     000866B3  _sprite_actor_metasprite_0         sprite_actor
     000866BF  _sprite_actor_metasprite_1         sprite_actor
     000866CB  _sprite_actor_metasprite_2         sprite_actor
     000866D7  _sprite_actor_metasprite_3         sprite_actor
     000866E3  _sprite_actor_metasprites          sprite_actor
     000866EB  _sprite_actor_animations           sprite_actor
     000866FB  _sprite_actor_animations_lookup    sprite_actor
     000866FD  _sprite_actor                      sprite_actor
     00086710  ___func_sprite_boat_life_bar       sprite_boat_life_bar
     00086710  _sprite_boat_life_bar_metasprite   sprite_boat_life_bar
     00086724  _sprite_boat_life_bar_metasprite   sprite_boat_life_bar
     00086738  _sprite_boat_life_bar_metasprite   sprite_boat_life_bar
     0008674C  _sprite_boat_life_bar_metasprite   sprite_boat_life_bar
     00086760  _sprite_boat_life_bar_metasprite   sprite_boat_life_bar
     00086768  _sprite_boat_life_bar_animations   sprite_boat_life_bar
     00086778  _sprite_boat_life_bar_animations   sprite_boat_life_bar
     0008677A  _sprite_boat_life_bar              sprite_boat_life_bar
     0008678D  ___func_sprite_boat_life_reverse   sprite_boat_life_reverse
     0008678D  _sprite_boat_life_reverse_metasp   sprite_boat_life_reverse
     000867A1  _sprite_boat_life_reverse_metasp   sprite_boat_life_reverse
     000867B5  _sprite_boat_life_reverse_metasp   sprite_boat_life_reverse
     000867C9  _sprite_boat_life_reverse_metasp   sprite_boat_life_reverse
     000867DD  _sprite_boat_life_reverse_metasp   sprite_boat_life_reverse
     000867E5  _sprite_boat_life_reverse_animat   sprite_boat_life_reverse
     000867F5  _sprite_boat_life_reverse_animat   sprite_boat_life_reverse
     000867F7  _sprite_boat_life_reverse          sprite_boat_life_reverse
     0008680A  ___func_sprite_chefe_vila          sprite_chefe_vila
     0008680A  _sprite_chefe_vila_metasprite_0    sprite_chefe_vila
     00086816  _sprite_chefe_vila_metasprite_1    sprite_chefe_vila
     00086822  _sprite_chefe_vila_metasprite_2    sprite_chefe_vila
     0008682E  _sprite_chefe_vila_metasprite_3    sprite_chefe_vila
     0008683A  _sprite_chefe_vila_metasprite_4    sprite_chefe_vila
     00086846  _sprite_chefe_vila_metasprite_5    sprite_chefe_vila
     00086852  _sprite_chefe_vila_metasprite_6    sprite_chefe_vila
     0008685E  _sprite_chefe_vila_metasprite_7    sprite_chefe_vila
     0008686A  _sprite_chefe_vila_metasprite_8    sprite_chefe_vila
     00086876  _sprite_chefe_vila_metasprite_9    sprite_chefe_vila
     00086882  _sprite_chefe_vila_metasprite_10   sprite_chefe_vila
     0008688E  _sprite_chefe_vila_metasprite_11   sprite_chefe_vila
     0008689A  _sprite_chefe_vila_metasprite_12   sprite_chefe_vila
     000868A6  _sprite_chefe_vila_metasprite_13   sprite_chefe_vila
     000868B2  _sprite_chefe_vila_metasprite_14   sprite_chefe_vila
     000868BE  _sprite_chefe_vila_metasprite_15   sprite_chefe_vila
ASxxxx Linker V03.00/V05.40 + sdld,  page 69.
Hexadecimal  [32-Bits]

Area                                    Addr        Size        Decimal Bytes (Attributes)
--------------------------------        ----        ----        ------- ----- ------------
_CODE_8                             00084000    00004000 =       16384. bytes (REL,CON)

      Value  Global                              Global Defined In Module
      -----  --------------------------------   ------------------------
     000868CA  _sprite_chefe_vila_metasprites     sprite_chefe_vila
     000868EA  _sprite_chefe_vila_animations      sprite_chefe_vila
     000868FA  _sprite_chefe_vila_animations_lo   sprite_chefe_vila
     000868FC  _sprite_chefe_vila                 sprite_chefe_vila
     0008690F  ___func_sprite_cristao_tileset     sprite_cristao_tileset
     0008690F  _sprite_cristao_tileset            sprite_cristao_tileset
     00086A11  ___func_sprite_cristao             sprite_cristao
     00086A11  _sprite_cristao_metasprite_0       sprite_cristao
     00086A1D  _sprite_cristao_metasprite_1       sprite_cristao
     00086A29  _sprite_cristao_metasprite_2       sprite_cristao
     00086A35  _sprite_cristao_metasprite_3       sprite_cristao
     00086A41  _sprite_cristao_metasprite_4       sprite_cristao
     00086A4D  _sprite_cristao_metasprite_5       sprite_cristao
     00086A59  _sprite_cristao_metasprites        sprite_cristao
     00086A65  _sprite_cristao_animations         sprite_cristao
     00086A75  _sprite_cristao_animations_looku   sprite_cristao
     00086A77  _sprite_cristao                    sprite_cristao
     00086A8A  ___func_sprite_navio_portugues_t   sprite_navio_portugues_tiles
     00086A8A  _sprite_navio_portugues_tileset    sprite_navio_portugues_tiles
     00086B0C  ___func_sprite_ninja               sprite_ninja
     00086B0C  _sprite_ninja_metasprite_0         sprite_ninja
     00086B18  _sprite_ninja_metasprite_1         sprite_ninja
     00086B24  _sprite_ninja_metasprite_2         sprite_ninja
     00086B30  _sprite_ninja_metasprite_3         sprite_ninja
     00086B3C  _sprite_ninja_metasprite_4         sprite_ninja
     00086B48  _sprite_ninja_metasprite_5         sprite_ninja
     00086B54  _sprite_ninja_metasprite_6         sprite_ninja
     00086B60  _sprite_ninja_metasprite_7         sprite_ninja
     00086B6C  _sprite_ninja_metasprite_8         sprite_ninja
     00086B78  _sprite_ninja_metasprite_9         sprite_ninja
     00086B84  _sprite_ninja_metasprite_10        sprite_ninja
     00086B90  _sprite_ninja_metasprite_11        sprite_ninja
     00086B9C  _sprite_ninja_metasprite_12        sprite_ninja
     00086BA8  _sprite_ninja_metasprite_13        sprite_ninja
     00086BB4  _sprite_ninja_metasprite_14        sprite_ninja
     00086BC0  _sprite_ninja_metasprite_15        sprite_ninja
     00086BCC  _sprite_ninja_metasprites          sprite_ninja
     00086BEC  _sprite_ninja_animations           sprite_ninja
     00086BFC  _sprite_ninja_animations_lookup    sprite_ninja
     00086BFE  _sprite_ninja                      sprite_ninja
     00086C11  ___func_sprite_pirata1             sprite_pirata1
     00086C11  _sprite_pirata1_metasprite_0       sprite_pirata1
     00086C1D  _sprite_pirata1_metasprite_1       sprite_pirata1
     00086C29  _sprite_pirata1_metasprite_2       sprite_pirata1
     00086C35  _sprite_pirata1_metasprite_3       sprite_pirata1
     00086C41  _sprite_pirata1_metasprite_4       sprite_pirata1
     00086C4D  _sprite_pirata1_metasprite_5       sprite_pirata1
     00086C59  _sprite_pirata1_metasprite_6       sprite_pirata1
     00086C65  _sprite_pirata1_metasprite_7       sprite_pirata1
     00086C71  _sprite_pirata1_metasprite_8       sprite_pirata1
     00086C7D  _sprite_pirata1_metasprite_9       sprite_pirata1
ASxxxx Linker V03.00/V05.40 + sdld,  page 70.
Hexadecimal  [32-Bits]

Area                                    Addr        Size        Decimal Bytes (Attributes)
--------------------------------        ----        ----        ------- ----- ------------
_CODE_8                             00084000    00004000 =       16384. bytes (REL,CON)

      Value  Global                              Global Defined In Module
      -----  --------------------------------   ------------------------
     00086C89  _sprite_pirata1_metasprite_10      sprite_pirata1
     00086C95  _sprite_pirata1_metasprite_11      sprite_pirata1
     00086CA1  _sprite_pirata1_metasprite_12      sprite_pirata1
     00086CAD  _sprite_pirata1_metasprite_13      sprite_pirata1
     00086CB9  _sprite_pirata1_metasprite_14      sprite_pirata1
     00086CC5  _sprite_pirata1_metasprite_15      sprite_pirata1
     00086CD1  _sprite_pirata1_metasprites        sprite_pirata1
     00086CF1  _sprite_pirata1_animations         sprite_pirata1
     00086D01  _sprite_pirata1_animations_looku   sprite_pirata1
     00086D03  _sprite_pirata1                    sprite_pirata1
     00086D16  ___func_sprite_pirata2             sprite_pirata2
     00086D16  _sprite_pirata2_metasprite_0       sprite_pirata2
     00086D22  _sprite_pirata2_metasprite_1       sprite_pirata2
     00086D2E  _sprite_pirata2_metasprite_2       sprite_pirata2
     00086D3A  _sprite_pirata2_metasprite_3       sprite_pirata2
     00086D46  _sprite_pirata2_metasprite_4       sprite_pirata2
     00086D52  _sprite_pirata2_metasprite_5       sprite_pirata2
     00086D5E  _sprite_pirata2_metasprite_6       sprite_pirata2
     00086D6A  _sprite_pirata2_metasprite_7       sprite_pirata2
     00086D76  _sprite_pirata2_metasprite_8       sprite_pirata2
     00086D82  _sprite_pirata2_metasprite_9       sprite_pirata2
     00086D8E  _sprite_pirata2_metasprite_10      sprite_pirata2
     00086D9A  _sprite_pirata2_metasprite_11      sprite_pirata2
     00086DA6  _sprite_pirata2_metasprite_12      sprite_pirata2
     00086DB2  _sprite_pirata2_metasprite_13      sprite_pirata2
     00086DBE  _sprite_pirata2_metasprite_14      sprite_pirata2
     00086DCA  _sprite_pirata2_metasprite_15      sprite_pirata2
     00086DD6  _sprite_pirata2_metasprites        sprite_pirata2
     00086DF6  _sprite_pirata2_animations         sprite_pirata2
     00086E06  _sprite_pirata2_animations_looku   sprite_pirata2
     00086E08  _sprite_pirata2                    sprite_pirata2
     00086E1B  ___func_sprite_samurai             sprite_samurai
     00086E1B  _sprite_samurai_metasprite_0       sprite_samurai
     00086E27  _sprite_samurai_metasprite_1       sprite_samurai
     00086E33  _sprite_samurai_metasprite_2       sprite_samurai
     00086E3F  _sprite_samurai_metasprite_3       sprite_samurai
     00086E4B  _sprite_samurai_metasprite_4       sprite_samurai
     00086E57  _sprite_samurai_metasprite_5       sprite_samurai
     00086E63  _sprite_samurai_metasprite_6       sprite_samurai
     00086E6F  _sprite_samurai_metasprite_7       sprite_samurai
     00086E7B  _sprite_samurai_metasprite_8       sprite_samurai
     00086E87  _sprite_samurai_metasprite_9       sprite_samurai
     00086E93  _sprite_samurai_metasprite_10      sprite_samurai
     00086E9F  _sprite_samurai_metasprite_11      sprite_samurai
     00086EAB  _sprite_samurai_metasprite_12      sprite_samurai
     00086EB7  _sprite_samurai_metasprite_13      sprite_samurai
     00086EC3  _sprite_samurai_metasprite_14      sprite_samurai
     00086ECF  _sprite_samurai_metasprite_15      sprite_samurai
     00086EDB  _sprite_samurai_metasprites        sprite_samurai
     00086EFB  _sprite_samurai_animations         sprite_samurai
     00086F0B  _sprite_samurai_animations_looku   sprite_samurai
ASxxxx Linker V03.00/V05.40 + sdld,  page 71.
Hexadecimal  [32-Bits]

Area                                    Addr        Size        Decimal Bytes (Attributes)
--------------------------------        ----        ----        ------- ----- ------------
_CODE_8                             00084000    00004000 =       16384. bytes (REL,CON)

      Value  Global                              Global Defined In Module
      -----  --------------------------------   ------------------------
     00086F0D  _sprite_samurai                    sprite_samurai
     00086F20  ___func_sprite_slash_placeholder   sprite_slash_placeholder
     00086F20  _sprite_slash_placeholder_metasp   sprite_slash_placeholder
     00086F2C  _sprite_slash_placeholder_metasp   sprite_slash_placeholder
     00086F38  _sprite_slash_placeholder_metasp   sprite_slash_placeholder
     00086F44  _sprite_slash_placeholder_metasp   sprite_slash_placeholder
     00086F50  _sprite_slash_placeholder_metasp   sprite_slash_placeholder
     00086F5C  _sprite_slash_placeholder_metasp   sprite_slash_placeholder
     00086F68  _sprite_slash_placeholder_metasp   sprite_slash_placeholder
     00086F74  _sprite_slash_placeholder_metasp   sprite_slash_placeholder
     00086F80  _sprite_slash_placeholder_metasp   sprite_slash_placeholder
     00086F90  _sprite_slash_placeholder_animat   sprite_slash_placeholder
     00086FA0  _sprite_slash_placeholder_animat   sprite_slash_placeholder
     00086FA2  _sprite_slash_placeholder          sprite_slash_placeholder
     00086FB5  ___func_sprite_tradutor            sprite_tradutor
     00086FB5  _sprite_tradutor_metasprite_0      sprite_tradutor
     00086FC1  _sprite_tradutor_metasprite_1      sprite_tradutor
     00086FCD  _sprite_tradutor_metasprite_2      sprite_tradutor
     00086FD9  _sprite_tradutor_metasprite_3      sprite_tradutor
     00086FE5  _sprite_tradutor_metasprite_4      sprite_tradutor
     00086FF1  _sprite_tradutor_metasprite_5      sprite_tradutor
     00086FFD  _sprite_tradutor_metasprite_6      sprite_tradutor
     00087009  _sprite_tradutor_metasprite_7      sprite_tradutor
     00087015  _sprite_tradutor_metasprite_8      sprite_tradutor
     00087021  _sprite_tradutor_metasprite_9      sprite_tradutor
     0008702D  _sprite_tradutor_metasprite_10     sprite_tradutor
     00087039  _sprite_tradutor_metasprite_11     sprite_tradutor
     00087045  _sprite_tradutor_metasprite_12     sprite_tradutor
     00087051  _sprite_tradutor_metasprite_13     sprite_tradutor
     0008705D  _sprite_tradutor_metasprite_14     sprite_tradutor
     00087069  _sprite_tradutor_metasprite_15     sprite_tradutor
     00087075  _sprite_tradutor_metasprites       sprite_tradutor
     00087095  _sprite_tradutor_animations        sprite_tradutor
     000870A5  _sprite_tradutor_animations_look   sprite_tradutor
     000870A7  _sprite_tradutor                   sprite_tradutor
     000870BA  ___func_sprite_tripulante1_tiles   sprite_tripulante1_tileset
     000870BA  _sprite_tripulante1_tileset        sprite_tripulante1_tileset
     0008713C  ___func_sprite_tripulante2_tiles   sprite_tripulante2_tileset
     0008713C  _sprite_tripulante2_tileset        sprite_tripulante2_tileset
     000871BE  _trigger_10_interact               trigger_10_interact
     00087250  _trigger_11_interact               trigger_11_interact
     000872E2  _trigger_12_interact               trigger_12_interact
     00087374  _trigger_13_interact               trigger_13_interact
     00087406  _trigger_14_interact               trigger_14_interact
     00087498  _trigger_2_interact                trigger_2_interact
     0008752A  _trigger_27_interact               trigger_27_interact
     000875BC  _trigger_29_interact               trigger_29_interact
     0008764E  _trigger_30_interact               trigger_30_interact
     000876E0  _trigger_31_interact               trigger_31_interact
     00087772  _trigger_32_interact               trigger_32_interact
     00087804  _trigger_33_interact               trigger_33_interact
ASxxxx Linker V03.00/V05.40 + sdld,  page 72.
Hexadecimal  [32-Bits]

Area                                    Addr        Size        Decimal Bytes (Attributes)
--------------------------------        ----        ----        ------- ----- ------------
_CODE_8                             00084000    00004000 =       16384. bytes (REL,CON)

      Value  Global                              Global Defined In Module
      -----  --------------------------------   ------------------------
     00087896  _trigger_34_interact               trigger_34_interact
     00087928  _trigger_35_interact               trigger_35_interact
     000879BA  _trigger_36_interact               trigger_36_interact
     00087A4C  _trigger_37_interact               trigger_37_interact
     00087ADE  _trigger_38_interact               trigger_38_interact
     00087B70  _trigger_39_interact               trigger_39_interact
     00087C02  _trigger_4_interact                trigger_4_interact
     00087C94  _trigger_40_interact               trigger_40_interact
     00087D26  _trigger_5_interact                trigger_5_interact
     00087DB8  _trigger_6_interact                trigger_6_interact
     00087E4A  _trigger_7_interact                trigger_7_interact
     00087EDC  _trigger_8_interact                trigger_8_interact
     00087F6E  _trigger_9_interact                trigger_9_interact
ASxxxx Linker V03.00/V05.40 + sdld,  page 73.
Hexadecimal  [32-Bits]

Area                                    Addr        Size        Decimal Bytes (Attributes)
--------------------------------        ----        ----        ------- ----- ------------
_CODE_7                             00074000    00003FFF =       16383. bytes (REL,CON)

      Value  Global                              Global Defined In Module
      -----  --------------------------------   ------------------------
     00074000  _DMGFadeToWhiteStep                fade_manager
     00074021  _DMGFadeToBlackStep                fade_manager
     00074044  _ApplyPaletteChangeDMG             fade_manager
     0007409A  _fade_speeds                       fade_manager
     000740A1  _fade_init                         fade_manager
     000740B7  _fade_in                           fade_manager
     000740D4  _fade_out                          fade_manager
     000740F2  _fade_update                       fade_manager
     0007413A  _fade_applypalettechange           fade_manager
     00074141  _fade_setspeed                     fade_manager
     00074151  _fade_in_modal                     fade_manager
     0007416B  _fade_out_modal                    fade_manager
     00074185  _scroll_rect                       
     000741C2  ___func_VM_MATH                    vm_math
     000741C2  _vm_sin_scale                      vm_math
     0007425E  _vm_cos_scale                      vm_math
     000742FC  ___func_VM_MUSIC                   vm_music
     000742FC  _vm_music_play                     vm_music
     00074349  _vm_music_stop                     vm_music
     0007436B  _vm_music_mute                     vm_music
     000743A9  _vm_music_routine                  vm_music
     000743D0  _vm_music_setpos                   vm_music
     000743D7  _vm_sound_mastervol                vm_music
     000743DD  _vm_sfx_play                       vm_music
     00074450  ___func_VM_PALETTE                 vm_palette
     00074450  _vm_load_palette                   vm_palette
     000745A4  _actor_13_interact                 actor_13_interact
     0007476E  _actor_15_interact                 actor_15_interact
     000748F3  _actor_31_interact                 actor_31_interact
     00074A13  _actor_32_interact                 actor_32_interact
     00074B33  _actor_33_interact                 actor_33_interact
     00074C53  _actor_34_interact                 actor_34_interact
     00074D73  _actor_35_interact                 actor_35_interact
     00074E93  _actor_36_interact                 actor_36_interact
     00074FB3  _actor_46_interact                 actor_46_interact
     00075176  ___func_bg_chief_entrance_tilema   bg_chief_entrance_tilemap
     00075176  _bg_chief_entrance_tilemap         bg_chief_entrance_tilemap
     000752DE  ___func_bg_cutscene_ingame_tilem   bg_cutscene_ingame_tilemap
     000752DE  _bg_cutscene_ingame_tilemap        bg_cutscene_ingame_tilemap
     00075446  ___func_bg_diningroom_tilemap      bg_diningroom_tilemap
     00075446  _bg_diningroom_tilemap             bg_diningroom_tilemap
     000755AE  ___func_bg_inventory_chief_tilem   bg_inventory_chief_tilemap
     000755AE  _bg_inventory_chief_tilemap        bg_inventory_chief_tilemap
     00075716  ___func_bg_inventory_samurai_til   bg_inventory_samurai_tilemap
     00075716  _bg_inventory_samurai_tilemap      bg_inventory_samurai_tilemap
     0007587E  ___func_bg_placeholder_tilemap     bg_placeholder_tilemap
     0007587E  _bg_placeholder_tilemap            bg_placeholder_tilemap
     000759E6  ___func_bg_title_screen_tilemap    bg_title_screen_tilemap
     000759E6  _bg_title_screen_tilemap           bg_title_screen_tilemap
     00075B4E  ___func_scene_0_collisions         scene_0_collisions
ASxxxx Linker V03.00/V05.40 + sdld,  page 74.
Hexadecimal  [32-Bits]

Area                                    Addr        Size        Decimal Bytes (Attributes)
--------------------------------        ----        ----        ------- ----- ------------
_CODE_7                             00074000    00003FFF =       16383. bytes (REL,CON)

      Value  Global                              Global Defined In Module
      -----  --------------------------------   ------------------------
     00075B4E  _scene_0_collisions                scene_0_collisions
     00075CB6  ___func_scene_1_collisions         scene_1_collisions
     00075CB6  _scene_1_collisions                scene_1_collisions
     00075E1E  ___func_scene_10_collisions        scene_10_collisions
     00075E1E  _scene_10_collisions               scene_10_collisions
     00075F86  ___func_scene_11_collisions        scene_11_collisions
     00075F86  _scene_11_collisions               scene_11_collisions
     000760EE  ___func_scene_13_collisions        scene_13_collisions
     000760EE  _scene_13_collisions               scene_13_collisions
     00076256  ___func_scene_15_collisions        scene_15_collisions
     00076256  _scene_15_collisions               scene_15_collisions
     000763BE  ___func_scene_19_actors            scene_19_actors
     000763BE  _scene_19_actors                   scene_19_actors
     0007655E  ___func_scene_2_collisions         scene_2_collisions
     0007655E  _scene_2_collisions                scene_2_collisions
     000766C6  ___func_scene_20_collisions        scene_20_collisions
     000766C6  _scene_20_collisions               scene_20_collisions
     0007682E  ___func_scene_21_collisions        scene_21_collisions
     0007682E  _scene_21_collisions               scene_21_collisions
     00076996  ___func_scene_22_collisions        scene_22_collisions
     00076996  _scene_22_collisions               scene_22_collisions
     00076AFE  ___func_scene_23_collisions        scene_23_collisions
     00076AFE  _scene_23_collisions               scene_23_collisions
     00076C66  ___func_scene_26_collisions        scene_26_collisions
     00076C66  _scene_26_collisions               scene_26_collisions
     00076DCE  ___func_scene_29_collisions        scene_29_collisions
     00076DCE  _scene_29_collisions               scene_29_collisions
     00076F36  ___func_scene_3_collisions         scene_3_collisions
     00076F36  _scene_3_collisions                scene_3_collisions
     0007709E  ___func_scene_30_collisions        scene_30_collisions
     0007709E  _scene_30_collisions               scene_30_collisions
     00077206  ___func_scene_4_collisions         scene_4_collisions
     00077206  _scene_4_collisions                scene_4_collisions
     0007736E  ___func_scene_5_collisions         scene_5_collisions
     0007736E  _scene_5_collisions                scene_5_collisions
     000774D6  ___func_scene_8_collisions         scene_8_collisions
     000774D6  _scene_8_collisions                scene_8_collisions
     0007763E  ___func_scene_9_collisions         scene_9_collisions
     0007763E  _scene_9_collisions                scene_9_collisions
     000777A6  ___func_sprite_actor_animated_ti   sprite_actor_animated_tilese
     000777A6  _sprite_actor_animated_tileset     sprite_actor_animated_tilese
     000778E8  ___func_sprite_boat_life_bar_til   sprite_boat_life_bar_tileset
     000778E8  _sprite_boat_life_bar_tileset      sprite_boat_life_bar_tileset
     00077A2A  ___func_sprite_boat_life_reverse   sprite_boat_life_reverse_til
     00077A2A  _sprite_boat_life_reverse_tilese   sprite_boat_life_reverse_til
     00077B6C  ___func_sprite_main_character      sprite_main_character
     00077B6C  _sprite_main_character_metasprit   sprite_main_character
     00077B78  _sprite_main_character_metasprit   sprite_main_character
     00077B84  _sprite_main_character_metasprit   sprite_main_character
     00077B90  _sprite_main_character_metasprit   sprite_main_character
     00077B9C  _sprite_main_character_metasprit   sprite_main_character
ASxxxx Linker V03.00/V05.40 + sdld,  page 75.
Hexadecimal  [32-Bits]

Area                                    Addr        Size        Decimal Bytes (Attributes)
--------------------------------        ----        ----        ------- ----- ------------
_CODE_7                             00074000    00003FFF =       16383. bytes (REL,CON)

      Value  Global                              Global Defined In Module
      -----  --------------------------------   ------------------------
     00077BA8  _sprite_main_character_metasprit   sprite_main_character
     00077BB4  _sprite_main_character_metasprit   sprite_main_character
     00077BC0  _sprite_main_character_metasprit   sprite_main_character
     00077BCC  _sprite_main_character_metasprit   sprite_main_character
     00077BD8  _sprite_main_character_metasprit   sprite_main_character
     00077BE4  _sprite_main_character_metasprit   sprite_main_character
     00077BF0  _sprite_main_character_metasprit   sprite_main_character
     00077BFC  _sprite_main_character_metasprit   sprite_main_character
     00077C08  _sprite_main_character_metasprit   sprite_main_character
     00077C14  _sprite_main_character_metasprit   sprite_main_character
     00077C20  _sprite_main_character_metasprit   sprite_main_character
     00077C2C  _sprite_main_character_metasprit   sprite_main_character
     00077C38  _sprite_main_character_metasprit   sprite_main_character
     00077C44  _sprite_main_character_metasprit   sprite_main_character
     00077C50  _sprite_main_character_metasprit   sprite_main_character
     00077C5C  _sprite_main_character_metasprit   sprite_main_character
     00077C84  _sprite_main_character_animation   sprite_main_character
     00077CA4  _sprite_main_character_animation   sprite_main_character
     00077CA8  _sprite_main_character             sprite_main_character
     00077CBB  ___func_sprite_pirata1_tileset     sprite_pirata1_tileset
     00077CBB  _sprite_pirata1_tileset            sprite_pirata1_tileset
     00077E7D  ___func_sprite_slash_placeholder   sprite_slash_placeholder_til
     00077E7D  _sprite_slash_placeholder_tilese   sprite_slash_placeholder_til

ASxxxx Linker V03.00/V05.40 + sdld,  page 76.
Hexadecimal  [32-Bits]

Area                                    Addr        Size        Decimal Bytes (Attributes)
--------------------------------        ----        ----        ------- ----- ------------
_HEADER_SIO0                        00000000    00000004 =           4. bytes (ABS,CON)

      Value  Global                              Global Defined In Module
      -----  --------------------------------   ------------------------
ASxxxx Linker V03.00/V05.40 + sdld,  page 77.
Hexadecimal  [32-Bits]

Area                                    Addr        Size        Decimal Bytes (Attributes)
--------------------------------        ----        ----        ------- ----- ------------
_HEADER_TIMER0                      00000000    00000004 =           4. bytes (ABS,CON)

      Value  Global                              Global Defined In Module
      -----  --------------------------------   ------------------------
ASxxxx Linker V03.00/V05.40 + sdld,  page 78.
Hexadecimal  [32-Bits]

Area                                    Addr        Size        Decimal Bytes (Attributes)
--------------------------------        ----        ----        ------- ----- ------------
_CODE_6                             00064000    00004000 =       16384. bytes (REL,CON)

      Value  Global                              Global Defined In Module
      -----  --------------------------------   ------------------------
     00064000  _atan2                             math_atan2
     0006419F  _atan2_table                       math_atan2
     00064307  _set_sgb_border                    sgb_border
     000644F1  ___func_VM_CAMERA                  vm_camera
     000644F1  _vm_camera_move_to                 vm_camera
     00064644  _vm_camera_set_pos                 vm_camera
     0006468B  _camera_shake_frames               vm_camera
     00064783  ___func_VM_SIO                     vm_sio
     00064783  _vm_sio_set_mode                   vm_sio
     00064795  _vm_sio_exchange                   vm_sio
     00064A75  _actor_12_interact                 actor_12_interact
     00064C5A  _actor_14_interact                 actor_14_interact
     00064E31  ___func_bg_beco_tilemap            bg_beco_tilemap
     00064E31  _bg_beco_tilemap                   bg_beco_tilemap
     00065061  ___func_bg_beco_tileset            bg_beco_tileset
     00065061  _bg_beco_tileset                   bg_beco_tileset
     00065283  ___func_bg_docas_tilemap           bg_docas_tilemap
     00065283  _bg_docas_tilemap                  bg_docas_tilemap
     00065543  ___func_bg_skeleton_back_tileset   bg_skeleton_back_tileset
     00065543  _bg_skeleton_back_tileset          bg_skeleton_back_tileset
     00065805  ___func_bg_vila_1_tilemap          bg_vila_1_tilemap
     00065805  _bg_vila_1_tilemap                 bg_vila_1_tilemap
     00065AC5  _scene_10_init                     scene_10_init
     00065D8B  _scene_13_init                     scene_13_init
     00065F75  ___func_scene_14_collisions        scene_14_collisions
     00065F75  _scene_14_collisions               scene_14_collisions
     000661B5  ___func_scene_17_collisions        scene_17_collisions
     000661B5  _scene_17_collisions               scene_17_collisions
     00066475  ___func_scene_18_collisions        scene_18_collisions
     00066475  _scene_18_collisions               scene_18_collisions
     000666A5  ___func_scene_19_collisions        scene_19_collisions
     000666A5  _scene_19_collisions               scene_19_collisions
     00066965  ___func_scene_24_collisions        scene_24_collisions
     00066965  _scene_24_collisions               scene_24_collisions
     00066B95  ___func_scene_24_sprites           scene_24_sprites
     00066B95  _scene_24_sprites                  scene_24_sprites
     00066BA4  ___func_scene_25_collisions        scene_25_collisions
     00066BA4  _scene_25_collisions               scene_25_collisions
     00066DD4  ___func_scene_6_collisions         scene_6_collisions
     00066DD4  _scene_6_collisions                scene_6_collisions
     00067014  ___func_sprite_chefe_vila_tilese   sprite_chefe_vila_tileset
     00067014  _sprite_chefe_vila_tileset         sprite_chefe_vila_tileset
     00067316  ___func_sprite_main_character_ti   sprite_main_character_tilese
     00067316  _sprite_main_character_tileset     sprite_main_character_tilese
     000675F8  ___func_sprite_ninja_tileset       sprite_ninja_tileset
     000675F8  _sprite_ninja_tileset              sprite_ninja_tileset
     000678FA  ___func_sprite_pirata2_tileset     sprite_pirata2_tileset
     000678FA  _sprite_pirata2_tileset            sprite_pirata2_tileset
     00067BBC  ___func_sprite_samurai_tileset     sprite_samurai_tileset
     00067BBC  _sprite_samurai_tileset            sprite_samurai_tileset
ASxxxx Linker V03.00/V05.40 + sdld,  page 79.
Hexadecimal  [32-Bits]

Area                                    Addr        Size        Decimal Bytes (Attributes)
--------------------------------        ----        ----        ------- ----- ------------
_CODE_6                             00064000    00004000 =       16384. bytes (REL,CON)

      Value  Global                              Global Defined In Module
      -----  --------------------------------   ------------------------
     00067DDE  ___func_sprite_tradutor_tileset    sprite_tradutor_tileset
     00067DDE  _sprite_tradutor_tileset           sprite_tradutor_tileset

ASxxxx Linker V03.00/V05.40 + sdld,  page 80.
Hexadecimal  [32-Bits]

Area                                    Addr        Size        Decimal Bytes (Attributes)
--------------------------------        ----        ----        ------- ----- ------------
_CODE_1                             00014000    00004000 =       16384. bytes (REL,CON)

      Value  Global                              Global Defined In Module
      -----  --------------------------------   ------------------------
     00014000  _ui_swap_tiles                     
     0001404A  _ui_print_make_mask_lr             
     00014066  _ui_print_make_mask_rl             
     00014082  _ui_init                           ui
     00014149  _ui_load_tiles                     ui
     000141A0  _ui_draw_frame                     ui
     00014210  _ui_print_reset                    ui
     00014244  _ui_set_start_tile                 ui
     00014270  _ui_print_render                   ui
     00014451  _ui_draw_text_buffer_char          ui
     00014888  _ui_run_menu                       ui
     00014A08  _ui_run_modal                      ui
     00014AC2  ___func_VM_SGB                     vm_sgb
     00014AC2  ___func_bg_title_screen_tileset    bg_title_screen_tileset
     00014AC2  _bg_title_screen_tileset           bg_title_screen_tileset
     00016144  ___func_sprite_navio_portugues_i   sprite_navio_portugues_inve_
     00016144  _sprite_navio_portugues_inve_til   sprite_navio_portugues_inve_
     000161C6  _platform_init                     platform
     00016340  _platform_update                   platform
     00017838  _shmup_init                        shmup
     000178D5  _shmup_update                      shmup
ASxxxx Linker V03.00/V05.40 + sdld,  page 81.
Hexadecimal  [32-Bits]

Area                                    Addr        Size        Decimal Bytes (Attributes)
--------------------------------        ----        ----        ------- ----- ------------
_CODE_3                             00034000    00004000 =       16384. bytes (REL,CON)

      Value  Global                              Global Defined In Module
      -----  --------------------------------   ------------------------
     00034000  ___func_bg_cutscene_ingame_tiles   bg_cutscene_ingame_tileset
     00034000  _bg_cutscene_ingame_tileset        bg_cutscene_ingame_tileset
     00034B42  ___func_bg_grassfield_tilemap      bg_grassfield_tilemap
     00034B42  _bg_grassfield_tilemap             bg_grassfield_tilemap
     00034D82  ___func_bg_skeleton_back_tilemap   bg_skeleton_back_tilemap
     00034D82  _bg_skeleton_back_tilemap          bg_skeleton_back_tilemap
     000359AC  ___func_font_gbs_mono              font_gbs_mono
     0003675C  _font_gbs_mono                     font_gbs_mono
     00036764  _scene_12_init                     scene_12_init
     000367AC  ___func_scene_27_collisions        scene_27_collisions
     000367AC  _scene_27_collisions               scene_27_collisions
     000373D6  ___func_scene_7_collisions         scene_7_collisions
     000373D6  _scene_7_collisions                scene_7_collisions

ASxxxx Linker V03.00/V05.40 + sdld,  page 82.
Hexadecimal  [32-Bits]

Area                                    Addr        Size        Decimal Bytes (Attributes)
--------------------------------        ----        ----        ------- ----- ------------
_HEADER_LCD0                        00000000    00000003 =           3. bytes (ABS,CON)

      Value  Global                              Global Defined In Module
      -----  --------------------------------   ------------------------
ASxxxx Linker V03.00/V05.40 + sdld,  page 83.

Files Linked                              [ module(s) ]

C:\tmp/_gbstools/gbdk/lib/gb/crt0.o       [ Runtime ]
C:/tmp/_gbsbuild/obj/absolute.rel         [ absolute ]
C:/tmp/_gbsbuild/obj/actor.rel            [ actor ]
C:/tmp/_gbsbuild/obj/bankdata.rel         [ bankdata ]
C:/tmp/_gbsbuild/obj/bootstrap.rel        [  ]
C:/tmp/_gbsbuild/obj/camera.rel           [ camera ]
C:/tmp/_gbsbuild/obj/core.rel             [ core ]
C:/tmp/_gbsbuild/obj/crash_handler.rel    [  ]
C:/tmp/_gbsbuild/obj/data_manager.rel     [ data_manager ]
C:/tmp/_gbsbuild/obj/events.rel           [ events ]
C:/tmp/_gbsbuild/obj/fade_manager.rel     [ fade_manager ]
C:/tmp/_gbsbuild/obj/flasher_s.rel        [  ]
C:/tmp/_gbsbuild/obj/flasher.rel          [ flasher ]
C:/tmp/_gbsbuild/obj/game_time.rel        [ game_time ]
C:/tmp/_gbsbuild/obj/gbprinter.rel        [ gbprinter ]
C:/tmp/_gbsbuild/obj/input.rel            [ input ]
C:/tmp/_gbsbuild/obj/interrupt_sio.rel    [  ]
C:/tmp/_gbsbuild/obj/interrupt_timer.rel  [  ]
C:/tmp/_gbsbuild/obj/interrupts.rel       [ interrupts ]
C:/tmp/_gbsbuild/obj/load_save.rel        [ load_save ]
C:/tmp/_gbsbuild/obj/math_atan2.rel       [ math_atan2 ]
C:/tmp/_gbsbuild/obj/math.rel             [ math ]
C:/tmp/_gbsbuild/obj/music_manager.rel    [ music_manager ]
C:/tmp/_gbsbuild/obj/palette.rel          [ palette ]
C:/tmp/_gbsbuild/obj/parallax.rel         [ parallax ]
C:/tmp/_gbsbuild/obj/projectiles.rel      [ projectiles ]
C:/tmp/_gbsbuild/obj/scroll_a.rel         [  ]
C:/tmp/_gbsbuild/obj/scroll.rel           [ scroll ]
C:/tmp/_gbsbuild/obj/set_tile_submap.rel  [  ]
C:/tmp/_gbsbuild/obj/sfx_player.rel       [ sfx_player ]
C:/tmp/_gbsbuild/obj/sgb_border.rel       [ sgb_border ]
C:/tmp/_gbsbuild/obj/sio.rel              [ sio ]
C:/tmp/_gbsbuild/obj/states_caller.rel    [  ]
C:/tmp/_gbsbuild/obj/system.rel           [ system ]
C:/tmp/_gbsbuild/obj/trigger.rel          [ trigger ]
C:/tmp/_gbsbuild/obj/ui_a.rel             [  ]
C:/tmp/_gbsbuild/obj/ui.rel               [ ui ]
C:/tmp/_gbsbuild/obj/vm_actor.rel         [ vm_actor ]
C:/tmp/_gbsbuild/obj/vm_camera.rel        [ vm_camera ]
C:/tmp/_gbsbuild/obj/vm_gameboy.rel       [ vm_gameboy ]
C:/tmp/_gbsbuild/obj/vm_gbprinter.rel     [ vm_gbprinter ]
C:/tmp/_gbsbuild/obj/vm_instructions.rel  [ vm_instructions ]
C:/tmp/_gbsbuild/obj/vm_load_save.rel     [ vm_load_save ]
C:/tmp/_gbsbuild/obj/vm_math.rel          [ vm_math ]
C:/tmp/_gbsbuild/obj/vm_music.rel         [ vm_music ]
C:/tmp/_gbsbuild/obj/vm_palette.rel       [ vm_palette ]
C:/tmp/_gbsbuild/obj/vm_projectiles.rel   [ vm_projectiles ]
C:/tmp/_gbsbuild/obj/vm_rtc.rel           [ vm_rtc ]
C:/tmp/_gbsbuild/obj/vm_scene.rel         [ vm_scene ]
C:/tmp/_gbsbuild/obj/vm_sgb.rel           [ vm_sgb ]
C:/tmp/_gbsbuild/obj/vm_sio.rel           [ vm_sio ]
C:/tmp/_gbsbuild/obj/vm_ui_a.rel          [ vm_ui_a ]
C:/tmp/_gbsbuild/obj/vm_ui.rel            [ vm_ui ]
C:/tmp/_gbsbuild/obj/vm.rel               [ vm ]
C:/tmp/_gbsbuild/obj/actor_1_interact.rel
                                          [ actor_1_interact ]
C:/tmp/_gbsbuild/obj/actor_1_update.rel   [ actor_1_update ]
C:/tmp/_gbsbuild/obj/actor_10_interact.rel
                                          [ actor_10_interact ]
C:/tmp/_gbsbuild/obj/actor_10_update.rel  [ actor_10_update ]
C:/tmp/_gbsbuild/obj/actor_12_interact.rel
                                          [ actor_12_interact ]
C:/tmp/_gbsbuild/obj/actor_13_interact.rel
                                          [ actor_13_interact ]
C:/tmp/_gbsbuild/obj/actor_13_update.rel  [ actor_13_update ]
C:/tmp/_gbsbuild/obj/actor_14_interact.rel
                                          [ actor_14_interact ]
C:/tmp/_gbsbuild/obj/actor_14_update.rel  [ actor_14_update ]
C:/tmp/_gbsbuild/obj/actor_15_interact.rel
                                          [ actor_15_interact ]
C:/tmp/_gbsbuild/obj/actor_15_update.rel  [ actor_15_update ]
C:/tmp/_gbsbuild/obj/actor_18_update.rel  [ actor_18_update ]
C:/tmp/_gbsbuild/obj/actor_19_interact.rel
                                          [ actor_19_interact ]
C:/tmp/_gbsbuild/obj/actor_19_update.rel  [ actor_19_update ]
C:/tmp/_gbsbuild/obj/actor_2_interact.rel
                                          [ actor_2_interact ]
C:/tmp/_gbsbuild/obj/actor_2_update.rel   [ actor_2_update ]
C:/tmp/_gbsbuild/obj/actor_20_interact.rel
                                          [ actor_20_interact ]
C:/tmp/_gbsbuild/obj/actor_20_update.rel  [ actor_20_update ]
C:/tmp/_gbsbuild/obj/actor_21_update.rel  [ actor_21_update ]
C:/tmp/_gbsbuild/obj/actor_22_interact.rel
                                          [ actor_22_interact ]
C:/tmp/_gbsbuild/obj/actor_22_update.rel  [ actor_22_update ]
C:/tmp/_gbsbuild/obj/actor_23_update.rel  [ actor_23_update ]
C:/tmp/_gbsbuild/obj/actor_25_update.rel  [ actor_25_update ]
C:/tmp/_gbsbuild/obj/actor_26_interact.rel
                                          [ actor_26_interact ]
C:/tmp/_gbsbuild/obj/actor_27_interact.rel
                                          [ actor_27_interact ]
C:/tmp/_gbsbuild/obj/actor_27_update.rel  [ actor_27_update ]
C:/tmp/_gbsbuild/obj/actor_29_interact.rel
                                          [ actor_29_interact ]
C:/tmp/_gbsbuild/obj/actor_29_update.rel  [ actor_29_update ]
C:/tmp/_gbsbuild/obj/actor_3_interact.rel
                                          [ actor_3_interact ]
C:/tmp/_gbsbuild/obj/actor_3_update.rel   [ actor_3_update ]
C:/tmp/_gbsbuild/obj/actor_30_interact.rel
                                          [ actor_30_interact ]
C:/tmp/_gbsbuild/obj/actor_30_update.rel  [ actor_30_update ]
C:/tmp/_gbsbuild/obj/actor_31_interact.rel
                                          [ actor_31_interact ]
C:/tmp/_gbsbuild/obj/actor_32_interact.rel
                                          [ actor_32_interact ]
C:/tmp/_gbsbuild/obj/actor_33_interact.rel
                                          [ actor_33_interact ]
C:/tmp/_gbsbuild/obj/actor_34_interact.rel
                                          [ actor_34_interact ]
C:/tmp/_gbsbuild/obj/actor_35_interact.rel
                                          [ actor_35_interact ]
C:/tmp/_gbsbuild/obj/actor_36_interact.rel
                                          [ actor_36_interact ]
C:/tmp/_gbsbuild/obj/actor_37_interact.rel
                                          [ actor_37_interact ]
C:/tmp/_gbsbuild/obj/actor_37_update.rel  [ actor_37_update ]
C:/tmp/_gbsbuild/obj/actor_38_update.rel  [ actor_38_update ]
C:/tmp/_gbsbuild/obj/actor_39_update.rel  [ actor_39_update ]
C:/tmp/_gbsbuild/obj/actor_4_update.rel   [ actor_4_update ]
C:/tmp/_gbsbuild/obj/actor_40_interact.rel
                                          [ actor_40_interact ]
C:/tmp/_gbsbuild/obj/actor_41_interact.rel
                                          [ actor_41_interact ]
C:/tmp/_gbsbuild/obj/actor_42_interact.rel
                                          [ actor_42_interact ]
C:/tmp/_gbsbuild/obj/actor_43_update.rel  [ actor_43_update ]
C:/tmp/_gbsbuild/obj/actor_45_update.rel  [ actor_45_update ]
C:/tmp/_gbsbuild/obj/actor_46_interact.rel
                                          [ actor_46_interact ]
C:/tmp/_gbsbuild/obj/actor_47_interact.rel
                                          [ actor_47_interact ]
C:/tmp/_gbsbuild/obj/actor_48_interact.rel
                                          [ actor_48_interact ]
C:/tmp/_gbsbuild/obj/actor_49_interact.rel
                                          [ actor_49_interact ]
C:/tmp/_gbsbuild/obj/actor_5_interact.rel
                                          [ actor_5_interact ]
C:/tmp/_gbsbuild/obj/actor_5_update.rel   [ actor_5_update ]
C:/tmp/_gbsbuild/obj/actor_50_interact.rel
                                          [ actor_50_interact ]
C:/tmp/_gbsbuild/obj/actor_51_interact.rel
                                          [ actor_51_interact ]
C:/tmp/_gbsbuild/obj/actor_52_interact.rel
                                          [ actor_52_interact ]
C:/tmp/_gbsbuild/obj/actor_53_interact.rel
                                          [ actor_53_interact ]
C:/tmp/_gbsbuild/obj/actor_6_interact.rel
                                          [ actor_6_interact ]
C:/tmp/_gbsbuild/obj/actor_6_update.rel   [ actor_6_update ]
C:/tmp/_gbsbuild/obj/actor_7_interact.rel
                                          [ actor_7_interact ]
C:/tmp/_gbsbuild/obj/actor_7_update.rel   [ actor_7_update ]
C:/tmp/_gbsbuild/obj/actor_8_interact.rel
                                          [ actor_8_interact ]
C:/tmp/_gbsbuild/obj/actor_8_update.rel   [ actor_8_update ]
C:/tmp/_gbsbuild/obj/actor_9_update.rel   [ actor_9_update ]
C:/tmp/_gbsbuild/obj/bg_beco_tilemap.rel  [ bg_beco_tilemap ]
C:/tmp/_gbsbuild/obj/bg_beco_tileset.rel  [ bg_beco_tileset ]
C:/tmp/_gbsbuild/obj/bg_beco.rel          [ bg_beco ]
C:/tmp/_gbsbuild/obj/bg_chief_entrance_tilemap.rel
                                          [ bg_chief_entrance_tilemap ]
C:/tmp/_gbsbuild/obj/bg_chief_entrance_tileset.rel
                                          [ bg_chief_entrance_tileset ]
C:/tmp/_gbsbuild/obj/bg_chief_entrance.rel
                                          [ bg_chief_entrance ]
C:/tmp/_gbsbuild/obj/bg_cutscene_ingame_tilemap.rel
                                          [ bg_cutscene_ingame_tilemap ]
C:/tmp/_gbsbuild/obj/bg_cutscene_ingame_tileset.rel
                                          [ bg_cutscene_ingame_tileset ]
C:/tmp/_gbsbuild/obj/bg_cutscene_ingame.rel
                                          [ bg_cutscene_ingame ]
C:/tmp/_gbsbuild/obj/bg_diningroom_tilemap.rel
                                          [ bg_diningroom_tilemap ]
C:/tmp/_gbsbuild/obj/bg_diningroom_tileset.rel
                                          [ bg_diningroom_tileset ]
C:/tmp/_gbsbuild/obj/bg_diningroom.rel    [ bg_diningroom ]
C:/tmp/_gbsbuild/obj/bg_docas_tilemap.rel
                                          [ bg_docas_tilemap ]
C:/tmp/_gbsbuild/obj/bg_docas_tileset.rel
                                          [ bg_docas_tileset ]
C:/tmp/_gbsbuild/obj/bg_docas.rel         [ bg_docas ]
C:/tmp/_gbsbuild/obj/bg_grassfield_tilemap.rel
                                          [ bg_grassfield_tilemap ]
C:/tmp/_gbsbuild/obj/bg_grassfield_tileset.rel
                                          [ bg_grassfield_tileset ]
C:/tmp/_gbsbuild/obj/bg_grassfield.rel    [ bg_grassfield ]
C:/tmp/_gbsbuild/obj/bg_inventory_chief_tilemap.rel
                                          [ bg_inventory_chief_tilemap ]
C:/tmp/_gbsbuild/obj/bg_inventory_chief_tileset.rel
                                          [ bg_inventory_chief_tileset ]
C:/tmp/_gbsbuild/obj/bg_inventory_chief.rel
                                          [ bg_inventory_chief ]
C:/tmp/_gbsbuild/obj/bg_inventory_samurai_tilemap.rel
                                          [ bg_inventory_samurai_tilemap ]
C:/tmp/_gbsbuild/obj/bg_inventory_samurai_tileset.rel
                                          [ bg_inventory_samurai_tileset ]
C:/tmp/_gbsbuild/obj/bg_inventory_samurai.rel
                                          [ bg_inventory_samurai ]
C:/tmp/_gbsbuild/obj/bg_placeholder_tilemap.rel
                                          [ bg_placeholder_tilemap ]
C:/tmp/_gbsbuild/obj/bg_placeholder_tileset.rel
                                          [ bg_placeholder_tileset ]
C:/tmp/_gbsbuild/obj/bg_placeholder.rel   [ bg_placeholder ]
C:/tmp/_gbsbuild/obj/bg_skeleton_back_tilemap.rel
                                          [ bg_skeleton_back_tilemap ]
C:/tmp/_gbsbuild/obj/bg_skeleton_back_tileset.rel
                                          [ bg_skeleton_back_tileset ]
C:/tmp/_gbsbuild/obj/bg_skeleton_back.rel
                                          [ bg_skeleton_back ]
C:/tmp/_gbsbuild/obj/bg_title_screen_tilemap.rel
                                          [ bg_title_screen_tilemap ]
C:/tmp/_gbsbuild/obj/bg_title_screen_tileset.rel
                                          [ bg_title_screen_tileset ]
C:/tmp/_gbsbuild/obj/bg_title_screen.rel  [ bg_title_screen ]
C:/tmp/_gbsbuild/obj/bg_vila_1_tilemap.rel
                                          [ bg_vila_1_tilemap ]
C:/tmp/_gbsbuild/obj/bg_vila_1_tileset.rel
                                          [ bg_vila_1_tileset ]
C:/tmp/_gbsbuild/obj/bg_vila_1.rel        [ bg_vila_1 ]
C:/tmp/_gbsbuild/obj/bg_vila_2_tilemap.rel
                                          [ bg_vila_2_tilemap ]
C:/tmp/_gbsbuild/obj/bg_vila_2_tileset.rel
                                          [ bg_vila_2_tileset ]
C:/tmp/_gbsbuild/obj/bg_vila_2.rel        [ bg_vila_2 ]
C:/tmp/_gbsbuild/obj/cursor_image.rel     [ cursor_image ]
C:/tmp/_gbsbuild/obj/emote_anger.rel      [ emote_anger ]
C:/tmp/_gbsbuild/obj/emote_music.rel      [ emote_music ]
C:/tmp/_gbsbuild/obj/emote_pause.rel      [ emote_pause ]
C:/tmp/_gbsbuild/obj/emote_question.rel   [ emote_question ]
C:/tmp/_gbsbuild/obj/emote_shock.rel      [ emote_shock ]
C:/tmp/_gbsbuild/obj/emote_sweat.rel      [ emote_sweat ]
C:/tmp/_gbsbuild/obj/font_gbs_mono.rel    [ font_gbs_mono ]
C:/tmp/_gbsbuild/obj/frame_image.rel      [ frame_image ]
C:/tmp/_gbsbuild/obj/game_signature.rel   [ game_signature ]
C:/tmp/_gbsbuild/obj/palette_0.rel        [ palette_0 ]
C:/tmp/_gbsbuild/obj/palette_1.rel        [ palette_1 ]
C:/tmp/_gbsbuild/obj/scene_0_collisions.rel
                                          [ scene_0_collisions ]
C:/tmp/_gbsbuild/obj/scene_0_init.rel     [ scene_0_init ]
C:/tmp/_gbsbuild/obj/scene_0.rel          [ scene_0 ]
C:/tmp/_gbsbuild/obj/scene_1_collisions.rel
                                          [ scene_1_collisions ]
C:/tmp/_gbsbuild/obj/scene_1_init.rel     [ scene_1_init ]
C:/tmp/_gbsbuild/obj/scene_1.rel          [ scene_1 ]
C:/tmp/_gbsbuild/obj/scene_10_actors.rel  [ scene_10_actors ]
C:/tmp/_gbsbuild/obj/scene_10_collisions.rel
                                          [ scene_10_collisions ]
C:/tmp/_gbsbuild/obj/scene_10_init.rel    [ scene_10_init ]
C:/tmp/_gbsbuild/obj/scene_10_sprites.rel
                                          [ scene_10_sprites ]
C:/tmp/_gbsbuild/obj/scene_10.rel         [ scene_10 ]
C:/tmp/_gbsbuild/obj/scene_11_collisions.rel
                                          [ scene_11_collisions ]
C:/tmp/_gbsbuild/obj/scene_11_init.rel    [ scene_11_init ]
C:/tmp/_gbsbuild/obj/scene_11.rel         [ scene_11 ]
C:/tmp/_gbsbuild/obj/scene_12_actors.rel  [ scene_12_actors ]
C:/tmp/_gbsbuild/obj/scene_12_collisions.rel
                                          [ scene_12_collisions ]
C:/tmp/_gbsbuild/obj/scene_12_init.rel    [ scene_12_init ]
C:/tmp/_gbsbuild/obj/scene_12_sprites.rel
                                          [ scene_12_sprites ]
C:/tmp/_gbsbuild/obj/scene_12.rel         [ scene_12 ]
C:/tmp/_gbsbuild/obj/scene_13_actors.rel  [ scene_13_actors ]
C:/tmp/_gbsbuild/obj/scene_13_collisions.rel
                                          [ scene_13_collisions ]
C:/tmp/_gbsbuild/obj/scene_13_init.rel    [ scene_13_init ]
C:/tmp/_gbsbuild/obj/scene_13_sprites.rel
                                          [ scene_13_sprites ]
C:/tmp/_gbsbuild/obj/scene_13.rel         [ scene_13 ]
C:/tmp/_gbsbuild/obj/scene_14_actors.rel  [ scene_14_actors ]
C:/tmp/_gbsbuild/obj/scene_14_collisions.rel
                                          [ scene_14_collisions ]
C:/tmp/_gbsbuild/obj/scene_14_init.rel    [ scene_14_init ]
C:/tmp/_gbsbuild/obj/scene_14_p_hit1.rel  [ scene_14_p_hit1 ]
C:/tmp/_gbsbuild/obj/scene_14_projectiles.rel
                                          [ scene_14_projectiles ]
C:/tmp/_gbsbuild/obj/scene_14_sprites.rel
                                          [ scene_14_sprites ]
C:/tmp/_gbsbuild/obj/scene_14_triggers.rel
                                          [ scene_14_triggers ]
C:/tmp/_gbsbuild/obj/scene_14.rel         [ scene_14 ]
C:/tmp/_gbsbuild/obj/scene_15_collisions.rel
                                          [ scene_15_collisions ]
C:/tmp/_gbsbuild/obj/scene_15_init.rel    [ scene_15_init ]
C:/tmp/_gbsbuild/obj/scene_15.rel         [ scene_15 ]
C:/tmp/_gbsbuild/obj/scene_16_actors.rel  [ scene_16_actors ]
C:/tmp/_gbsbuild/obj/scene_16_collisions.rel
                                          [ scene_16_collisions ]
C:/tmp/_gbsbuild/obj/scene_16_init.rel    [ scene_16_init ]
C:/tmp/_gbsbuild/obj/scene_16_sprites.rel
                                          [ scene_16_sprites ]
C:/tmp/_gbsbuild/obj/scene_16_triggers.rel
                                          [ scene_16_triggers ]
C:/tmp/_gbsbuild/obj/scene_16.rel         [ scene_16 ]
C:/tmp/_gbsbuild/obj/scene_17_actors.rel  [ scene_17_actors ]
C:/tmp/_gbsbuild/obj/scene_17_collisions.rel
                                          [ scene_17_collisions ]
C:/tmp/_gbsbuild/obj/scene_17_init.rel    [ scene_17_init ]
C:/tmp/_gbsbuild/obj/scene_17_sprites.rel
                                          [ scene_17_sprites ]
C:/tmp/_gbsbuild/obj/scene_17_triggers.rel
                                          [ scene_17_triggers ]
C:/tmp/_gbsbuild/obj/scene_17.rel         [ scene_17 ]
C:/tmp/_gbsbuild/obj/scene_18_actors.rel  [ scene_18_actors ]
C:/tmp/_gbsbuild/obj/scene_18_collisions.rel
                                          [ scene_18_collisions ]
C:/tmp/_gbsbuild/obj/scene_18_init.rel    [ scene_18_init ]
C:/tmp/_gbsbuild/obj/scene_18_sprites.rel
                                          [ scene_18_sprites ]
C:/tmp/_gbsbuild/obj/scene_18_triggers.rel
                                          [ scene_18_triggers ]
C:/tmp/_gbsbuild/obj/scene_18.rel         [ scene_18 ]
C:/tmp/_gbsbuild/obj/scene_19_actors.rel  [ scene_19_actors ]
C:/tmp/_gbsbuild/obj/scene_19_collisions.rel
                                          [ scene_19_collisions ]
C:/tmp/_gbsbuild/obj/scene_19_init.rel    [ scene_19_init ]
C:/tmp/_gbsbuild/obj/scene_19_sprites.rel
                                          [ scene_19_sprites ]
C:/tmp/_gbsbuild/obj/scene_19_triggers.rel
                                          [ scene_19_triggers ]
C:/tmp/_gbsbuild/obj/scene_19.rel         [ scene_19 ]
C:/tmp/_gbsbuild/obj/scene_2_collisions.rel
                                          [ scene_2_collisions ]
C:/tmp/_gbsbuild/obj/scene_2_init.rel     [ scene_2_init ]
C:/tmp/_gbsbuild/obj/scene_2.rel          [ scene_2 ]
C:/tmp/_gbsbuild/obj/scene_20_actors.rel  [ scene_20_actors ]
C:/tmp/_gbsbuild/obj/scene_20_collisions.rel
                                          [ scene_20_collisions ]
C:/tmp/_gbsbuild/obj/scene_20_init.rel    [ scene_20_init ]
C:/tmp/_gbsbuild/obj/scene_20_sprites.rel
                                          [ scene_20_sprites ]
C:/tmp/_gbsbuild/obj/scene_20_triggers.rel
                                          [ scene_20_triggers ]
C:/tmp/_gbsbuild/obj/scene_20.rel         [ scene_20 ]
C:/tmp/_gbsbuild/obj/scene_21_actors.rel  [ scene_21_actors ]
C:/tmp/_gbsbuild/obj/scene_21_collisions.rel
                                          [ scene_21_collisions ]
C:/tmp/_gbsbuild/obj/scene_21_init.rel    [ scene_21_init ]
C:/tmp/_gbsbuild/obj/scene_21_sprites.rel
                                          [ scene_21_sprites ]
C:/tmp/_gbsbuild/obj/scene_21_triggers.rel
                                          [ scene_21_triggers ]
C:/tmp/_gbsbuild/obj/scene_21.rel         [ scene_21 ]
C:/tmp/_gbsbuild/obj/scene_22_actors.rel  [ scene_22_actors ]
C:/tmp/_gbsbuild/obj/scene_22_collisions.rel
                                          [ scene_22_collisions ]
C:/tmp/_gbsbuild/obj/scene_22_init.rel    [ scene_22_init ]
C:/tmp/_gbsbuild/obj/scene_22_sprites.rel
                                          [ scene_22_sprites ]
C:/tmp/_gbsbuild/obj/scene_22_triggers.rel
                                          [ scene_22_triggers ]
C:/tmp/_gbsbuild/obj/scene_22.rel         [ scene_22 ]
C:/tmp/_gbsbuild/obj/scene_23_collisions.rel
                                          [ scene_23_collisions ]
C:/tmp/_gbsbuild/obj/scene_23_init.rel    [ scene_23_init ]
C:/tmp/_gbsbuild/obj/scene_23.rel         [ scene_23 ]
C:/tmp/_gbsbuild/obj/scene_24_actors.rel  [ scene_24_actors ]
C:/tmp/_gbsbuild/obj/scene_24_collisions.rel
                                          [ scene_24_collisions ]
C:/tmp/_gbsbuild/obj/scene_24_init.rel    [ scene_24_init ]
C:/tmp/_gbsbuild/obj/scene_24_p_hit1.rel  [ scene_24_p_hit1 ]
C:/tmp/_gbsbuild/obj/scene_24_projectiles.rel
                                          [ scene_24_projectiles ]
C:/tmp/_gbsbuild/obj/scene_24_sprites.rel
                                          [ scene_24_sprites ]
C:/tmp/_gbsbuild/obj/scene_24_triggers.rel
                                          [ scene_24_triggers ]
C:/tmp/_gbsbuild/obj/scene_24.rel         [ scene_24 ]
C:/tmp/_gbsbuild/obj/scene_25_actors.rel  [ scene_25_actors ]
C:/tmp/_gbsbuild/obj/scene_25_collisions.rel
                                          [ scene_25_collisions ]
C:/tmp/_gbsbuild/obj/scene_25_init.rel    [ scene_25_init ]
C:/tmp/_gbsbuild/obj/scene_25_sprites.rel
                                          [ scene_25_sprites ]
C:/tmp/_gbsbuild/obj/scene_25_triggers.rel
                                          [ scene_25_triggers ]
C:/tmp/_gbsbuild/obj/scene_25.rel         [ scene_25 ]
C:/tmp/_gbsbuild/obj/scene_26_collisions.rel
                                          [ scene_26_collisions ]
C:/tmp/_gbsbuild/obj/scene_26_init.rel    [ scene_26_init ]
C:/tmp/_gbsbuild/obj/scene_26.rel         [ scene_26 ]
C:/tmp/_gbsbuild/obj/scene_27_actors.rel  [ scene_27_actors ]
C:/tmp/_gbsbuild/obj/scene_27_collisions.rel
                                          [ scene_27_collisions ]
C:/tmp/_gbsbuild/obj/scene_27_init.rel    [ scene_27_init ]
C:/tmp/_gbsbuild/obj/scene_27_sprites.rel
                                          [ scene_27_sprites ]
C:/tmp/_gbsbuild/obj/scene_27_triggers.rel
                                          [ scene_27_triggers ]
C:/tmp/_gbsbuild/obj/scene_27.rel         [ scene_27 ]
C:/tmp/_gbsbuild/obj/scene_29_actors.rel  [ scene_29_actors ]
C:/tmp/_gbsbuild/obj/scene_29_collisions.rel
                                          [ scene_29_collisions ]
C:/tmp/_gbsbuild/obj/scene_29_init.rel    [ scene_29_init ]
C:/tmp/_gbsbuild/obj/scene_29_sprites.rel
                                          [ scene_29_sprites ]
C:/tmp/_gbsbuild/obj/scene_29_triggers.rel
                                          [ scene_29_triggers ]
C:/tmp/_gbsbuild/obj/scene_29.rel         [ scene_29 ]
C:/tmp/_gbsbuild/obj/scene_3_collisions.rel
                                          [ scene_3_collisions ]
C:/tmp/_gbsbuild/obj/scene_3_init.rel     [ scene_3_init ]
C:/tmp/_gbsbuild/obj/scene_3.rel          [ scene_3 ]
C:/tmp/_gbsbuild/obj/scene_30_collisions.rel
                                          [ scene_30_collisions ]
C:/tmp/_gbsbuild/obj/scene_30_init.rel    [ scene_30_init ]
C:/tmp/_gbsbuild/obj/scene_30.rel         [ scene_30 ]
C:/tmp/_gbsbuild/obj/scene_4_collisions.rel
                                          [ scene_4_collisions ]
C:/tmp/_gbsbuild/obj/scene_4_init.rel     [ scene_4_init ]
C:/tmp/_gbsbuild/obj/scene_4.rel          [ scene_4 ]
C:/tmp/_gbsbuild/obj/scene_5_actors.rel   [ scene_5_actors ]
C:/tmp/_gbsbuild/obj/scene_5_collisions.rel
                                          [ scene_5_collisions ]
C:/tmp/_gbsbuild/obj/scene_5_init.rel     [ scene_5_init ]
C:/tmp/_gbsbuild/obj/scene_5_sprites.rel  [ scene_5_sprites ]
C:/tmp/_gbsbuild/obj/scene_5.rel          [ scene_5 ]
C:/tmp/_gbsbuild/obj/scene_6_actors.rel   [ scene_6_actors ]
C:/tmp/_gbsbuild/obj/scene_6_collisions.rel
                                          [ scene_6_collisions ]
C:/tmp/_gbsbuild/obj/scene_6_init.rel     [ scene_6_init ]
C:/tmp/_gbsbuild/obj/scene_6_p_hit1.rel   [ scene_6_p_hit1 ]
C:/tmp/_gbsbuild/obj/scene_6_projectiles.rel
                                          [ scene_6_projectiles ]
C:/tmp/_gbsbuild/obj/scene_6_sprites.rel  [ scene_6_sprites ]
C:/tmp/_gbsbuild/obj/scene_6_triggers.rel
                                          [ scene_6_triggers ]
C:/tmp/_gbsbuild/obj/scene_6.rel          [ scene_6 ]
C:/tmp/_gbsbuild/obj/scene_7_actors.rel   [ scene_7_actors ]
C:/tmp/_gbsbuild/obj/scene_7_collisions.rel
                                          [ scene_7_collisions ]
C:/tmp/_gbsbuild/obj/scene_7_init.rel     [ scene_7_init ]
C:/tmp/_gbsbuild/obj/scene_7_sprites.rel  [ scene_7_sprites ]
C:/tmp/_gbsbuild/obj/scene_7_triggers.rel
                                          [ scene_7_triggers ]
C:/tmp/_gbsbuild/obj/scene_7.rel          [ scene_7 ]
C:/tmp/_gbsbuild/obj/scene_8_collisions.rel
                                          [ scene_8_collisions ]
C:/tmp/_gbsbuild/obj/scene_8_init.rel     [ scene_8_init ]
C:/tmp/_gbsbuild/obj/scene_8.rel          [ scene_8 ]
C:/tmp/_gbsbuild/obj/scene_9_collisions.rel
                                          [ scene_9_collisions ]
C:/tmp/_gbsbuild/obj/scene_9_init.rel     [ scene_9_init ]
C:/tmp/_gbsbuild/obj/scene_9.rel          [ scene_9 ]
C:/tmp/_gbsbuild/obj/script_1.rel         [ script_1 ]
C:/tmp/_gbsbuild/obj/script_2.rel         [ script_2 ]
C:/tmp/_gbsbuild/obj/script_3.rel         [ script_3 ]
C:/tmp/_gbsbuild/obj/script_4.rel         [ script_4 ]
C:/tmp/_gbsbuild/obj/script_6.rel         [ script_6 ]
C:/tmp/_gbsbuild/obj/script_engine_init.rel
                                          [  ]
C:/tmp/_gbsbuild/obj/script_input_0.rel   [ script_input_0 ]
C:/tmp/_gbsbuild/obj/script_input_1.rel   [ script_input_1 ]
C:/tmp/_gbsbuild/obj/script_input_10.rel  [ script_input_10 ]
C:/tmp/_gbsbuild/obj/script_input_11.rel  [ script_input_11 ]
C:/tmp/_gbsbuild/obj/script_input_12.rel  [ script_input_12 ]
C:/tmp/_gbsbuild/obj/script_input_13.rel  [ script_input_13 ]
C:/tmp/_gbsbuild/obj/script_input_14.rel  [ script_input_14 ]
C:/tmp/_gbsbuild/obj/script_input_15.rel  [ script_input_15 ]
C:/tmp/_gbsbuild/obj/script_input_16.rel  [ script_input_16 ]
C:/tmp/_gbsbuild/obj/script_input_17.rel  [ script_input_17 ]
C:/tmp/_gbsbuild/obj/script_input_18.rel  [ script_input_18 ]
C:/tmp/_gbsbuild/obj/script_input_2.rel   [ script_input_2 ]
C:/tmp/_gbsbuild/obj/script_input_3.rel   [ script_input_3 ]
C:/tmp/_gbsbuild/obj/script_input_4.rel   [ script_input_4 ]
C:/tmp/_gbsbuild/obj/script_input_5.rel   [ script_input_5 ]
C:/tmp/_gbsbuild/obj/script_input_6.rel   [ script_input_6 ]
C:/tmp/_gbsbuild/obj/script_input_7.rel   [ script_input_7 ]
C:/tmp/_gbsbuild/obj/script_input_8.rel   [ script_input_8 ]
C:/tmp/_gbsbuild/obj/script_input_9.rel   [ script_input_9 ]
C:/tmp/_gbsbuild/obj/script_timer_0.rel   [ script_timer_0 ]
C:/tmp/_gbsbuild/obj/script_timer_1.rel   [ script_timer_1 ]
C:/tmp/_gbsbuild/obj/sound_legacy_0.rel   [ sound_legacy_0 ]
C:/tmp/_gbsbuild/obj/sound_legacy_1.rel   [ sound_legacy_1 ]
C:/tmp/_gbsbuild/obj/sound_legacy_2.rel   [ sound_legacy_2 ]
C:/tmp/_gbsbuild/obj/sound_legacy_3.rel   [ sound_legacy_3 ]
C:/tmp/_gbsbuild/obj/sprite_actor_animated_tileset.rel
                                          [ sprite_actor_animated_tileset ]
C:/tmp/_gbsbuild/obj/sprite_actor_animated.rel
                                          [ sprite_actor_animated ]
C:/tmp/_gbsbuild/obj/sprite_actor_tileset.rel
                                          [ sprite_actor_tileset ]
C:/tmp/_gbsbuild/obj/sprite_actor.rel     [ sprite_actor ]
C:/tmp/_gbsbuild/obj/sprite_arcabuz_tileset.rel
                                          [ sprite_arcabuz_tileset ]
C:/tmp/_gbsbuild/obj/sprite_arcabuz.rel   [ sprite_arcabuz ]
C:/tmp/_gbsbuild/obj/sprite_boat_life_bar_tileset.rel
                                          [ sprite_boat_life_bar_tileset ]
C:/tmp/_gbsbuild/obj/sprite_boat_life_bar.rel
                                          [ sprite_boat_life_bar ]
C:/tmp/_gbsbuild/obj/sprite_boat_life_reverse_tileset.rel
                                          [ sprite_boat_life_reverse_tileset ]
C:/tmp/_gbsbuild/obj/sprite_boat_life_reverse.rel
                                          [ sprite_boat_life_reverse ]
C:/tmp/_gbsbuild/obj/sprite_caixa_2_tileset.rel
                                          [ sprite_caixa_2_tileset ]
C:/tmp/_gbsbuild/obj/sprite_caixa_2.rel   [ sprite_caixa_2 ]
C:/tmp/_gbsbuild/obj/sprite_chefe_vila_tileset.rel
                                          [ sprite_chefe_vila_tileset ]
C:/tmp/_gbsbuild/obj/sprite_chefe_vila.rel
                                          [ sprite_chefe_vila ]
C:/tmp/_gbsbuild/obj/sprite_comerciant_1_vers_o__tileset.rel
                                          [ sprite_comerciant_1_vers_o__tile ]
C:/tmp/_gbsbuild/obj/sprite_comerciant_1_vers_o_.rel
                                          [ sprite_comerciant_1_vers_o_ ]
C:/tmp/_gbsbuild/obj/sprite_comerciant_2_vers_o__tileset.rel
                                          [ sprite_comerciant_2_vers_o__tile ]
C:/tmp/_gbsbuild/obj/sprite_comerciant_2_vers_o_.rel
                                          [ sprite_comerciant_2_vers_o_ ]
C:/tmp/_gbsbuild/obj/sprite_comerciant_vers_o_0_tileset.rel
                                          [ sprite_comerciant_vers_o_0_tiles ]
C:/tmp/_gbsbuild/obj/sprite_comerciant_vers_o_0.rel
                                          [ sprite_comerciant_vers_o_0 ]
C:/tmp/_gbsbuild/obj/sprite_comerciant_vers_o_1_tileset.rel
                                          [ sprite_comerciant_vers_o_1_tiles ]
C:/tmp/_gbsbuild/obj/sprite_comerciant_vers_o_1.rel
                                          [ sprite_comerciant_vers_o_1 ]
C:/tmp/_gbsbuild/obj/sprite_cristao_tileset.rel
                                          [ sprite_cristao_tileset ]
C:/tmp/_gbsbuild/obj/sprite_cristao.rel   [ sprite_cristao ]
C:/tmp/_gbsbuild/obj/sprite_espada_europeia_tileset.rel
                                          [ sprite_espada_europeia_tileset ]
C:/tmp/_gbsbuild/obj/sprite_espada_europeia.rel
                                          [ sprite_espada_europeia ]
C:/tmp/_gbsbuild/obj/sprite_estatua_buda_tileset.rel
                                          [ sprite_estatua_buda_tileset ]
C:/tmp/_gbsbuild/obj/sprite_estatua_buda.rel
                                          [ sprite_estatua_buda ]
C:/tmp/_gbsbuild/obj/sprite_inventory_cursor_tileset.rel
                                          [ sprite_inventory_cursor_tileset ]
C:/tmp/_gbsbuild/obj/sprite_inventory_cursor.rel
                                          [ sprite_inventory_cursor ]
C:/tmp/_gbsbuild/obj/sprite_jaula_tileset.rel
                                          [ sprite_jaula_tileset ]
C:/tmp/_gbsbuild/obj/sprite_jaula.rel     [ sprite_jaula ]
C:/tmp/_gbsbuild/obj/sprite_main_character_tileset.rel
                                          [ sprite_main_character_tileset ]
C:/tmp/_gbsbuild/obj/sprite_main_character.rel
                                          [ sprite_main_character ]
C:/tmp/_gbsbuild/obj/sprite_navio_portugues_inve_tileset.rel
                                          [ sprite_navio_portugues_inve_tile ]
C:/tmp/_gbsbuild/obj/sprite_navio_portugues_inve.rel
                                          [ sprite_navio_portugues_inve ]
C:/tmp/_gbsbuild/obj/sprite_navio_portugues_tileset.rel
                                          [ sprite_navio_portugues_tileset ]
C:/tmp/_gbsbuild/obj/sprite_navio_portugues.rel
                                          [ sprite_navio_portugues ]
C:/tmp/_gbsbuild/obj/sprite_ninja_tileset.rel
                                          [ sprite_ninja_tileset ]
C:/tmp/_gbsbuild/obj/sprite_ninja.rel     [ sprite_ninja ]
C:/tmp/_gbsbuild/obj/sprite_pirata1_tileset.rel
                                          [ sprite_pirata1_tileset ]
C:/tmp/_gbsbuild/obj/sprite_pirata1.rel   [ sprite_pirata1 ]
C:/tmp/_gbsbuild/obj/sprite_pirata2_tileset.rel
                                          [ sprite_pirata2_tileset ]
C:/tmp/_gbsbuild/obj/sprite_pirata2.rel   [ sprite_pirata2 ]
C:/tmp/_gbsbuild/obj/sprite_samurai_tileset.rel
                                          [ sprite_samurai_tileset ]
C:/tmp/_gbsbuild/obj/sprite_samurai.rel   [ sprite_samurai ]
C:/tmp/_gbsbuild/obj/sprite_skull_tileset.rel
                                          [ sprite_skull_tileset ]
C:/tmp/_gbsbuild/obj/sprite_skull.rel     [ sprite_skull ]
C:/tmp/_gbsbuild/obj/sprite_slash_placeholder_tileset.rel
                                          [ sprite_slash_placeholder_tileset ]
C:/tmp/_gbsbuild/obj/sprite_slash_placeholder.rel
                                          [ sprite_slash_placeholder ]
C:/tmp/_gbsbuild/obj/sprite_static_tileset.rel
                                          [ sprite_static_tileset ]
C:/tmp/_gbsbuild/obj/sprite_static.rel    [ sprite_static ]
C:/tmp/_gbsbuild/obj/sprite_tradutor_tileset.rel
                                          [ sprite_tradutor_tileset ]
C:/tmp/_gbsbuild/obj/sprite_tradutor.rel  [ sprite_tradutor ]
C:/tmp/_gbsbuild/obj/sprite_tripulante1_tileset.rel
                                          [ sprite_tripulante1_tileset ]
C:/tmp/_gbsbuild/obj/sprite_tripulante1.rel
                                          [ sprite_tripulante1 ]
C:/tmp/_gbsbuild/obj/sprite_tripulante2_tileset.rel
                                          [ sprite_tripulante2_tileset ]
C:/tmp/_gbsbuild/obj/sprite_tripulante2.rel
                                          [ sprite_tripulante2 ]
C:/tmp/_gbsbuild/obj/sprite_yipper_tileset.rel
                                          [ sprite_yipper_tileset ]
C:/tmp/_gbsbuild/obj/sprite_yipper.rel    [ sprite_yipper ]
C:/tmp/_gbsbuild/obj/spritesheet_none.rel
                                          [ spritesheet_none ]
C:/tmp/_gbsbuild/obj/trigger_0_interact.rel
                                          [ trigger_0_interact ]
C:/tmp/_gbsbuild/obj/trigger_1_interact.rel
                                          [ trigger_1_interact ]
C:/tmp/_gbsbuild/obj/trigger_10_interact.rel
                                          [ trigger_10_interact ]
C:/tmp/_gbsbuild/obj/trigger_11_interact.rel
                                          [ trigger_11_interact ]
C:/tmp/_gbsbuild/obj/trigger_12_interact.rel
                                          [ trigger_12_interact ]
C:/tmp/_gbsbuild/obj/trigger_13_interact.rel
                                          [ trigger_13_interact ]
C:/tmp/_gbsbuild/obj/trigger_14_interact.rel
                                          [ trigger_14_interact ]
C:/tmp/_gbsbuild/obj/trigger_15_interact.rel
                                          [ trigger_15_interact ]
C:/tmp/_gbsbuild/obj/trigger_16_interact.rel
                                          [ trigger_16_interact ]
C:/tmp/_gbsbuild/obj/trigger_17_interact.rel
                                          [ trigger_17_interact ]
C:/tmp/_gbsbuild/obj/trigger_18_interact.rel
                                          [ trigger_18_interact ]
C:/tmp/_gbsbuild/obj/trigger_19_interact.rel
                                          [ trigger_19_interact ]
C:/tmp/_gbsbuild/obj/trigger_2_interact.rel
                                          [ trigger_2_interact ]
C:/tmp/_gbsbuild/obj/trigger_20_interact.rel
                                          [ trigger_20_interact ]
C:/tmp/_gbsbuild/obj/trigger_21_interact.rel
                                          [ trigger_21_interact ]
C:/tmp/_gbsbuild/obj/trigger_22_interact.rel
                                          [ trigger_22_interact ]
C:/tmp/_gbsbuild/obj/trigger_23_interact.rel
                                          [ trigger_23_interact ]
C:/tmp/_gbsbuild/obj/trigger_24_interact.rel
                                          [ trigger_24_interact ]
C:/tmp/_gbsbuild/obj/trigger_25_interact.rel
                                          [ trigger_25_interact ]
C:/tmp/_gbsbuild/obj/trigger_26_interact.rel
                                          [ trigger_26_interact ]
C:/tmp/_gbsbuild/obj/trigger_27_interact.rel
                                          [ trigger_27_interact ]
C:/tmp/_gbsbuild/obj/trigger_28_interact.rel
                                          [ trigger_28_interact ]
C:/tmp/_gbsbuild/obj/trigger_29_interact.rel
                                          [ trigger_29_interact ]
C:/tmp/_gbsbuild/obj/trigger_3_interact.rel
                                          [ trigger_3_interact ]
C:/tmp/_gbsbuild/obj/trigger_30_interact.rel
                                          [ trigger_30_interact ]
C:/tmp/_gbsbuild/obj/trigger_31_interact.rel
                                          [ trigger_31_interact ]
C:/tmp/_gbsbuild/obj/trigger_32_interact.rel
                                          [ trigger_32_interact ]
C:/tmp/_gbsbuild/obj/trigger_33_interact.rel
                                          [ trigger_33_interact ]
C:/tmp/_gbsbuild/obj/trigger_34_interact.rel
                                          [ trigger_34_interact ]
C:/tmp/_gbsbuild/obj/trigger_35_interact.rel
                                          [ trigger_35_interact ]
C:/tmp/_gbsbuild/obj/trigger_36_interact.rel
                                          [ trigger_36_interact ]
C:/tmp/_gbsbuild/obj/trigger_37_interact.rel
                                          [ trigger_37_interact ]
C:/tmp/_gbsbuild/obj/trigger_38_interact.rel
                                          [ trigger_38_interact ]
C:/tmp/_gbsbuild/obj/trigger_39_interact.rel
                                          [ trigger_39_interact ]
C:/tmp/_gbsbuild/obj/trigger_4_interact.rel
                                          [ trigger_4_interact ]
C:/tmp/_gbsbuild/obj/trigger_40_interact.rel
                                          [ trigger_40_interact ]
C:/tmp/_gbsbuild/obj/trigger_41_interact.rel
                                          [ trigger_41_interact ]
C:/tmp/_gbsbuild/obj/trigger_42_interact.rel
                                          [ trigger_42_interact ]
C:/tmp/_gbsbuild/obj/trigger_43_interact.rel
                                          [ trigger_43_interact ]
C:/tmp/_gbsbuild/obj/trigger_44_interact.rel
                                          [ trigger_44_interact ]
C:/tmp/_gbsbuild/obj/trigger_5_interact.rel
                                          [ trigger_5_interact ]
C:/tmp/_gbsbuild/obj/trigger_6_interact.rel
                                          [ trigger_6_interact ]
C:/tmp/_gbsbuild/obj/trigger_7_interact.rel
                                          [ trigger_7_interact ]
C:/tmp/_gbsbuild/obj/trigger_8_interact.rel
                                          [ trigger_8_interact ]
C:/tmp/_gbsbuild/obj/trigger_9_interact.rel
                                          [ trigger_9_interact ]
C:/tmp/_gbsbuild/obj/main.rel             [ main ]
C:/tmp/_gbsbuild/obj/adventure.rel        [ adventure ]
C:/tmp/_gbsbuild/obj/logo.rel             [ logo ]
C:/tmp/_gbsbuild/obj/platform.rel         [ platform ]
C:/tmp/_gbsbuild/obj/pointnclick.rel      [ pointnclick ]
C:/tmp/_gbsbuild/obj/shmup.rel            [ shmup ]
C:/tmp/_gbsbuild/obj/states_ptrs.rel      [  ]
C:/tmp/_gbsbuild/obj/topdown.rel          [ topdown ]


Libraries Linked                          [ object file ]

C:\tmp/_gbstools/gbdk/lib/gb/gb.lib       [ fill_rect_wi.o ]
C:\tmp/_gbstools/gbdk/lib/sm83/sm83.lib   [ rand.o ]
lib/hUGEDriver.lib                        [ hUGEDriver.o ]
C:\tmp/_gbstools/gbdk/lib/gb/gb.lib       [ sfr.o ]
C:\tmp/_gbstools/gbdk/lib/gb/gb.lib       [ get_data.o ]
C:\tmp/_gbstools/gbdk/lib/gb/gb.lib       [ get_tile.o ]
C:\tmp/_gbstools/gbdk/lib/gb/gb.lib       [ metasprites_hide_spr.o ]
C:\tmp/_gbstools/gbdk/lib/sm83/sm83.lib   [ mul.o ]
C:\tmp/_gbstools/gbdk/lib/gb/gb.lib       [ set_tile.o ]
C:\tmp/_gbstools/gbdk/lib/sm83/sm83.lib   [ abs.o ]
C:\tmp/_gbstools/gbdk/lib/gb/gb.lib       [ set_wi_t.o ]
C:\tmp/_gbstools/gbdk/lib/gb/gb.lib       [ set_data.o ]
C:\tmp/_gbstools/gbdk/lib/sm83/sm83.lib   [ reverse.o ]
C:\tmp/_gbstools/gbdk/lib/gb/gb.lib       [ far_ptr.o ]
C:\tmp/_gbstools/gbdk/lib/gb/gb.lib       [ sgb.o ]
C:\tmp/_gbstools/gbdk/lib/gb/gb.lib       [ lcd.o ]
C:\tmp/_gbstools/gbdk/lib/gb/gb.lib       [ fill_rect.o ]
C:\tmp/_gbstools/gbdk/lib/gb/gb.lib       [ cpy_data.o ]
C:\tmp/_gbstools/gbdk/lib/gb/gb.lib       [ fill_rect_bk.o ]
C:\tmp/_gbstools/gbdk/lib/gb/gb.lib       [ pad.o ]
C:\tmp/_gbstools/gbdk/lib/gb/gb.lib       [ metasprites.o ]
C:\tmp/_gbstools/gbdk/lib/sm83/sm83.lib   [ __sdcc_call_hl.o ]
C:\tmp/_gbstools/gbdk/lib/sm83/sm83.lib   [ memcpy.o ]
C:\tmp/_gbstools/gbdk/lib/sm83/sm83.lib   [ _memset.o ]
C:\tmp/_gbstools/gbdk/lib/gb/gb.lib       [ set_xy_t.o ]
C:\tmp/_gbstools/gbdk/lib/gb/gb.lib       [ ___sdcc_bcall_ehl.o ]
C:\tmp/_gbstools/gbdk/lib/sm83/sm83.lib   [ div.o ]
C:\tmp/_gbstools/gbdk/lib/gb/gb.lib       [ set_bk_t.o ]

ASxxxx Linker V03.00/V05.40 + sdld,  page 84.

User Base Address Definitions

_DATA=0xC0A0
_CODE=0x0200
ASxxxx Linker V03.00/V05.40 + sdld,  page 85.

User Global Definitions

.STACK=0xDF00
_shadow_OAM=0xC000
.refresh_OAM=0xFF80
__start_save=12

