ASxxxx Linker V03.00/V05.40 + sdld,  page 1.
Hexadecimal  [32-Bits]

Area                                    Addr        Size        Decimal Bytes (Attributes)
--------------------------------        ----        ----        ------- ----- ------------
.  .ABS.                            00000000    00000000 =           0. bytes (ABS,CON)

      Value  Global                              Global Defined In Module
      -----  --------------------------------   ------------------------
     00000000  .__.ABS.                           
     00000000  _rRAMG                             
     00000000  l__BASE                         
     00000000  l__BSS                          
     00000000  l__CABS                         
     00000000  l__CODE_0                       
     00000000  l__CRASH_HEADER                 
     00000000  l__CRASH_SCRATCH                
     00000000  l__DABS                         
     00000000  l__HEADER                       
     00000000  l__HEADER_LCD                   
     00000000  l__HEADER_SIO                   
     00000000  l__HEADER_TIMER                 
     00000000  l__HEAP                         
     00000000  l__HEAP_END                     
     00000000  l__HRAM                         
     00000000  l__LIT                          
     00000000  s__CABS                         
     00000000  s__CRASH_HEADER                 
     00000000  s__CRASH_HEADER0                
     00000000  s__CRASH_HEADER1                
     00000000  s__CRASH_SCRATCH                
     00000000  s__CRASH_SCRATCH2               
     00000000  s__DABS                         
     00000000  s__HEADER                       
     00000000  s__HEADER0                      
     00000000  s__HEADER1                      
     00000000  s__HEADER10                     
     00000000  s__HEADER11                     
     00000000  s__HEADER2                      
     00000000  s__HEADER3                      
     00000000  s__HEADER4                      
     00000000  s__HEADER5                      
     00000000  s__HEADER6                      
     00000000  s__HEADER7                      
     00000000  s__HEADER8                      
     00000000  s__HEADER9                      
     00000000  s__HEADER_LCD                   
     00000000  s__HEADER_LCD0                  
     00000000  s__HEADER_SIO                   
     00000000  s__HEADER_SIO0                  
     00000000  s__HEADER_TIMER                 
     00000000  s__HEADER_TIMER0                
     00000000  s__HEADERa                      
     00000000  s__HEADERb                      
     00000000  s__HEADERc                      
     00000000  s__HEADERd                      
     00000000  s__HEADERe                      
     00000000  s__HEADERf                      
     00000000  s__HRAM                         
ASxxxx Linker V03.00/V05.40 + sdld,  page 2.
Hexadecimal  [32-Bits]

Area                                    Addr        Size        Decimal Bytes (Attributes)
--------------------------------        ----        ----        ------- ----- ------------
.  .ABS.                            00000000    00000000 =           0. bytes (ABS,CON)

      Value  Global                              Global Defined In Module
      -----  --------------------------------   ------------------------
     00000000  s__HRAM12                       
     00000001  ___bank_VM_SGB                     vm_sgb
     00000001  ___bank_bg_barco_a_sair_do_porto   bg_barco_a_sair_do_porto_til
     00000001  ___bank_bg_boatdeath_tileset       bg_boatdeath_tileset
     00000001  ___bank_palette_0                  palette_0
     00000001  ___bank_trigger_49_interact        trigger_49_interact
     00000001  ___mute_mask_sound_legacy_0        sound_legacy_0
     00000001  ___mute_mask_sound_legacy_1        sound_legacy_1
     00000001  ___mute_mask_sound_legacy_2        sound_legacy_2
     00000001  b_shmup_init                       shmup
     00000001  b_shmup_update                     shmup
     00000001  b_ui_draw_frame                    ui
     00000001  b_ui_draw_text_buffer_char         ui
     00000001  b_ui_init                          ui
     00000001  b_ui_load_tiles                    ui
     00000001  b_ui_run_menu                      ui
     00000001  b_ui_run_modal                     ui
     00000001  b_ui_set_start_tile                ui
     00000001  l__GSFINAL                      
     00000001  l__HEADER0                      
     00000001  l__HEADER5                      
     00000001  l__HEADERa                      
     00000001  l__HEADERb                      
     00000001  l__HEADERc                      
     00000001  l__HEADERe                      
     00000001  l__HEADERf                      
     00000002  ___bank_bg_cutscene_badending_ti   bg_cutscene_badending_tilese
     00000002  ___bank_bg_cutscene_fan_final_ti   bg_cutscene_fan_final_tilese
     00000002  ___bank_palette_1                  palette_1
     00000002  ___bank_scene_39_init              scene_39_init
     00000002  ___bank_song_hewillgetyou_Data     song_hewillgetyou_Data
     00000002  ___mute_mask_sound_bump_vgm        sound_bump_vgm
     00000002  ___mute_mask_sound_hurt_vgm        sound_hurt_vgm
     00000002  ___mute_mask_sound_menu_out_vgm    sound_menu_out_vgm
     00000002  ___mute_mask_sound_pause_vgm       sound_pause_vgm
     00000002  l__HEADER10                     
     00000002  l__HEADER6                      
     00000002  l__HEADERd                      
     00000003  ___bank_VM_CAMERA                  vm_camera
     00000003  ___bank_VM_MAIN                    vm
     00000003  ___bank_bg_main_menu_tileset       bg_main_menu_tileset
     00000003  ___bank_bg_piratedeath_tileset     bg_piratedeath_tileset
     00000003  b_camera_init                      camera
     00000003  b_camera_shake_frames              vm_camera
     00000003  b_script_detach_hthread            vm
     00000003  b_script_execute                   vm
     00000003  b_script_runner_init               vm
     00000003  b_script_terminate                 vm
     00000003  b_vm_call                          vm
     00000003  b_vm_call_far                      vm
     00000003  b_vm_camera_move_to                vm_camera
ASxxxx Linker V03.00/V05.40 + sdld,  page 3.
Hexadecimal  [32-Bits]

Area                                    Addr        Size        Decimal Bytes (Attributes)
--------------------------------        ----        ----        ------- ----- ------------
.  .ABS.                            00000000    00000000 =           0. bytes (ABS,CON)

      Value  Global                              Global Defined In Module
      -----  --------------------------------   ------------------------
     00000003  b_vm_camera_set_pos                vm_camera
     00000003  b_vm_get_indirect                  vm
     00000003  b_vm_get_tlocal                    vm
     00000003  b_vm_idle                          vm
     00000003  b_vm_if                            vm
     00000003  b_vm_if_const                      vm
     00000003  b_vm_init_rng                      vm
     00000003  b_vm_invoke                        vm
     00000003  b_vm_join                          vm
     00000003  b_vm_jump                          vm
     00000003  b_vm_lock                          vm
     00000003  b_vm_loop                          vm
     00000003  b_vm_memcpy                        vm
     00000003  b_vm_memset                        vm
     00000003  b_vm_poll_loaded                   vm
     00000003  b_vm_pop                           vm
     00000003  b_vm_push                          vm
     00000003  b_vm_push_reference                vm
     00000003  b_vm_push_value                    vm
     00000003  b_vm_push_value_ind                vm
     00000003  b_vm_raise                         vm
     00000003  b_vm_rand                          vm
     00000003  b_vm_reserve                       vm
     00000003  b_vm_ret                           vm
     00000003  b_vm_ret_far                       vm
     00000003  b_vm_set                           vm
     00000003  b_vm_set_const                     vm
     00000003  b_vm_set_indirect                  vm
     00000003  b_vm_terminate                     vm
     00000003  b_vm_test_terminate                vm
     00000003  b_vm_unlock                        vm
     00000003  b_wait_frames                      vm
     00000003  l__HEADER9                      
     00000003  l__HEADER_LCD0                  
     00000003  l__HRAM12                       
     00000004  ___bank_bg_credits_tilemap         bg_credits_tilemap
     00000004  ___bank_bg_title_screen_tileset    bg_title_screen_tileset
     00000004  ___bank_font_gbs_mono              font_gbs_mono
     00000004  ___bank_scene_10_sprites           scene_10_sprites
     00000004  b_platform_init                    platform
     00000004  b_platform_update                  platform
     00000004  l__CRASH_HEADER1                
     00000004  l__HEADER_SIO0                  
     00000004  l__HEADER_TIMER0                
     00000005  ___bank_ACTOR                      actor
     00000005  ___bank_VM_ACTOR                   vm_actor
     00000005  ___bank_bg_pirateboat3_tileset     bg_pirateboat3_tileset
     00000005  ___bank_scene_12_sprites           scene_12_sprites
     00000005  ___bank_song_villaginarroun_Data   song_villaginarroun_Data
     00000005  b_activate_actor                   actor
     00000005  b_activate_actors_in_col           actor
ASxxxx Linker V03.00/V05.40 + sdld,  page 4.
Hexadecimal  [32-Bits]

Area                                    Addr        Size        Decimal Bytes (Attributes)
--------------------------------        ----        ----        ------- ----- ------------
.  .ABS.                            00000000    00000000 =           0. bytes (ABS,CON)

      Value  Global                              Global Defined In Module
      -----  --------------------------------   ------------------------
     00000005  b_activate_actors_in_row           actor
     00000005  b_actor_at_tile                    actor
     00000005  b_actor_get_frame_offset           actor
     00000005  b_actor_in_front_of_player         actor
     00000005  b_actor_overlapping_bb             actor
     00000005  b_actor_overlapping_player         actor
     00000005  b_actor_set_anim_idle              actor
     00000005  b_actor_set_anim_moving            actor
     00000005  b_actor_set_dir                    actor
     00000005  b_actor_set_frame_offset           actor
     00000005  b_actor_set_frames                 actor
     00000005  b_actors_handle_player_collision   actor
     00000005  b_actors_init                      actor
     00000005  b_check_collision_in_direction     actor
     00000005  b_deactivate_actor                 actor
     00000005  b_player_init                      actor
     00000005  b_vm_actor_activate                vm_actor
     00000005  b_vm_actor_begin_update            vm_actor
     00000005  b_vm_actor_deactivate              vm_actor
     00000005  b_vm_actor_emote                   vm_actor
     00000005  b_vm_actor_get_angle               vm_actor
     00000005  b_vm_actor_get_anim_frame          vm_actor
     00000005  b_vm_actor_get_dir                 vm_actor
     00000005  b_vm_actor_get_pos                 vm_actor
     00000005  b_vm_actor_move_cancel             vm_actor
     00000005  b_vm_actor_move_to                 vm_actor
     00000005  b_vm_actor_replace_tile            vm_actor
     00000005  b_vm_actor_set_anim                vm_actor
     00000005  b_vm_actor_set_anim_frame          vm_actor
     00000005  b_vm_actor_set_anim_set            vm_actor
     00000005  b_vm_actor_set_anim_tick           vm_actor
     00000005  b_vm_actor_set_bounds              vm_actor
     00000005  b_vm_actor_set_dir                 vm_actor
     00000005  b_vm_actor_set_flags               vm_actor
     00000005  b_vm_actor_set_move_speed          vm_actor
     00000005  b_vm_actor_set_pos                 vm_actor
     00000005  b_vm_actor_set_spritesheet         vm_actor
     00000005  b_vm_actor_set_spritesheet_by_re   vm_actor
     00000005  b_vm_actor_terminate_update        vm_actor
     00000005  l__CRASH_HEADER0                
     00000005  l__HEADER1                      
     00000006  ___bank_bg_diningroom_tileset      bg_diningroom_tileset
     00000006  ___bank_bg_pausa_fixed_tileset     bg_pausa_fixed_tileset
     00000006  ___bank_bg_skeleton_back_tilemap   bg_skeleton_back_tilemap
     00000006  ___bank_scene_18_sprites           scene_18_sprites
     00000006  ___bank_scene_27_collisions        scene_27_collisions
     00000006  ___bank_scene_7_collisions         scene_7_collisions
     00000006  ___bank_song_main_menu_Data        song_main_menu_Data
     00000006  l__HEADER8                      
     00000007  ___bank_VM_RTC                     vm_rtc
     00000007  ___bank_actor_46_interact          actor_46_interact
ASxxxx Linker V03.00/V05.40 + sdld,  page 5.
Hexadecimal  [32-Bits]

Area                                    Addr        Size        Decimal Bytes (Attributes)
--------------------------------        ----        ----        ------- ----- ------------
.  .ABS.                            00000000    00000000 =           0. bytes (ABS,CON)

      Value  Global                              Global Defined In Module
      -----  --------------------------------   ------------------------
     00000007  ___bank_bg_cutscene_entrance_til   bg_cutscene_entrance_tileset
     00000007  ___bank_bg_cutscene_ingame_tiles   bg_cutscene_ingame_tileset
     00000007  ___bank_bg_cutscene_lanternas2_t   bg_cutscene_lanternas2_tiles
     00000007  ___bank_bg_inventory_chief_tiles   bg_inventory_chief_tileset
     00000007  ___bank_bg_skeleton_back_tileset   bg_skeleton_back_tileset
     00000007  b_vm_rtc_get                       vm_rtc
     00000007  b_vm_rtc_latch                     vm_rtc
     00000007  b_vm_rtc_set                       vm_rtc
     00000007  b_vm_rtc_start                     vm_rtc
     00000007  l__HEADER2                      
     00000008  ___bank_scene_13_sprites           scene_13_sprites
     00000008  ___bank_scene_32_init              scene_32_init
     00000008  ___bank_song_di_logo_ou_neutrali   song_di_logo_ou_neutralidad_
     00000008  ___bank_song_explorar_vila_Data    song_explorar_vila_Data
     00000008  ___bank_song_final_Data            song_final_Data
     00000008  ___bank_song_m_sica_tensa_Data     song_m_sica_tensa_Data
     00000008  ___bank_song_navega_o_Data         song_navega_o_Data
     00000008  ___bank_song_song_template_Data    song_song_template_Data
     00000008  ___mute_mask_sound_legacy_3        sound_legacy_3
     00000008  ___mute_mask_sound_legacy_4        sound_legacy_4
     00000008  ___mute_mask_sound_legacy_5        sound_legacy_5
     00000008  ___mute_mask_sound_sword_slash_v   sound_sword_slash_vgm
     00000008  l__HEADER3                      
     00000009  ___bank_actor_58_interact          actor_58_interact
     00000009  ___bank_bg_credits_tileset         bg_credits_tileset
     00000009  ___bank_bg_inventory_samurai_til   bg_inventory_samurai_tileset
     00000009  ___bank_bg_portuguese_boat_befor   bg_portuguese_boat_before_ti
     00000009  ___bank_bg_portugueseboat_tilese   bg_portugueseboat_tileset
     00000009  ___bank_bg_vila_2_tileset          bg_vila_2_tileset
     00000009  ___bank_scene_0_init               scene_0_init
     00000009  ___bank_song_tenso_2_Data          song_tenso_2_Data
     0000000A  ___bank_bg_becodeath_tileset       bg_becodeath_tileset
     0000000A  ___bank_bg_crows_nest_tileset      bg_crows_nest_tileset
     0000000A  ___bank_bg_vila_1_tileset          bg_vila_1_tileset
     0000000A  ___bank_script_2                   script_2
     0000000A  ___bank_script_timer_0             script_timer_0
     0000000A  b_adventure_init                   adventure
     0000000A  b_adventure_update                 adventure
     0000000A  b_do_load_palette                  data_manager
     0000000A  b_load_background                  data_manager
     0000000A  b_load_bkg_tileset                 data_manager
     0000000A  b_load_bounds                      data_manager
     0000000A  b_load_emote                       data_manager
     0000000A  b_load_init                        data_manager
     0000000A  b_load_player                      data_manager
     0000000A  b_load_scene                       data_manager
     0000000A  b_load_sprite                      data_manager
     0000000A  b_projectile_launch                projectiles
     0000000A  b_projectiles_init                 projectiles
     0000000A  b_scroll_init                      scroll
     0000000A  b_scroll_repaint                   scroll
ASxxxx Linker V03.00/V05.40 + sdld,  page 6.
Hexadecimal  [32-Bits]

Area                                    Addr        Size        Decimal Bytes (Attributes)
--------------------------------        ----        ----        ------- ----- ------------
.  .ABS.                            00000000    00000000 =           0. bytes (ABS,CON)

      Value  Global                              Global Defined In Module
      -----  --------------------------------   ------------------------
     0000000A  b_scroll_reset                     scroll
     0000000A  b_scroll_update                    scroll
     0000000A  b_topdown_init                     topdown
     0000000A  b_topdown_update                   topdown
     0000000B  ___bank_VM_GAMEBOY                 vm_gameboy
     0000000B  ___bank_VM_UI                      vm_ui
     0000000B  ___bank_actor_37_interact          actor_37_interact
     0000000B  ___bank_actor_51_interact          actor_51_interact
     0000000B  ___bank_actor_64_interact          actor_64_interact
     0000000B  ___bank_bg_chief_entrance_tilese   bg_chief_entrance_tileset
     0000000B  ___bank_bg_docas_tileset           bg_docas_tileset
     0000000B  ___bank_bg_logo_tileset            bg_logo_tileset
     0000000B  ___bank_bg_portuguese_boat_cutsc   bg_portuguese_boat_cutscene_
     0000000B  ___bank_bg_vila_2_tilemap          bg_vila_2_tilemap
     0000000B  ___bank_scene_4_collisions         scene_4_collisions
     0000000B  ___bank_script_input_6             script_input_6
     0000000B  b_core_reset                       core
     0000000B  b_core_run                         core
     0000000B  b_data_clear                       load_save
     0000000B  b_data_init                        load_save
     0000000B  b_data_load                        load_save
     0000000B  b_data_peek                        load_save
     0000000B  b_data_save                        load_save
     0000000B  b_trigger_activate_at              trigger
     0000000B  b_trigger_activate_at_intersecti   trigger
     0000000B  b_trigger_at_intersection          trigger
     0000000B  b_trigger_at_tile                  trigger
     0000000B  b_trigger_interact                 trigger
     0000000B  b_trigger_reset                    trigger
     0000000B  b_vm_choice                        vm_ui
     0000000B  b_vm_context_prepare               vm_gameboy
     0000000B  b_vm_display_text                  vm_ui
     0000000B  b_vm_fade                          vm_gameboy
     0000000B  b_vm_get_tile_xy                   vm_gameboy
     0000000B  b_vm_input_attach                  vm_gameboy
     0000000B  b_vm_input_detach                  vm_gameboy
     0000000B  b_vm_input_get                     vm_gameboy
     0000000B  b_vm_input_wait                    vm_gameboy
     0000000B  b_vm_load_tileset                  vm_gameboy
     0000000B  b_vm_overlay_clear                 vm_ui
     0000000B  b_vm_overlay_move_to               vm_ui
     0000000B  b_vm_overlay_scroll                vm_ui
     0000000B  b_vm_overlay_set_map               vm_ui
     0000000B  b_vm_overlay_set_scroll            vm_ui
     0000000B  b_vm_overlay_set_submap            vm_ui
     0000000B  b_vm_overlay_set_submap_ex         vm_ui
     0000000B  b_vm_overlay_setpos                vm_ui
     0000000B  b_vm_overlay_show                  vm_ui
     0000000B  b_vm_overlay_wait                  vm_ui
     0000000B  b_vm_poll                          vm_gameboy
     0000000B  b_vm_replace_tile                  vm_gameboy
ASxxxx Linker V03.00/V05.40 + sdld,  page 7.
Hexadecimal  [32-Bits]

Area                                    Addr        Size        Decimal Bytes (Attributes)
--------------------------------        ----        ----        ------- ----- ------------
.  .ABS.                            00000000    00000000 =           0. bytes (ABS,CON)

      Value  Global                              Global Defined In Module
      -----  --------------------------------   ------------------------
     0000000B  b_vm_replace_tile_xy               vm_gameboy
     0000000B  b_vm_rumble                        vm_gameboy
     0000000B  b_vm_set_font                      vm_ui
     0000000B  b_vm_set_sprite_mode               vm_gameboy
     0000000B  b_vm_set_sprites_visible           vm_gameboy
     0000000B  b_vm_set_text_sound                vm_ui
     0000000B  b_vm_switch_text_layer             vm_ui
     0000000B  b_vm_timer_prepare                 vm_gameboy
     0000000B  b_vm_timer_reset                   vm_gameboy
     0000000B  b_vm_timer_set                     vm_gameboy
     0000000B  b_vm_timer_stop                    vm_gameboy
     0000000C  ___bank_VM_SIO                     vm_sio
     0000000C  ___bank_actor_38_update            actor_38_update
     0000000C  ___bank_actor_60_interact          actor_60_interact
     0000000C  ___bank_bg_docas_tilemap           bg_docas_tilemap
     0000000C  ___bank_bg_placeholder_tileset     bg_placeholder_tileset
     0000000C  ___bank_bg_vila_1_tilemap          bg_vila_1_tilemap
     0000000C  ___bank_scene_10_init              scene_10_init
     0000000C  ___bank_scene_16_collisions        scene_16_collisions
     0000000C  ___bank_scene_17_collisions        scene_17_collisions
     0000000C  ___bank_scene_19_collisions        scene_19_collisions
     0000000C  ___bank_scene_30_collisions        scene_30_collisions
     0000000C  ___bank_scene_42_collisions        scene_42_collisions
     0000000C  ___bank_sprite_chefe_vila_tilese   sprite_chefe_vila_tileset
     0000000C  ___bank_sprite_main_character_ti   sprite_main_character_tilese
     0000000C  ___bank_sprite_ninja_tileset       sprite_ninja_tileset
     0000000C  ___bank_sprite_pirata2_tileset     sprite_pirata2_tileset
     0000000C  ___bank_sprite_tripulante1_tiles   sprite_tripulante1_tileset
     0000000C  ___bank_sprite_tripulante2_tiles   sprite_tripulante2_tileset
     0000000C  b___HandleCrash_banked             
     0000000C  b_atan2                            math_atan2
     0000000C  b_gbprinter_detect                 gbprinter
     0000000C  b_gbprinter_print_overlay          gbprinter
     0000000C  b_pointnclick_init                 pointnclick
     0000000C  b_pointnclick_update               pointnclick
     0000000C  b_vm_sio_exchange                  vm_sio
     0000000C  b_vm_sio_set_mode                  vm_sio
     0000000D  ___bank_actor_20_update            actor_20_update
     0000000D  ___bank_actor_31_interact          actor_31_interact
     0000000D  ___bank_actor_73_interact          actor_73_interact
     0000000D  ___bank_actor_76_interact          actor_76_interact
     0000000D  ___bank_actor_95_interact          actor_95_interact
     0000000D  ___bank_bg_beco_tilemap            bg_beco_tilemap
     0000000D  ___bank_bg_beco_tileset            bg_beco_tileset
     0000000D  ___bank_bg_pirateboat3_tilemap     bg_pirateboat3_tilemap
     0000000D  ___bank_bg_portuguese_boat_befor   bg_portuguese_boat_before_ti
     0000000D  ___bank_bg_portugueseboat_tilema   bg_portugueseboat_tilemap
     0000000D  ___bank_scene_12_collisions        scene_12_collisions
     0000000D  ___bank_scene_13_init              scene_13_init
     0000000D  ___bank_scene_14_collisions        scene_14_collisions
     0000000D  ___bank_scene_18_collisions        scene_18_collisions
ASxxxx Linker V03.00/V05.40 + sdld,  page 8.
Hexadecimal  [32-Bits]

Area                                    Addr        Size        Decimal Bytes (Attributes)
--------------------------------        ----        ----        ------- ----- ------------
.  .ABS.                            00000000    00000000 =           0. bytes (ABS,CON)

      Value  Global                              Global Defined In Module
      -----  --------------------------------   ------------------------
     0000000D  ___bank_scene_19_actors            scene_19_actors
     0000000D  ___bank_scene_24_collisions        scene_24_collisions
     0000000D  ___bank_scene_25_collisions        scene_25_collisions
     0000000D  ___bank_scene_34_init              scene_34_init
     0000000D  ___bank_scene_40_actors            scene_40_actors
     0000000D  ___bank_scene_40_collisions        scene_40_collisions
     0000000D  ___bank_scene_41_collisions        scene_41_collisions
     0000000D  ___bank_scene_46_actors            scene_46_actors
     0000000D  ___bank_scene_46_collisions        scene_46_collisions
     0000000D  ___bank_scene_6_collisions         scene_6_collisions
     0000000D  ___bank_sound_legacy_0             sound_legacy_0
     0000000D  ___bank_sprite_samurai_tileset     sprite_samurai_tileset
     0000000D  ___bank_sprite_tradutor_tileset    sprite_tradutor_tileset
     0000000D  ___bank_trigger_46_interact        trigger_46_interact
     0000000D  b_fade_applypalettechange          fade_manager
     0000000D  b_fade_in                          fade_manager
     0000000D  b_fade_in_modal                    fade_manager
     0000000D  b_fade_init                        fade_manager
     0000000D  b_fade_out                         fade_manager
     0000000D  b_fade_out_modal                   fade_manager
     0000000D  b_fade_setspeed                    fade_manager
     0000000D  b_fade_update                      fade_manager
     0000000D  b_set_sgb_border                   sgb_border
     0000000E  ___bank_actor_12_interact          actor_12_interact
     0000000E  ___bank_actor_13_interact          actor_13_interact
     0000000E  ___bank_actor_14_interact          actor_14_interact
     0000000E  ___bank_actor_15_interact          actor_15_interact
     0000000E  ___bank_actor_29_interact          actor_29_interact
     0000000E  ___bank_actor_39_update            actor_39_update
     0000000E  ___bank_actor_47_interact          actor_47_interact
     0000000E  ___bank_actor_49_interact          actor_49_interact
     0000000E  ___bank_actor_59_interact          actor_59_interact
     0000000E  ___bank_bg_barco_a_sair_do_porto   bg_barco_a_sair_do_porto_til
     0000000E  ___bank_bg_becodeath_tilemap       bg_becodeath_tilemap
     0000000E  ___bank_bg_boatdeath_tilemap       bg_boatdeath_tilemap
     0000000E  ___bank_bg_chief_entrance_tilema   bg_chief_entrance_tilemap
     0000000E  ___bank_bg_crows_nest_tilemap      bg_crows_nest_tilemap
     0000000E  ___bank_bg_cutscene_badending_ti   bg_cutscene_badending_tilema
     0000000E  ___bank_bg_cutscene_entrance_til   bg_cutscene_entrance_tilemap
     0000000E  ___bank_bg_cutscene_fan_final_ti   bg_cutscene_fan_final_tilema
     0000000E  ___bank_bg_cutscene_ingame_tilem   bg_cutscene_ingame_tilemap
     0000000E  ___bank_bg_cutscene_lanternas2_t   bg_cutscene_lanternas2_tilem
     0000000E  ___bank_bg_diningroom_tilemap      bg_diningroom_tilemap
     0000000E  ___bank_bg_inventory_chief_tilem   bg_inventory_chief_tilemap
     0000000E  ___bank_bg_inventory_samurai_til   bg_inventory_samurai_tilemap
     0000000E  ___bank_bg_logo_tilemap            bg_logo_tilemap
     0000000E  ___bank_bg_main_menu_tilemap       bg_main_menu_tilemap
     0000000E  ___bank_bg_pausa_fixed_tilemap     bg_pausa_fixed_tilemap
     0000000E  ___bank_bg_piratedeath_tilemap     bg_piratedeath_tilemap
     0000000E  ___bank_bg_placeholder_tilemap     bg_placeholder_tilemap
     0000000E  ___bank_bg_portuguese_boat_cutsc   bg_portuguese_boat_cutscene_
ASxxxx Linker V03.00/V05.40 + sdld,  page 9.
Hexadecimal  [32-Bits]

Area                                    Addr        Size        Decimal Bytes (Attributes)
--------------------------------        ----        ----        ------- ----- ------------
.  .ABS.                            00000000    00000000 =           0. bytes (ABS,CON)

      Value  Global                              Global Defined In Module
      -----  --------------------------------   ------------------------
     0000000E  ___bank_bg_title_screen_tilemap    bg_title_screen_tilemap
     0000000E  ___bank_scene_0_collisions         scene_0_collisions
     0000000E  ___bank_scene_10_collisions        scene_10_collisions
     0000000E  ___bank_scene_11_collisions        scene_11_collisions
     0000000E  ___bank_scene_12_actors            scene_12_actors
     0000000E  ___bank_scene_13_collisions        scene_13_collisions
     0000000E  ___bank_scene_15_collisions        scene_15_collisions
     0000000E  ___bank_scene_1_collisions         scene_1_collisions
     0000000E  ___bank_scene_2_collisions         scene_2_collisions
     0000000E  ___bank_scene_33_init              scene_33_init
     0000000E  ___bank_sprite_espanhol_og_tiles   sprite_espanhol_og_tileset
     0000000E  ___bank_sprite_pirata1_tileset     sprite_pirata1_tileset
     0000000E  ___bank_sprite_slash_placeholder   sprite_slash_placeholder_til
     0000000E  ___bank_trigger_47_interact        trigger_47_interact
     0000000E  ___bank_trigger_48_interact        trigger_48_interact
     0000000F  ___bank_VM_MATH                    vm_math
     0000000F  ___bank_VM_MUSIC                   vm_music
     0000000F  ___bank_VM_PALETTE                 vm_palette
     0000000F  ___bank_actor_104_interact         actor_104_interact
     0000000F  ___bank_actor_105_interact         actor_105_interact
     0000000F  ___bank_actor_19_update            actor_19_update
     0000000F  ___bank_actor_22_update            actor_22_update
     0000000F  ___bank_actor_24_update            actor_24_update
     0000000F  ___bank_actor_30_update            actor_30_update
     0000000F  ___bank_actor_32_interact          actor_32_interact
     0000000F  ___bank_actor_34_interact          actor_34_interact
     0000000F  ___bank_actor_68_interact          actor_68_interact
     0000000F  ___bank_actor_74_interact          actor_74_interact
     0000000F  ___bank_actor_75_interact          actor_75_interact
     0000000F  ___bank_actor_86_interact          actor_86_interact
     0000000F  ___bank_actor_89_interact          actor_89_interact
     0000000F  ___bank_actor_96_interact          actor_96_interact
     0000000F  ___bank_actor_97_interact          actor_97_interact
     0000000F  ___bank_scene_16_init              scene_16_init
     0000000F  ___bank_scene_20_collisions        scene_20_collisions
     0000000F  ___bank_scene_21_collisions        scene_21_collisions
     0000000F  ___bank_scene_22_collisions        scene_22_collisions
     0000000F  ___bank_scene_22_init              scene_22_init
     0000000F  ___bank_scene_23_collisions        scene_23_collisions
     0000000F  ___bank_scene_26_collisions        scene_26_collisions
     0000000F  ___bank_scene_28_collisions        scene_28_collisions
     0000000F  ___bank_scene_29_collisions        scene_29_collisions
     0000000F  ___bank_scene_31_collisions        scene_31_collisions
     0000000F  ___bank_scene_32_collisions        scene_32_collisions
     0000000F  ___bank_scene_33_collisions        scene_33_collisions
     0000000F  ___bank_scene_34_collisions        scene_34_collisions
     0000000F  ___bank_scene_35_collisions        scene_35_collisions
     0000000F  ___bank_scene_36_collisions        scene_36_collisions
     0000000F  ___bank_scene_37_collisions        scene_37_collisions
     0000000F  ___bank_scene_38_collisions        scene_38_collisions
     0000000F  ___bank_scene_39_collisions        scene_39_collisions
ASxxxx Linker V03.00/V05.40 + sdld,  page 10.
Hexadecimal  [32-Bits]

Area                                    Addr        Size        Decimal Bytes (Attributes)
--------------------------------        ----        ----        ------- ----- ------------
.  .ABS.                            00000000    00000000 =           0. bytes (ABS,CON)

      Value  Global                              Global Defined In Module
      -----  --------------------------------   ------------------------
     0000000F  ___bank_scene_3_collisions         scene_3_collisions
     0000000F  ___bank_scene_42_init              scene_42_init
     0000000F  ___bank_scene_43_collisions        scene_43_collisions
     0000000F  ___bank_scene_44_collisions        scene_44_collisions
     0000000F  ___bank_scene_5_collisions         scene_5_collisions
     0000000F  ___bank_scene_8_collisions         scene_8_collisions
     0000000F  ___bank_scene_9_collisions         scene_9_collisions
     0000000F  ___bank_script_3                   script_3
     0000000F  ___bank_script_6                   script_6
     0000000F  ___bank_sprite_actor_animated_ti   sprite_actor_animated_tilese
     0000000F  ___bank_sprite_boat_life_bar_til   sprite_boat_life_bar_tileset
     0000000F  ___bank_sprite_boat_life_reverse   sprite_boat_life_reverse_til
     0000000F  ___bank_sprite_main_character      sprite_main_character
     0000000F  ___bank_trigger_71_interact        trigger_71_interact
     0000000F  b_logo_init                        logo
     0000000F  b_logo_update                      logo
     0000000F  b_vm_cos_scale                     vm_math
     0000000F  b_vm_load_palette                  vm_palette
     0000000F  b_vm_music_mute                    vm_music
     0000000F  b_vm_music_play                    vm_music
     0000000F  b_vm_music_routine                 vm_music
     0000000F  b_vm_music_setpos                  vm_music
     0000000F  b_vm_music_stop                    vm_music
     0000000F  b_vm_sfx_play                      vm_music
     0000000F  b_vm_sin_scale                     vm_math
     0000000F  b_vm_sound_mastervol               vm_music
     00000010  ___bank_VM_GBPRINTER               vm_gbprinter
     00000010  ___bank_VM_LOAD_SAVE               vm_load_save
     00000010  ___bank_VM_PROJECTILE              vm_projectiles
     00000010  ___bank_VM_SCENE                   vm_scene
     00000010  ___bank_actor_102_interact         actor_102_interact
     00000010  ___bank_actor_103_interact         actor_103_interact
     00000010  ___bank_actor_14_update            actor_14_update
     00000010  ___bank_actor_43_update            actor_43_update
     00000010  ___bank_actor_48_interact          actor_48_interact
     00000010  ___bank_actor_50_interact          actor_50_interact
     00000010  ___bank_actor_84_interact          actor_84_interact
     00000010  ___bank_actor_85_interact          actor_85_interact
     00000010  ___bank_actor_88_interact          actor_88_interact
     00000010  ___bank_frame_image                frame_image
     00000010  ___bank_scene_11_init              scene_11_init
     00000010  ___bank_scene_14_actors            scene_14_actors
     00000010  ___bank_scene_16_actors            scene_16_actors
     00000010  ___bank_scene_17_actors            scene_17_actors
     00000010  ___bank_scene_17_init              scene_17_init
     00000010  ___bank_scene_18_actors            scene_18_actors
     00000010  ___bank_scene_19_init              scene_19_init
     00000010  ___bank_scene_21_actors            scene_21_actors
     00000010  ___bank_scene_21_init              scene_21_init
     00000010  ___bank_scene_22_actors            scene_22_actors
     00000010  ___bank_scene_24_actors            scene_24_actors
ASxxxx Linker V03.00/V05.40 + sdld,  page 11.
Hexadecimal  [32-Bits]

Area                                    Addr        Size        Decimal Bytes (Attributes)
--------------------------------        ----        ----        ------- ----- ------------
.  .ABS.                            00000000    00000000 =           0. bytes (ABS,CON)

      Value  Global                              Global Defined In Module
      -----  --------------------------------   ------------------------
     00000010  ___bank_scene_24_p_hit1            scene_24_p_hit1
     00000010  ___bank_scene_26_init              scene_26_init
     00000010  ___bank_scene_29_init              scene_29_init
     00000010  ___bank_scene_30_init              scene_30_init
     00000010  ___bank_scene_31_actors            scene_31_actors
     00000010  ___bank_scene_31_init              scene_31_init
     00000010  ___bank_scene_39_actors            scene_39_actors
     00000010  ___bank_scene_40_init              scene_40_init
     00000010  ___bank_scene_41_init              scene_41_init
     00000010  ___bank_scene_42_actors            scene_42_actors
     00000010  ___bank_scene_43_actors            scene_43_actors
     00000010  ___bank_scene_43_init              scene_43_init
     00000010  ___bank_scene_44_init              scene_44_init
     00000010  ___bank_scene_6_actors             scene_6_actors
     00000010  ___bank_sound_menu_out_vgm         sound_menu_out_vgm
     00000010  ___bank_sprite_actor_animated      sprite_actor_animated
     00000010  ___bank_sprite_actor_tileset       sprite_actor_tileset
     00000010  ___bank_sprite_chefe_vila          sprite_chefe_vila
     00000010  ___bank_sprite_comerciante1_1_ti   sprite_comerciante1_1_tilese
     00000010  ___bank_sprite_comerciante1_2_ti   sprite_comerciante1_2_tilese
     00000010  ___bank_sprite_comerciante2_1_ti   sprite_comerciante2_1_tilese
     00000010  ___bank_sprite_espanhol_og         sprite_espanhol_og
     00000010  ___bank_sprite_franciscano_og_ti   sprite_franciscano_og_tilese
     00000010  ___bank_sprite_ninja               sprite_ninja
     00000010  ___bank_sprite_pirata1             sprite_pirata1
     00000010  ___bank_sprite_pirata2             sprite_pirata2
     00000010  ___bank_sprite_samurai             sprite_samurai
     00000010  ___bank_sprite_slash_placeholder   sprite_slash_placeholder
     00000010  ___bank_sprite_tradutor            sprite_tradutor
     00000010  ___bank_sprite_tripulante1         sprite_tripulante1
     00000010  ___bank_sprite_tripulante2         sprite_tripulante2
     00000010  ___bank_trigger_10_interact        trigger_10_interact
     00000010  ___bank_trigger_11_interact        trigger_11_interact
     00000010  ___bank_trigger_12_interact        trigger_12_interact
     00000010  ___bank_trigger_13_interact        trigger_13_interact
     00000010  ___bank_trigger_14_interact        trigger_14_interact
     00000010  ___bank_trigger_16_interact        trigger_16_interact
     00000010  ___bank_trigger_19_interact        trigger_19_interact
     00000010  ___bank_trigger_27_interact        trigger_27_interact
     00000010  ___bank_trigger_29_interact        trigger_29_interact
     00000010  ___bank_trigger_2_interact         trigger_2_interact
     00000010  ___bank_trigger_30_interact        trigger_30_interact
     00000010  ___bank_trigger_31_interact        trigger_31_interact
     00000010  ___bank_trigger_32_interact        trigger_32_interact
     00000010  ___bank_trigger_33_interact        trigger_33_interact
     00000010  ___bank_trigger_34_interact        trigger_34_interact
     00000010  ___bank_trigger_35_interact        trigger_35_interact
     00000010  ___bank_trigger_36_interact        trigger_36_interact
     00000010  ___bank_trigger_37_interact        trigger_37_interact
     00000010  ___bank_trigger_38_interact        trigger_38_interact
     00000010  ___bank_trigger_39_interact        trigger_39_interact
ASxxxx Linker V03.00/V05.40 + sdld,  page 12.
Hexadecimal  [32-Bits]

Area                                    Addr        Size        Decimal Bytes (Attributes)
--------------------------------        ----        ----        ------- ----- ------------
.  .ABS.                            00000000    00000000 =           0. bytes (ABS,CON)

      Value  Global                              Global Defined In Module
      -----  --------------------------------   ------------------------
     00000010  ___bank_trigger_40_interact        trigger_40_interact
     00000010  ___bank_trigger_4_interact         trigger_4_interact
     00000010  ___bank_trigger_5_interact         trigger_5_interact
     00000010  ___bank_trigger_63_interact        trigger_63_interact
     00000010  ___bank_trigger_67_interact        trigger_67_interact
     00000010  ___bank_trigger_6_interact         trigger_6_interact
     00000010  ___bank_trigger_7_interact         trigger_7_interact
     00000010  ___bank_trigger_8_interact         trigger_8_interact
     00000010  ___bank_trigger_9_interact         trigger_9_interact
     00000010  b_erase_flash                      
     00000010  b_itoa_fmt                         vm_ui_a
     00000010  b_music_events_poll                music_manager
     00000010  b_music_init_driver                music_manager
     00000010  b_music_init_events                music_manager
     00000010  b_save_sram_banks                  
     00000010  b_vm_print_detect                  vm_gbprinter
     00000010  b_vm_print_overlay                 vm_gbprinter
     00000010  b_vm_projectile_launch             vm_projectiles
     00000010  b_vm_projectile_load_type          vm_projectiles
     00000010  b_vm_save_clear                    vm_load_save
     00000010  b_vm_save_peek                     vm_load_save
     00000010  b_vm_scene_pop                     vm_scene
     00000010  b_vm_scene_pop_all                 vm_scene
     00000010  b_vm_scene_push                    vm_scene
     00000010  b_vm_scene_stack_reset             vm_scene
     00000011  ___bank_actor_100_interact         actor_100_interact
     00000011  ___bank_actor_101_interact         actor_101_interact
     00000011  ___bank_actor_106_update           actor_106_update
     00000011  ___bank_actor_13_update            actor_13_update
     00000011  ___bank_actor_15_update            actor_15_update
     00000011  ___bank_actor_18_update            actor_18_update
     00000011  ___bank_actor_21_update            actor_21_update
     00000011  ___bank_actor_23_update            actor_23_update
     00000011  ___bank_actor_25_update            actor_25_update
     00000011  ___bank_actor_26_interact          actor_26_interact
     00000011  ___bank_actor_33_update            actor_33_update
     00000011  ___bank_actor_35_update            actor_35_update
     00000011  ___bank_actor_37_update            actor_37_update
     00000011  ___bank_actor_45_update            actor_45_update
     00000011  ___bank_actor_4_update             actor_4_update
     00000011  ___bank_actor_53_update            actor_53_update
     00000011  ___bank_actor_54_update            actor_54_update
     00000011  ___bank_actor_55_update            actor_55_update
     00000011  ___bank_actor_56_update            actor_56_update
     00000011  ___bank_actor_57_update            actor_57_update
     00000011  ___bank_actor_63_interact          actor_63_interact
     00000011  ___bank_actor_65_interact          actor_65_interact
     00000011  ___bank_actor_66_interact          actor_66_interact
     00000011  ___bank_actor_67_interact          actor_67_interact
     00000011  ___bank_actor_69_update            actor_69_update
     00000011  ___bank_actor_70_interact          actor_70_interact
ASxxxx Linker V03.00/V05.40 + sdld,  page 13.
Hexadecimal  [32-Bits]

Area                                    Addr        Size        Decimal Bytes (Attributes)
--------------------------------        ----        ----        ------- ----- ------------
.  .ABS.                            00000000    00000000 =           0. bytes (ABS,CON)

      Value  Global                              Global Defined In Module
      -----  --------------------------------   ------------------------
     00000011  ___bank_actor_71_interact          actor_71_interact
     00000011  ___bank_actor_76_update            actor_76_update
     00000011  ___bank_actor_77_update            actor_77_update
     00000011  ___bank_actor_78_interact          actor_78_interact
     00000011  ___bank_actor_79_interact          actor_79_interact
     00000011  ___bank_actor_80_interact          actor_80_interact
     00000011  ___bank_actor_81_update            actor_81_update
     00000011  ___bank_actor_82_update            actor_82_update
     00000011  ___bank_actor_83_update            actor_83_update
     00000011  ___bank_actor_87_interact          actor_87_interact
     00000011  ___bank_actor_90_update            actor_90_update
     00000011  ___bank_actor_91_interact          actor_91_interact
     00000011  ___bank_actor_92_interact          actor_92_interact
     00000011  ___bank_actor_94_update            actor_94_update
     00000011  ___bank_actor_99_interact          actor_99_interact
     00000011  ___bank_actor_9_update             actor_9_update
     00000011  ___bank_emote_anger                emote_anger
     00000011  ___bank_emote_music                emote_music
     00000011  ___bank_emote_pause                emote_pause
     00000011  ___bank_emote_question             emote_question
     00000011  ___bank_emote_shock                emote_shock
     00000011  ___bank_scene_0                    scene_0
     00000011  ___bank_scene_1                    scene_1
     00000011  ___bank_scene_10                   scene_10
     00000011  ___bank_scene_10_actors            scene_10_actors
     00000011  ___bank_scene_11                   scene_11
     00000011  ___bank_scene_12                   scene_12
     00000011  ___bank_scene_12_init              scene_12_init
     00000011  ___bank_scene_13                   scene_13
     00000011  ___bank_scene_13_actors            scene_13_actors
     00000011  ___bank_scene_14                   scene_14
     00000011  ___bank_scene_14_init              scene_14_init
     00000011  ___bank_scene_15                   scene_15
     00000011  ___bank_scene_15_init              scene_15_init
     00000011  ___bank_scene_16                   scene_16
     00000011  ___bank_scene_17                   scene_17
     00000011  ___bank_scene_18                   scene_18
     00000011  ___bank_scene_19                   scene_19
     00000011  ___bank_scene_1_init               scene_1_init
     00000011  ___bank_scene_2                    scene_2
     00000011  ___bank_scene_20                   scene_20
     00000011  ___bank_scene_20_actors            scene_20_actors
     00000011  ___bank_scene_20_init              scene_20_init
     00000011  ___bank_scene_21                   scene_21
     00000011  ___bank_scene_22                   scene_22
     00000011  ___bank_scene_23                   scene_23
     00000011  ___bank_scene_23_init              scene_23_init
     00000011  ___bank_scene_24                   scene_24
     00000011  ___bank_scene_25                   scene_25
     00000011  ___bank_scene_25_actors            scene_25_actors
     00000011  ___bank_scene_26                   scene_26
ASxxxx Linker V03.00/V05.40 + sdld,  page 14.
Hexadecimal  [32-Bits]

Area                                    Addr        Size        Decimal Bytes (Attributes)
--------------------------------        ----        ----        ------- ----- ------------
.  .ABS.                            00000000    00000000 =           0. bytes (ABS,CON)

      Value  Global                              Global Defined In Module
      -----  --------------------------------   ------------------------
     00000011  ___bank_scene_27                   scene_27
     00000011  ___bank_scene_27_actors            scene_27_actors
     00000011  ___bank_scene_27_init              scene_27_init
     00000011  ___bank_scene_27_triggers          scene_27_triggers
     00000011  ___bank_scene_28                   scene_28
     00000011  ___bank_scene_29                   scene_29
     00000011  ___bank_scene_29_actors            scene_29_actors
     00000011  ___bank_scene_3                    scene_3
     00000011  ___bank_scene_30                   scene_30
     00000011  ___bank_scene_30_actors            scene_30_actors
     00000011  ___bank_scene_30_sprites           scene_30_sprites
     00000011  ___bank_scene_31                   scene_31
     00000011  ___bank_scene_32                   scene_32
     00000011  ___bank_scene_32_actors            scene_32_actors
     00000011  ___bank_scene_33                   scene_33
     00000011  ___bank_scene_34                   scene_34
     00000011  ___bank_scene_35                   scene_35
     00000011  ___bank_scene_35_init              scene_35_init
     00000011  ___bank_scene_36                   scene_36
     00000011  ___bank_scene_37                   scene_37
     00000011  ___bank_scene_38                   scene_38
     00000011  ___bank_scene_39                   scene_39
     00000011  ___bank_scene_4                    scene_4
     00000011  ___bank_scene_40                   scene_40
     00000011  ___bank_scene_41                   scene_41
     00000011  ___bank_scene_41_actors            scene_41_actors
     00000011  ___bank_scene_42                   scene_42
     00000011  ___bank_scene_43                   scene_43
     00000011  ___bank_scene_44                   scene_44
     00000011  ___bank_scene_44_actors            scene_44_actors
     00000011  ___bank_scene_46                   scene_46
     00000011  ___bank_scene_46_init              scene_46_init
     00000011  ___bank_scene_4_init               scene_4_init
     00000011  ___bank_scene_5                    scene_5
     00000011  ___bank_scene_5_actors             scene_5_actors
     00000011  ___bank_scene_5_init               scene_5_init
     00000011  ___bank_scene_6                    scene_6
     00000011  ___bank_scene_6_init               scene_6_init
     00000011  ___bank_scene_7                    scene_7
     00000011  ___bank_scene_7_actors             scene_7_actors
     00000011  ___bank_scene_7_init               scene_7_init
     00000011  ___bank_scene_7_triggers           scene_7_triggers
     00000011  ___bank_scene_8                    scene_8
     00000011  ___bank_scene_9                    scene_9
     00000011  ___bank_script_4                   script_4
     00000011  ___bank_script_engine_init         
     00000011  ___bank_script_input_0             script_input_0
     00000011  ___bank_script_input_1             script_input_1
     00000011  ___bank_script_input_10            script_input_10
     00000011  ___bank_script_input_12            script_input_12
     00000011  ___bank_script_input_13            script_input_13
ASxxxx Linker V03.00/V05.40 + sdld,  page 15.
Hexadecimal  [32-Bits]

Area                                    Addr        Size        Decimal Bytes (Attributes)
--------------------------------        ----        ----        ------- ----- ------------
.  .ABS.                            00000000    00000000 =           0. bytes (ABS,CON)

      Value  Global                              Global Defined In Module
      -----  --------------------------------   ------------------------
     00000011  ___bank_script_input_14            script_input_14
     00000011  ___bank_script_input_15            script_input_15
     00000011  ___bank_script_input_16            script_input_16
     00000011  ___bank_script_input_17            script_input_17
     00000011  ___bank_script_input_18            script_input_18
     00000011  ___bank_script_input_19            script_input_19
     00000011  ___bank_script_input_2             script_input_2
     00000011  ___bank_script_input_20            script_input_20
     00000011  ___bank_script_input_21            script_input_21
     00000011  ___bank_script_input_22            script_input_22
     00000011  ___bank_script_input_23            script_input_23
     00000011  ___bank_script_input_24            script_input_24
     00000011  ___bank_script_input_25            script_input_25
     00000011  ___bank_script_input_26            script_input_26
     00000011  ___bank_script_input_27            script_input_27
     00000011  ___bank_script_input_28            script_input_28
     00000011  ___bank_script_input_29            script_input_29
     00000011  ___bank_script_input_3             script_input_3
     00000011  ___bank_script_input_30            script_input_30
     00000011  ___bank_script_input_31            script_input_31
     00000011  ___bank_script_input_7             script_input_7
     00000011  ___bank_script_input_8             script_input_8
     00000011  ___bank_script_timer_1             script_timer_1
     00000011  ___bank_sound_hurt_vgm             sound_hurt_vgm
     00000011  ___bank_sound_legacy_4             sound_legacy_4
     00000011  ___bank_sound_legacy_5             sound_legacy_5
     00000011  ___bank_sound_pause_vgm            sound_pause_vgm
     00000011  ___bank_sprite_actor               sprite_actor
     00000011  ___bank_sprite_arcabuz             sprite_arcabuz
     00000011  ___bank_sprite_arcabuz_tileset     sprite_arcabuz_tileset
     00000011  ___bank_sprite_boat_life_bar       sprite_boat_life_bar
     00000011  ___bank_sprite_boat_life_reverse   sprite_boat_life_reverse
     00000011  ___bank_sprite_caixa_1             sprite_caixa_1
     00000011  ___bank_sprite_caixa_1_tileset     sprite_caixa_1_tileset
     00000011  ___bank_sprite_comerciante1_1      sprite_comerciante1_1
     00000011  ___bank_sprite_comerciante1_2      sprite_comerciante1_2
     00000011  ___bank_sprite_comerciante2_1      sprite_comerciante2_1
     00000011  ___bank_sprite_comerciante2_2      sprite_comerciante2_2
     00000011  ___bank_sprite_comerciante2_2_ti   sprite_comerciante2_2_tilese
     00000011  ___bank_sprite_espada_europeia     sprite_espada_europeia
     00000011  ___bank_sprite_espada_europeia_t   sprite_espada_europeia_tiles
     00000011  ___bank_sprite_estatua_buda        sprite_estatua_buda
     00000011  ___bank_sprite_franciscano_og      sprite_franciscano_og
     00000011  ___bank_sprite_gunpointer          sprite_gunpointer
     00000011  ___bank_sprite_gunpointer_tilese   sprite_gunpointer_tileset
     00000011  ___bank_sprite_inventory_cursor    sprite_inventory_cursor
     00000011  ___bank_sprite_inventory_cursor_   sprite_inventory_cursor_tile
     00000011  ___bank_sprite_kunai               sprite_kunai
     00000011  ___bank_sprite_kunai_tileset       sprite_kunai_tileset
     00000011  ___bank_sprite_navio_portugues     sprite_navio_portugues
     00000011  ___bank_sprite_navio_portugues_i   sprite_navio_portugues_inve
ASxxxx Linker V03.00/V05.40 + sdld,  page 16.
Hexadecimal  [32-Bits]

Area                                    Addr        Size        Decimal Bytes (Attributes)
--------------------------------        ----        ----        ------- ----- ------------
.  .ABS.                            00000000    00000000 =           0. bytes (ABS,CON)

      Value  Global                              Global Defined In Module
      -----  --------------------------------   ------------------------
     00000011  ___bank_sprite_navio_portugues_i   sprite_navio_portugues_inve_
     00000011  ___bank_sprite_navio_portugues_t   sprite_navio_portugues_tiles
     00000011  ___bank_sprite_samurai1            sprite_samurai1
     00000011  ___bank_sprite_samurai1_tileset    sprite_samurai1_tileset
     00000011  ___bank_sprite_skull               sprite_skull
     00000011  ___bank_sprite_skull_tileset       sprite_skull_tileset
     00000011  ___bank_sprite_sprite_level_23_c   sprite_sprite_level_23_cris
     00000011  ___bank_sprite_sprite_level_23_c   sprite_sprite_level_23_cris_
     00000011  ___bank_sprite_sprite_level_4_ni   sprite_sprite_level_4_ninja
     00000011  ___bank_sprite_sprite_level_4_ni   sprite_sprite_level_4_ninja_
     00000011  ___bank_sprite_sprite_level_cris   sprite_sprite_level_cris_0
     00000011  ___bank_sprite_sprite_level_cris   sprite_sprite_level_cris_0_t
     00000011  ___bank_sprite_static              sprite_static
     00000011  ___bank_sprite_static_tileset      sprite_static_tileset
     00000011  ___bank_sprite_yipper              sprite_yipper
     00000011  ___bank_sprite_yipper_tileset      sprite_yipper_tileset
     00000011  ___bank_trigger_0_interact         trigger_0_interact
     00000011  ___bank_trigger_15_interact        trigger_15_interact
     00000011  ___bank_trigger_17_interact        trigger_17_interact
     00000011  ___bank_trigger_18_interact        trigger_18_interact
     00000011  ___bank_trigger_1_interact         trigger_1_interact
     00000011  ___bank_trigger_20_interact        trigger_20_interact
     00000011  ___bank_trigger_21_interact        trigger_21_interact
     00000011  ___bank_trigger_22_interact        trigger_22_interact
     00000011  ___bank_trigger_23_interact        trigger_23_interact
     00000011  ___bank_trigger_25_interact        trigger_25_interact
     00000011  ___bank_trigger_26_interact        trigger_26_interact
     00000011  ___bank_trigger_28_interact        trigger_28_interact
     00000011  ___bank_trigger_3_interact         trigger_3_interact
     00000011  ___bank_trigger_41_interact        trigger_41_interact
     00000011  ___bank_trigger_42_interact        trigger_42_interact
     00000011  ___bank_trigger_44_interact        trigger_44_interact
     00000011  ___bank_trigger_50_interact        trigger_50_interact
     00000011  ___bank_trigger_51_interact        trigger_51_interact
     00000011  ___bank_trigger_52_interact        trigger_52_interact
     00000011  ___bank_trigger_55_interact        trigger_55_interact
     00000011  ___bank_trigger_56_interact        trigger_56_interact
     00000011  ___bank_trigger_57_interact        trigger_57_interact
     00000011  ___bank_trigger_58_interact        trigger_58_interact
     00000011  ___bank_trigger_59_interact        trigger_59_interact
     00000011  ___bank_trigger_60_interact        trigger_60_interact
     00000011  ___bank_trigger_61_interact        trigger_61_interact
     00000011  ___bank_trigger_64_interact        trigger_64_interact
     00000011  ___bank_trigger_65_interact        trigger_65_interact
     00000011  ___bank_trigger_66_interact        trigger_66_interact
     00000011  ___bank_trigger_68_interact        trigger_68_interact
     00000011  ___bank_trigger_70_interact        trigger_70_interact
     00000011  ___bank_trigger_72_interact        trigger_72_interact
     00000011  ___bank_trigger_73_interact        trigger_73_interact
     00000011  b_events_init                      events
     00000011  b_restore_sram                     flasher
ASxxxx Linker V03.00/V05.40 + sdld,  page 17.
Hexadecimal  [32-Bits]

Area                                    Addr        Size        Decimal Bytes (Attributes)
--------------------------------        ----        ----        ------- ----- ------------
.  .ABS.                            00000000    00000000 =           0. bytes (ABS,CON)

      Value  Global                              Global Defined In Module
      -----  --------------------------------   ------------------------
     00000011  b_restore_sram_bank                flasher
     00000011  b_save_sram                        flasher
     00000011  b_scroll_rect                      
     00000011  b_timers_init                      events
     00000012  ___bank_actor_10_interact          actor_10_interact
     00000012  ___bank_actor_10_update            actor_10_update
     00000012  ___bank_actor_19_interact          actor_19_interact
     00000012  ___bank_actor_1_interact           actor_1_interact
     00000012  ___bank_actor_1_update             actor_1_update
     00000012  ___bank_actor_20_interact          actor_20_interact
     00000012  ___bank_actor_22_interact          actor_22_interact
     00000012  ___bank_actor_2_interact           actor_2_interact
     00000012  ___bank_actor_2_update             actor_2_update
     00000012  ___bank_actor_30_interact          actor_30_interact
     00000012  ___bank_actor_3_interact           actor_3_interact
     00000012  ___bank_actor_3_update             actor_3_update
     00000012  ___bank_actor_40_interact          actor_40_interact
     00000012  ___bank_actor_41_interact          actor_41_interact
     00000012  ___bank_actor_42_interact          actor_42_interact
     00000012  ___bank_actor_52_interact          actor_52_interact
     00000012  ___bank_actor_5_interact           actor_5_interact
     00000012  ___bank_actor_5_update             actor_5_update
     00000012  ___bank_actor_60_update            actor_60_update
     00000012  ___bank_actor_61_interact          actor_61_interact
     00000012  ___bank_actor_62_interact          actor_62_interact
     00000012  ___bank_actor_6_interact           actor_6_interact
     00000012  ___bank_actor_6_update             actor_6_update
     00000012  ___bank_actor_7_interact           actor_7_interact
     00000012  ___bank_actor_7_update             actor_7_update
     00000012  ___bank_actor_8_interact           actor_8_interact
     00000012  ___bank_actor_8_update             actor_8_update
     00000012  ___bank_bg_barco_a_sair_do_porto   bg_barco_a_sair_do_porto
     00000012  ___bank_bg_beco                    bg_beco
     00000012  ___bank_bg_becodeath               bg_becodeath
     00000012  ___bank_bg_boatdeath               bg_boatdeath
     00000012  ___bank_bg_chief_entrance          bg_chief_entrance
     00000012  ___bank_bg_credits                 bg_credits
     00000012  ___bank_bg_crows_nest              bg_crows_nest
     00000012  ___bank_bg_cutscene_badending      bg_cutscene_badending
     00000012  ___bank_bg_cutscene_entrance       bg_cutscene_entrance
     00000012  ___bank_bg_cutscene_fan_final      bg_cutscene_fan_final
     00000012  ___bank_bg_cutscene_ingame         bg_cutscene_ingame
     00000012  ___bank_bg_cutscene_lanternas2     bg_cutscene_lanternas2
     00000012  ___bank_bg_diningroom              bg_diningroom
     00000012  ___bank_bg_docas                   bg_docas
     00000012  ___bank_bg_inventory_chief         bg_inventory_chief
     00000012  ___bank_bg_inventory_samurai       bg_inventory_samurai
     00000012  ___bank_bg_logo                    bg_logo
     00000012  ___bank_bg_main_menu               bg_main_menu
     00000012  ___bank_bg_pausa_fixed             bg_pausa_fixed
     00000012  ___bank_bg_pirateboat3             bg_pirateboat3
ASxxxx Linker V03.00/V05.40 + sdld,  page 18.
Hexadecimal  [32-Bits]

Area                                    Addr        Size        Decimal Bytes (Attributes)
--------------------------------        ----        ----        ------- ----- ------------
.  .ABS.                            00000000    00000000 =           0. bytes (ABS,CON)

      Value  Global                              Global Defined In Module
      -----  --------------------------------   ------------------------
     00000012  ___bank_bg_piratedeath             bg_piratedeath
     00000012  ___bank_bg_placeholder             bg_placeholder
     00000012  ___bank_bg_portuguese_boat_befor   bg_portuguese_boat_before
     00000012  ___bank_bg_portuguese_boat_cutsc   bg_portuguese_boat_cutscene
     00000012  ___bank_bg_portugueseboat          bg_portugueseboat
     00000012  ___bank_bg_skeleton_back           bg_skeleton_back
     00000012  ___bank_bg_title_screen            bg_title_screen
     00000012  ___bank_bg_vila_1                  bg_vila_1
     00000012  ___bank_bg_vila_2                  bg_vila_2
     00000012  ___bank_bootstrap_script           
     00000012  ___bank_cursor_image               cursor_image
     00000012  ___bank_scene_14_p_hit1            scene_14_p_hit1
     00000012  ___bank_scene_14_projectiles       scene_14_projectiles
     00000012  ___bank_scene_14_sprites           scene_14_sprites
     00000012  ___bank_scene_14_triggers          scene_14_triggers
     00000012  ___bank_scene_16_sprites           scene_16_sprites
     00000012  ___bank_scene_16_triggers          scene_16_triggers
     00000012  ___bank_scene_17_sprites           scene_17_sprites
     00000012  ___bank_scene_17_triggers          scene_17_triggers
     00000012  ___bank_scene_18_init              scene_18_init
     00000012  ___bank_scene_18_triggers          scene_18_triggers
     00000012  ___bank_scene_19_sprites           scene_19_sprites
     00000012  ___bank_scene_19_triggers          scene_19_triggers
     00000012  ___bank_scene_20_sprites           scene_20_sprites
     00000012  ___bank_scene_20_triggers          scene_20_triggers
     00000012  ___bank_scene_21_sprites           scene_21_sprites
     00000012  ___bank_scene_21_triggers          scene_21_triggers
     00000012  ___bank_scene_22_sprites           scene_22_sprites
     00000012  ___bank_scene_22_triggers          scene_22_triggers
     00000012  ___bank_scene_24_init              scene_24_init
     00000012  ___bank_scene_24_projectiles       scene_24_projectiles
     00000012  ___bank_scene_24_sprites           scene_24_sprites
     00000012  ___bank_scene_24_triggers          scene_24_triggers
     00000012  ___bank_scene_25_init              scene_25_init
     00000012  ___bank_scene_25_sprites           scene_25_sprites
     00000012  ___bank_scene_25_triggers          scene_25_triggers
     00000012  ___bank_scene_27_sprites           scene_27_sprites
     00000012  ___bank_scene_28_init              scene_28_init
     00000012  ___bank_scene_29_sprites           scene_29_sprites
     00000012  ___bank_scene_29_triggers          scene_29_triggers
     00000012  ___bank_scene_2_init               scene_2_init
     00000012  ___bank_scene_30_triggers          scene_30_triggers
     00000012  ___bank_scene_31_sprites           scene_31_sprites
     00000012  ___bank_scene_31_triggers          scene_31_triggers
     00000012  ___bank_scene_32_sprites           scene_32_sprites
     00000012  ___bank_scene_32_triggers          scene_32_triggers
     00000012  ___bank_scene_36_init              scene_36_init
     00000012  ___bank_scene_37_init              scene_37_init
     00000012  ___bank_scene_38_init              scene_38_init
     00000012  ___bank_scene_39_sprites           scene_39_sprites
     00000012  ___bank_scene_3_init               scene_3_init
ASxxxx Linker V03.00/V05.40 + sdld,  page 19.
Hexadecimal  [32-Bits]

Area                                    Addr        Size        Decimal Bytes (Attributes)
--------------------------------        ----        ----        ------- ----- ------------
.  .ABS.                            00000000    00000000 =           0. bytes (ABS,CON)

      Value  Global                              Global Defined In Module
      -----  --------------------------------   ------------------------
     00000012  ___bank_scene_40_projectiles       scene_40_projectiles
     00000012  ___bank_scene_40_sprites           scene_40_sprites
     00000012  ___bank_scene_40_triggers          scene_40_triggers
     00000012  ___bank_scene_41_sprites           scene_41_sprites
     00000012  ___bank_scene_41_triggers          scene_41_triggers
     00000012  ___bank_scene_42_sprites           scene_42_sprites
     00000012  ___bank_scene_42_triggers          scene_42_triggers
     00000012  ___bank_scene_43_sprites           scene_43_sprites
     00000012  ___bank_scene_43_triggers          scene_43_triggers
     00000012  ___bank_scene_44_sprites           scene_44_sprites
     00000012  ___bank_scene_44_triggers          scene_44_triggers
     00000012  ___bank_scene_46_projectiles       scene_46_projectiles
     00000012  ___bank_scene_46_sprites           scene_46_sprites
     00000012  ___bank_scene_46_triggers          scene_46_triggers
     00000012  ___bank_scene_4_triggers           scene_4_triggers
     00000012  ___bank_scene_5_sprites            scene_5_sprites
     00000012  ___bank_scene_6_p_hit1             scene_6_p_hit1
     00000012  ___bank_scene_6_projectiles        scene_6_projectiles
     00000012  ___bank_scene_6_sprites            scene_6_sprites
     00000012  ___bank_scene_6_triggers           scene_6_triggers
     00000012  ___bank_scene_7_sprites            scene_7_sprites
     00000012  ___bank_scene_8_init               scene_8_init
     00000012  ___bank_scene_9_init               scene_9_init
     00000012  ___bank_script_1                   script_1
     00000012  ___bank_script_input_11            script_input_11
     00000012  ___bank_script_input_4             script_input_4
     00000012  ___bank_script_input_5             script_input_5
     00000012  ___bank_script_input_9             script_input_9
     00000012  ___bank_sound_bump_vgm             sound_bump_vgm
     00000012  ___bank_sound_legacy_1             sound_legacy_1
     00000012  ___bank_sound_legacy_2             sound_legacy_2
     00000012  ___bank_sound_legacy_3             sound_legacy_3
     00000012  ___bank_sound_sword_slash_vgm      sound_sword_slash_vgm
     00000012  ___bank_sprite_estatua_buda_tile   sprite_estatua_buda_tileset
     00000012  ___bank_spritesheet_none           spritesheet_none
     00000012  ___bank_trigger_24_interact        trigger_24_interact
     00000012  ___bank_trigger_43_interact        trigger_43_interact
     00000012  ___bank_trigger_45_interact        trigger_45_interact
     00000012  ___bank_trigger_54_interact        trigger_54_interact
     00000012  b_SIO_init                         sio
     00000012  b_input_init                       input
     00000012  b_palette_init                     palette
     00000012  b_parallax_init                    parallax
     00000012  b_remove_LCD_ISRs                  interrupts
     0000001A  l__INITIALIZED                  
     0000001A  l__INITIALIZER                  
     0000001C  __start_save                    
     00000027  l__GSINIT                       
     00000030  l__HEADER7                      
     00000060  l__HEADER4                      
     000000AB  l__HEADER11                     
ASxxxx Linker V03.00/V05.40 + sdld,  page 20.
Hexadecimal  [32-Bits]

Area                                    Addr        Size        Decimal Bytes (Attributes)
--------------------------------        ----        ----        ------- ----- ------------
.  .ABS.                            00000000    00000000 =           0. bytes (ABS,CON)

      Value  Global                              Global Defined In Module
      -----  --------------------------------   ------------------------
     000001CB  l__CRASH_SCRATCH2               
     00000200  s__CODE                         
     00000BE3  l__CODE_18                      
     00000E64  l__CODE                         
     00001064  s__HOME                         
     00001994  l__DATA                         
     00002000  _rROMB0                            
     00002C6F  l__HOME                         
     00003000  _rROMB1                            
     00003CD3  s__BASE                         
     00003CD3  s__CODE_0                       
     00003CD3  s__INITIALIZER                  
     00003CD3  s__LIT                          
     00003CED  s__GSINIT                       
     00003D14  s__GSFINAL                      
     00003FFE  l__CODE_14                      
     00003FFE  l__CODE_15                      
     00003FFE  l__CODE_2                       
     00003FFE  l__CODE_7                       
     00003FFF  l__CODE_11                      
     00003FFF  l__CODE_3                       
     00003FFF  l__CODE_4                       
     00003FFF  l__CODE_6                       
     00003FFF  l__CODE_8                       
     00004000  _RTC_SELECT_REG                    vm_rtc
     00004000  _rRAMB                             
     00004000  l__CODE_1                       
     00004000  l__CODE_10                      
     00004000  l__CODE_12                      
     00004000  l__CODE_13                      
     00004000  l__CODE_16                      
     00004000  l__CODE_17                      
     00004000  l__CODE_5                       
     00004000  l__CODE_9                       
     00006000  _RTC_LATCH_REG                     vm_rtc
     00008000  __VRAM                             
     00008000  __VRAM8000                         
     00008800  __VRAM8800                         
     00009000  __VRAM9000                         
     00009800  __SCRN0                            
     00009C00  __SCRN1                            
     0000A000  _RTC_VALUE_REG                     vm_rtc
     0000A000  __SRAM                             
     0000C000  __RAM                              
     0000C000  _shadow_OAM                     
     0000C0A0  s__DATA                         
     0000D000  __RAMBANK                          
     0000DA34  s__BSS                          
     0000DA34  s__INITIALIZED                  
     0000DA4E  s__HEAP                         
     0000DA4E  s__HEAP_END                     
ASxxxx Linker V03.00/V05.40 + sdld,  page 21.
Hexadecimal  [32-Bits]

Area                                    Addr        Size        Decimal Bytes (Attributes)
--------------------------------        ----        ----        ------- ----- ------------
.  .ABS.                            00000000    00000000 =           0. bytes (ABS,CON)

      Value  Global                              Global Defined In Module
      -----  --------------------------------   ------------------------
     0000DF00  .STACK                          
     0000DF00  _shadow_OAM2                       absolute
     0000DFA0  _BkgPalette                        absolute
     0000DFE0  _vwf_tile_data                     absolute
     0000FE00  __OAMRAM                           
     0000FF00  _P1_REG                            
     0000FF00  __IO                               
     0000FF01  _SB_REG                            
     0000FF02  _SC_REG                            
     0000FF04  _DIV_REG                           
     0000FF05  _TIMA_REG                          
     0000FF06  _TMA_REG                           
     0000FF07  _TAC_REG                           
     0000FF0F  _IF_REG                            
     0000FF10  _NR10_REG                          
     0000FF11  _NR11_REG                          
     0000FF12  _NR12_REG                          
     0000FF13  _NR13_REG                          
     0000FF14  _NR14_REG                          
     0000FF16  _NR21_REG                          
     0000FF17  _NR22_REG                          
     0000FF18  _NR23_REG                          
     0000FF19  _NR24_REG                          
     0000FF1A  _NR30_REG                          
     0000FF1B  _NR31_REG                          
     0000FF1C  _NR32_REG                          
     0000FF1D  _NR33_REG                          
     0000FF1E  _NR34_REG                          
     0000FF20  _NR41_REG                          
     0000FF21  _NR42_REG                          
     0000FF22  _NR43_REG                          
     0000FF23  _NR44_REG                          
     0000FF24  _NR50_REG                          
     0000FF25  _NR51_REG                          
     0000FF26  _NR52_REG                          
     0000FF30  _AUD3WAVE                          
     0000FF30  _PCM_SAMPLE                        
     0000FF30  __AUD3WAVERAM                      
     0000FF40  _LCDC_REG                          
     0000FF41  _STAT_REG                          
     0000FF42  _SCY_REG                           
     0000FF43  _SCX_REG                           
     0000FF44  _LY_REG                            
     0000FF45  _LYC_REG                           
     0000FF46  _DMA_REG                           
     0000FF47  _BGP_REG                           
     0000FF48  _OBP0_REG                          
     0000FF49  _OBP1_REG                          
     0000FF4A  _WY_REG                            
     0000FF4B  _WX_REG                            
     0000FF4D  _KEY1_REG                          
ASxxxx Linker V03.00/V05.40 + sdld,  page 22.
Hexadecimal  [32-Bits]

Area                                    Addr        Size        Decimal Bytes (Attributes)
--------------------------------        ----        ----        ------- ----- ------------
.  .ABS.                            00000000    00000000 =           0. bytes (ABS,CON)

      Value  Global                              Global Defined In Module
      -----  --------------------------------   ------------------------
     0000FF4F  _VBK_REG                           
     0000FF51  _HDMA1_REG                         
     0000FF52  _HDMA2_REG                         
     0000FF53  _HDMA3_REG                         
     0000FF54  _HDMA4_REG                         
     0000FF55  _HDMA5_REG                         
     0000FF56  _RP_REG                            
     0000FF68  _BCPS_REG                          
     0000FF69  _BCPD_REG                          
     0000FF6A  _OCPS_REG                          
     0000FF6B  _OCPD_REG                          
     0000FF70  _SVBK_REG                          
     0000FF76  _PCM12_REG                         
     0000FF77  _PCM34_REG                         
     0000FF80  .refresh_OAM                    
     0000FF80  __HRAM                             
     0000FFFF  _IE_REG                            
     00014000  s__CODE_1                       
     00024000  s__CODE_2                       
     00034000  s__CODE_3                       
     00044000  s__CODE_4                       
     00054000  s__CODE_5                       
     00064000  s__CODE_6                       
     00074000  s__CODE_7                       
     00084000  s__CODE_8                       
     00094000  s__CODE_9                       
     000A4000  s__CODE_10                      
     000B4000  s__CODE_11                      
     000C4000  s__CODE_12                      
     000D4000  s__CODE_13                      
     000E4000  s__CODE_14                      
     000F4000  s__CODE_15                      
     00104000  s__CODE_16                      
     00114000  s__CODE_17                      
     00124000  s__CODE_18                      

ASxxxx Linker V03.00/V05.40 + sdld,  page 23.
Hexadecimal  [32-Bits]

Area                                    Addr        Size        Decimal Bytes (Attributes)
--------------------------------        ----        ----        ------- ----- ------------
_CODE                               00000200    00000E64 =        3684. bytes (REL,CON)

      Value  Global                              Global Defined In Module
      -----  --------------------------------   ------------------------
     00000200  ___HandleCrash                     
     0000020A  _SIO_send_byte                     
     0000021D  _SIO_receive                       
     0000022E  _GetWinAddr                        
     00000236  _GetBkgAddr                        
     00000244  _state_init                        
     00000249  _state_update                      
     0000026B  _ui_time_masks                     
     00000273  _ui_print_shift_char               
     000002F6  _ui_draw_frame_row                 
     000002FF  .ui_draw_frame_row                 
     00000328  _script_cmds                       vm_instructions
     00000560  _save_signature                    game_signature
     00000564  _start_scene_x                     
     00000566  _start_scene_y                     
     00000568  _start_scene_dir                   
     00000569  _start_scene                       
     0000056C  _start_player_move_speed           
     0000056D  _start_player_anim_tick            
     0000056E  _ui_fonts                          
     00000571  _core_reset_hook                   main
     00000579  _main                              main
     00000581  _state_start_fns                   
     00000593  _state_update_fns                  
     000005A5  _hUGE_init                         hUGEDriver_obj
     000005A7  hUGE_init                          hUGEDriver_obj
     000005FD  _hUGE_mute_channel                 hUGEDriver_obj
     000005FF  hUGE_mute_channel                  hUGEDriver_obj
     0000084D  _hUGE_set_position                 hUGEDriver_obj
     0000084F  hUGE_set_position                  hUGEDriver_obj
     00000A14  _hUGE_dosound                      hUGEDriver_obj
     00000A14  hUGE_dosound                       hUGEDriver_obj
     00000D40  _get_vram_byte                     
     00000D48  _get_win_tile_xy                   
     00000D50  _get_bkg_tile_xy                   
     00000D77  _hide_sprites_range                Metasprites
     00000DA6  __mulsuchar                        mul
     00000DA9  __muluschar                        mul
     00000DB2  __mulschar                         mul
     00000DBA  __mulint                           mul
     00000DD9  __muluchar                         mul
     00000DEB  _set_vram_byte                     
     00000DF4  _set_win_tile_xy                   
     00000DFD  _set_bkg_tile_xy                   
     00000E2C  .sgb_check                         
     00000E2C  _sgb_check                         
     00000E74  _sgb_transfer                      
     00000E79  .sgb_transfer                      
     00000EBA  .copy_vram                         
     00000EC0  _get_data                          
ASxxxx Linker V03.00/V05.40 + sdld,  page 24.
Hexadecimal  [32-Bits]

Area                                    Addr        Size        Decimal Bytes (Attributes)
--------------------------------        ----        ----        ------- ----- ------------
_CODE                               00000200    00000E64 =        3684. bytes (REL,CON)

      Value  Global                              Global Defined In Module
      -----  --------------------------------   ------------------------
     00000EC0  _set_data                          
     00000EC0  _vmemcpy                           
     00000F0E  ___move_metasprite                 Metasprites
     00000F4B  ___memcpy                          
     00000F4B  _memcpy                            
     00000F7D  __divsuchar                        divmod
     00000F83  __modsuchar                        divmod
     00000F8C  __divuschar                        divmod
     00000F95  __moduschar                        divmod
     00000FA1  __divschar                         divmod
     00000FA6  __modschar                         divmod
     00000FAD  __divsint                          divmod
     00000FB6  __modsint                          divmod
     00000FC2  __divuchar                         divmod
     00000FC7  __moduchar                         divmod
     00000FCE  __divuint                          divmod
     00000FD7  __moduint                          divmod
     00000FE3  .div8                              divmod
     00000FE3  .mod8                              divmod
     00000FEB  .div16                             divmod
     00000FEB  .mod16                             divmod
     00001021  .divu8                             divmod
     00001021  .modu8                             divmod
     00001024  .divu16                            divmod
     00001024  .modu16                            divmod
ASxxxx Linker V03.00/V05.40 + sdld,  page 25.
Hexadecimal  [32-Bits]

Area                                    Addr        Size        Decimal Bytes (Attributes)
--------------------------------        ----        ----        ------- ----- ------------
_HEADER0                            00000000    00000001 =           1. bytes (ABS,CON)

      Value  Global                              Global Defined In Module
      -----  --------------------------------   ------------------------
     00000020  .call_hl                           Runtime

ASxxxx Linker V03.00/V05.40 + sdld,  page 26.
Hexadecimal  [32-Bits]

Area                                    Addr        Size        Decimal Bytes (Attributes)
--------------------------------        ----        ----        ------- ----- ------------
_HEADER1                            00000000    00000005 =           5. bytes (ABS,CON)

      Value  Global                              Global Defined In Module
      -----  --------------------------------   ------------------------
     00000028  .MemsetSmall                       Runtime

ASxxxx Linker V03.00/V05.40 + sdld,  page 27.
Hexadecimal  [32-Bits]

Area                                    Addr        Size        Decimal Bytes (Attributes)
--------------------------------        ----        ----        ------- ----- ------------
_HEADER2                            00000000    00000007 =           7. bytes (ABS,CON)

      Value  Global                              Global Defined In Module
      -----  --------------------------------   ------------------------
     00000030  .MemcpySmall                       Runtime

ASxxxx Linker V03.00/V05.40 + sdld,  page 28.
Hexadecimal  [32-Bits]

Area                                    Addr        Size        Decimal Bytes (Attributes)
--------------------------------        ----        ----        ------- ----- ------------
_HEADER3                            00000000    00000008 =           8. bytes (ABS,CON)

      Value  Global                              Global Defined In Module
      -----  --------------------------------   ------------------------
ASxxxx Linker V03.00/V05.40 + sdld,  page 29.
Hexadecimal  [32-Bits]

Area                                    Addr        Size        Decimal Bytes (Attributes)
--------------------------------        ----        ----        ------- ----- ------------
_HEADER4                            00000000    00000060 =          96. bytes (ABS,CON)

      Value  Global                              Global Defined In Module
      -----  --------------------------------   ------------------------
     00000080  .int                               Runtime
     0000008F  _wait_int_handler                  Runtime
     0000009C  __standard_VBL_handler             Runtime
     000000AB  _refresh_OAM                       Runtime
     000000CC  _set_interrupts                    Runtime

ASxxxx Linker V03.00/V05.40 + sdld,  page 30.
Hexadecimal  [32-Bits]

Area                                    Addr        Size        Decimal Bytes (Attributes)
--------------------------------        ----        ----        ------- ----- ------------
_HEADER5                            00000000    00000001 =           1. bytes (ABS,CON)

      Value  Global                              Global Defined In Module
      -----  --------------------------------   ------------------------
ASxxxx Linker V03.00/V05.40 + sdld,  page 31.
Hexadecimal  [32-Bits]

Area                                    Addr        Size        Decimal Bytes (Attributes)
--------------------------------        ----        ----        ------- ----- ------------
_HEADER6                            00000000    00000002 =           2. bytes (ABS,CON)

      Value  Global                              Global Defined In Module
      -----  --------------------------------   ------------------------
ASxxxx Linker V03.00/V05.40 + sdld,  page 32.
Hexadecimal  [32-Bits]

Area                                    Addr        Size        Decimal Bytes (Attributes)
--------------------------------        ----        ----        ------- ----- ------------
_HEADER7                            00000000    00000030 =          48. bytes (ABS,CON)

      Value  Global                              Global Defined In Module
      -----  --------------------------------   ------------------------
ASxxxx Linker V03.00/V05.40 + sdld,  page 33.
Hexadecimal  [32-Bits]

Area                                    Addr        Size        Decimal Bytes (Attributes)
--------------------------------        ----        ----        ------- ----- ------------
_HEADER8                            00000000    00000006 =           6. bytes (ABS,CON)

      Value  Global                              Global Defined In Module
      -----  --------------------------------   ------------------------
ASxxxx Linker V03.00/V05.40 + sdld,  page 34.
Hexadecimal  [32-Bits]

Area                                    Addr        Size        Decimal Bytes (Attributes)
--------------------------------        ----        ----        ------- ----- ------------
_HEADER9                            00000000    00000003 =           3. bytes (ABS,CON)

      Value  Global                              Global Defined In Module
      -----  --------------------------------   ------------------------
ASxxxx Linker V03.00/V05.40 + sdld,  page 35.
Hexadecimal  [32-Bits]

Area                                    Addr        Size        Decimal Bytes (Attributes)
--------------------------------        ----        ----        ------- ----- ------------
_HEADERa                            00000000    00000001 =           1. bytes (ABS,CON)

      Value  Global                              Global Defined In Module
      -----  --------------------------------   ------------------------
ASxxxx Linker V03.00/V05.40 + sdld,  page 36.
Hexadecimal  [32-Bits]

Area                                    Addr        Size        Decimal Bytes (Attributes)
--------------------------------        ----        ----        ------- ----- ------------
_HEADERb                            00000000    00000001 =           1. bytes (ABS,CON)

      Value  Global                              Global Defined In Module
      -----  --------------------------------   ------------------------
ASxxxx Linker V03.00/V05.40 + sdld,  page 37.
Hexadecimal  [32-Bits]

Area                                    Addr        Size        Decimal Bytes (Attributes)
--------------------------------        ----        ----        ------- ----- ------------
_HEADERc                            00000000    00000001 =           1. bytes (ABS,CON)

      Value  Global                              Global Defined In Module
      -----  --------------------------------   ------------------------
ASxxxx Linker V03.00/V05.40 + sdld,  page 38.
Hexadecimal  [32-Bits]

Area                                    Addr        Size        Decimal Bytes (Attributes)
--------------------------------        ----        ----        ------- ----- ------------
_HEADERd                            00000000    00000002 =           2. bytes (ABS,CON)

      Value  Global                              Global Defined In Module
      -----  --------------------------------   ------------------------
ASxxxx Linker V03.00/V05.40 + sdld,  page 39.
Hexadecimal  [32-Bits]

Area                                    Addr        Size        Decimal Bytes (Attributes)
--------------------------------        ----        ----        ------- ----- ------------
_HEADERe                            00000000    00000001 =           1. bytes (ABS,CON)

      Value  Global                              Global Defined In Module
      -----  --------------------------------   ------------------------
ASxxxx Linker V03.00/V05.40 + sdld,  page 40.
Hexadecimal  [32-Bits]

Area                                    Addr        Size        Decimal Bytes (Attributes)
--------------------------------        ----        ----        ------- ----- ------------
_HEADERf                            00000000    00000001 =           1. bytes (ABS,CON)

      Value  Global                              Global Defined In Module
      -----  --------------------------------   ------------------------
ASxxxx Linker V03.00/V05.40 + sdld,  page 41.
Hexadecimal  [32-Bits]

Area                                    Addr        Size        Decimal Bytes (Attributes)
--------------------------------        ----        ----        ------- ----- ------------
_HEADER10                           00000000    00000002 =           2. bytes (ABS,CON)

      Value  Global                              Global Defined In Module
      -----  --------------------------------   ------------------------
ASxxxx Linker V03.00/V05.40 + sdld,  page 42.
Hexadecimal  [32-Bits]

Area                                    Addr        Size        Decimal Bytes (Attributes)
--------------------------------        ----        ----        ------- ----- ------------
_HEADER11                           00000000    000000AB =         171. bytes (ABS,CON)

      Value  Global                              Global Defined In Module
      -----  --------------------------------   ------------------------
     00000150  .reset                             Runtime
     00000150  _reset                             Runtime
     00000157  .code_start                        Runtime
     000001B9  _exit                              Runtime
     000001BD  .wait_vbl_done                     Runtime
     000001BD  _vsync                             Runtime
     000001BD  _wait_vbl_done                     Runtime
     000001CD  .remove_VBL                        Runtime
     000001CD  _remove_VBL                        Runtime
     000001D0  .remove_int                        Runtime
     000001ED  .add_VBL                           Runtime
     000001ED  _add_VBL                           Runtime
     000001F0  .add_int                           Runtime

ASxxxx Linker V03.00/V05.40 + sdld,  page 43.
Hexadecimal  [32-Bits]

Area                                    Addr        Size        Decimal Bytes (Attributes)
--------------------------------        ----        ----        ------- ----- ------------
_HOME                               00001064    00002C6F =       11375. bytes (REL,CON)

      Value  Global                              Global Defined In Module
      -----  --------------------------------   ------------------------
     00001064  .memset_simple                     Runtime
     0000106D  .memcpy_simple                     Runtime
     0000108A  .display_off                       Runtime
     0000108A  _display_off                       Runtime
     000010A2  _actors_update                     actor
     000014FE  _SetBankedBkgData                  bankdata
     0000151A  _SetBankedSpriteData               bankdata
     00001536  _SetBankedBkgTiles                 bankdata
     00001552  _SetBankedWinTiles                 bankdata
     0000156E  _ReadBankedFarPtr                  bankdata
     00001590  _ReadBankedUWORD                   bankdata
     000015AA  _MemcpyBanked                      bankdata
     000015CC  _MemcpyVRAMBanked                  bankdata
     000015FB  _IndexOfFarPtr                     bankdata
     00001680  _camera_update                     camera
     000017B3  _load_animations                   data_manager
     0000180C  _events_update                     events
     000018DF  _timers_update                     events
     00001968  _input_update                      input
     0000198B  .sio_ISR                           
     000019E5  .timer_ISR                         
     000019FA  _simple_LCD_isr                    interrupts
     00001A79  _fullscreen_LCD_isr                interrupts
     00001AA5  _VBL_isr                           interrupts
     00001AEF  _isqrt                             math
     00001B4C  _sine_wave                         math
     00001C4C  _dir_lookup                        math
     00001C54  _dir_angle_lookup                  math
     00001C58  _hUGETrackerRoutine                music_manager
     00001C7F  _music_events_update               music_manager
     00001D01  _music_play_isr                    music_manager
     00001DA2  _parallax_LCD_isr                  parallax
     00001DDF  _projectiles_update                projectiles
     00002260  _projectiles_render                projectiles
     000023B5  _scroll_load_pending_row           scroll
     00002403  _scroll_load_row                   scroll
     00002443  _scroll_load_col                   scroll
     00002478  _scroll_load_pending_col           scroll
     000024C7  _set_bkg_submap                    
     0000250A  _set_xy_win_submap                 
     00002537  .set_xy_win_submap                 
     00002540  .set_xy_bkg_submap                 
     0000254F  .set_xy_submap                     
     0000259B  _sfx_play_isr                      sfx_player
     00002674  _on_SIO_receive                    sio
     000026B5  _SIO_update                        sio
     0000271C  _ui_update                         ui
     00002854  _vm_sgb_transfer                   vm_sgb
     000028A1  _vm_load_text                      vm_ui
     00002AF7  _vm_switch                         vm
ASxxxx Linker V03.00/V05.40 + sdld,  page 44.
Hexadecimal  [32-Bits]

Area                                    Addr        Size        Decimal Bytes (Attributes)
--------------------------------        ----        ----        ------- ----- ------------
_HOME                               00001064    00002C6F =       11375. bytes (REL,CON)

      Value  Global                              Global Defined In Module
      -----  --------------------------------   ------------------------
     00002C28  _vm_beginthread                    vm
     00002D4C  _vm_rpn                            vm
     00003764  _vm_get_far                        vm
     000037D2  _vm_call_native                    vm
     000037E5  _VM_STEP                           vm
     0000384F  _script_runner_update              vm
     000039B4  _fill_win_rect                     
     000039C6  _rand                              
     000039C6  _randw                             
     000039F1  _initrand                          
     000039F3  .initrand                          
     000039FC  _get_bkg_data                      
     000039FC  _get_win_data                      
     00003A49  _get_sprite_data                   
     00003A7C  _abs                               abs
     00003A89  _set_win_tiles                     
     00003A9D  _set_tile_data                     
     00003AA2  _set_bkg_data                      
     00003AA2  _set_win_data                      
     00003AAA  _set_sprite_data                   
     00003ADA  _reverse                           reverse
     00003B0E  ___call__banked                    far_ptr
     00003B2B  _to_far_ptr                        far_ptr
     00003B61  .add_LCD                           
     00003B61  _add_LCD                           
     00003B67  .remove_LCD                        
     00003B67  _remove_LCD                        
     00003B6D  .fill_rect_wtt                     
     00003B76  .fill_rect_btt                     
     00003BC3  _fill_bkg_rect                     
     00003BD5  .padup                             
     00003BD5  _waitpadup                         
     00003BE5  .jpad                              
     00003BE5  _joypad                            
     00003C0D  _waitpad                           
     00003C0E  .wait_pad                          
     00003C15  ___sdcc_call_hl                    call_hl
     00003C16  _memset                            memset
     00003C49  .set_xy_wtt                        SetTileMap
     00003C52  .set_xy_btt                        SetTileMap
     00003C61  .set_xy_tt                         SetTileMap
     00003CA5  ___sdcc_bcall_ehl                  
     00003CBF  _set_bkg_tiles                     
ASxxxx Linker V03.00/V05.40 + sdld,  page 45.
Hexadecimal  [32-Bits]

Area                                    Addr        Size        Decimal Bytes (Attributes)
--------------------------------        ----        ----        ------- ----- ------------
_INITIALIZER                        00003CD3    0000001A =          26. bytes (REL,CON)

      Value  Global                              Global Defined In Module
      -----  --------------------------------   ------------------------
ASxxxx Linker V03.00/V05.40 + sdld,  page 46.
Hexadecimal  [32-Bits]

Area                                    Addr        Size        Decimal Bytes (Attributes)
--------------------------------        ----        ----        ------- ----- ------------
_GSINIT                             00003CED    00000027 =          39. bytes (REL,CON)

      Value  Global                              Global Defined In Module
      -----  --------------------------------   ------------------------
     00003CED  gsinit                             Runtime

ASxxxx Linker V03.00/V05.40 + sdld,  page 47.
Hexadecimal  [32-Bits]

Area                                    Addr        Size        Decimal Bytes (Attributes)
--------------------------------        ----        ----        ------- ----- ------------
_GSFINAL                            00003D14    00000001 =           1. bytes (REL,CON)

      Value  Global                              Global Defined In Module
      -----  --------------------------------   ------------------------
ASxxxx Linker V03.00/V05.40 + sdld,  page 48.
Hexadecimal  [32-Bits]

Area                                    Addr        Size        Decimal Bytes (Attributes)
--------------------------------        ----        ----        ------- ----- ------------
_DATA                               0000C0A0    00001994 =        6548. bytes (REL,CON)

      Value  Global                              Global Defined In Module
      -----  --------------------------------   ------------------------
     0000C0A0  __cpu                              Runtime
     0000C0A1  __is_GBA                           Runtime
     0000C0A2  .mode                              Runtime
     0000C0A3  .sys_time                          Runtime
     0000C0A3  _sys_time                          Runtime
     0000C0A5  .int_0x40                          Runtime
     0000C0B1  _actors                            actor
     0000C4F5  _actors_active_head                actor
     0000C4F7  _actors_active_tail                actor
     0000C4F9  _actors_inactive_head              actor
     0000C4FB  _screen_x                          actor
     0000C4FC  _screen_y                          actor
     0000C4FD  _invalid                           actor
     0000C4FF  _player_moving                     actor
     0000C500  _player_iframes                    actor
     0000C501  _player_collision_actor            actor
     0000C503  _emote_actor                       actor
     0000C505  _emote_timer                       actor
     0000C506  _allocated_sprite_tiles            actor
     0000C507  _allocated_hardware_sprites        actor
     0000C514  _camera_x                          camera
     0000C516  _camera_y                          camera
     0000C518  _camera_offset_x                   camera
     0000C519  _camera_offset_y                   camera
     0000C51A  _camera_deadzone_x                 camera
     0000C51B  _camera_deadzone_y                 camera
     0000C51C  _camera_settings                   camera
     0000C520  _current_scene                     data_manager
     0000C523  _image_bank                        data_manager
     0000C524  _image_ptr                         data_manager
     0000C526  _image_attr_bank                   data_manager
     0000C527  _image_attr_ptr                    data_manager
     0000C529  _collision_bank                    data_manager
     0000C52A  _collision_ptr                     data_manager
     0000C52C  _image_tile_width                  data_manager
     0000C52D  _image_tile_height                 data_manager
     0000C52E  _image_width                       data_manager
     0000C530  _image_height                      data_manager
     0000C532  _sprites_len                       data_manager
     0000C533  _actors_len                        data_manager
     0000C534  _projectiles_len                   data_manager
     0000C535  _player_sprite_len                 data_manager
     0000C536  _scene_type                        data_manager
     0000C537  _scene_LCD_type                    data_manager
     0000C538  _scene_stack                       data_manager
     0000C578  _scene_stack_ptr                   data_manager
     0000C57A  _scene_sprites_base_tiles          data_manager
     0000C5BA  _input_events                      events
     0000C5E2  _input_slots                       events
     0000C5EA  _timer_events                      events
ASxxxx Linker V03.00/V05.40 + sdld,  page 49.
Hexadecimal  [32-Bits]

Area                                    Addr        Size        Decimal Bytes (Attributes)
--------------------------------        ----        ----        ------- ----- ------------
_DATA                               0000C0A0    00001994 =        6548. bytes (REL,CON)

      Value  Global                              Global Defined In Module
      -----  --------------------------------   ------------------------
     0000C5FE  _timer_values                      events
     0000C606  _fade_running                      fade_manager
     0000C607  _fade_frames_per_step              fade_manager
     0000C608  _fade_timer                        fade_manager
     0000C610  _joypads                           input
     0000C615  _frame_joy                         input
     0000C616  _last_joy                          input
     0000C617  _recent_joy                        input
     0000C618  _SIO_status                        
     0000C619  _link_byte_sent                    
     0000C61A  _link_next_mode                    
     0000C61B  _save_blob_size                    load_save
     0000C61D  _routine_queue                     music_manager
     0000C621  _routine_queue_head                music_manager
     0000C622  _routine_queue_tail                music_manager
     0000C623  _music_events                      music_manager
     0000C637  _music_current_track_bank          music_manager
     0000C638  _music_mute_mask                   music_manager
     0000C639  _music_effective_mute              music_manager
     0000C63A  _music_next_track                  music_manager
     0000C63C  _music_current_track               music_manager
     0000C63E  _music_play_isr_counter            music_manager
     0000C63F  _music_play_isr_pause              music_manager
     0000C640  _music_global_mute_mask            music_manager
     0000C641  _music_sfx_priority                music_manager
     0000C642  _DMG_palette                       palette
     0000C645  _SprPalette                        palette
     0000C685  _parallax_rows                     parallax
     0000C697  _parallax_row                      parallax
     0000C699  _projectiles                       projectiles
     0000C752  _projectile_defs                   projectiles
     0000C7C5  _projectiles_active_head           projectiles
     0000C7C7  _projectiles_inactive_head         projectiles
     0000C7CE  _scroll_x                          scroll
     0000C7D0  _scroll_y                          scroll
     0000C7D2  _draw_scroll_x                     scroll
     0000C7D4  _draw_scroll_y                     scroll
     0000C7D6  _scroll_x_max                      scroll
     0000C7D8  _scroll_y_max                      scroll
     0000C7DA  _scroll_offset_x                   scroll
     0000C7DB  _scroll_offset_y                   scroll
     0000C7DC  _pending_h_x                       scroll
     0000C7DD  _pending_h_y                       scroll
     0000C7DE  _pending_h_i                       scroll
     0000C7DF  _pending_w_x                       scroll
     0000C7E0  _pending_w_y                       scroll
     0000C7E1  _pending_w_i                       scroll
     0000C7E2  _current_row                       scroll
     0000C7E4  _new_row                           scroll
     0000C7E6  _current_col                       scroll
     0000C7E8  _new_col                           scroll
ASxxxx Linker V03.00/V05.40 + sdld,  page 50.
Hexadecimal  [32-Bits]

Area                                    Addr        Size        Decimal Bytes (Attributes)
--------------------------------        ----        ----        ------- ----- ------------
_DATA                               0000C0A0    00001994 =        6548. bytes (REL,CON)

      Value  Global                              Global Defined In Module
      -----  --------------------------------   ------------------------
     0000C7EA  .image_tile_width                  
     0000C7EB  _sfx_play_bank                     sfx_player
     0000C7EC  _sfx_play_sample                   sfx_player
     0000C7EE  _sfx_frame_skip                    sfx_player
     0000C7EF  _link_operation_mode               sio
     0000C7F0  _link_packet                       sio
     0000C810  _link_packet_len                   sio
     0000C811  _link_packet_ptr                   sio
     0000C813  _link_packet_received              sio
     0000C814  _link_packet_snd_len               sio
     0000C815  _link_packet_snd_ptr               sio
     0000C817  _link_packet_sent                  sio
     0000C818  __is_CGB                           system
     0000C819  __is_SGB                           system
     0000C81A  __current_ram_bank                 system
     0000C81B  _triggers                          trigger
     0000C913  _last_trigger_tx                   trigger
     0000C914  _last_trigger_ty                   trigger
     0000C915  _last_trigger                      trigger
     0000C916  _win_pos_x                         ui
     0000C917  _win_dest_pos_x                    ui
     0000C918  _win_pos_y                         ui
     0000C919  _win_dest_pos_y                    ui
     0000C91A  _win_speed                         ui
     0000C91B  _text_drawn                        ui
     0000C91C  _current_text_speed                ui
     0000C91D  _text_wait                         ui
     0000C91E  _text_options                      ui
     0000C91F  _text_in_speed                     ui
     0000C920  _text_out_speed                    ui
     0000C921  _text_draw_speed                   ui
     0000C922  _text_ff_joypad                    ui
     0000C923  _text_ff                           ui
     0000C924  _text_bkg_fill                     ui
     0000C925  _ui_text_data                      ui
     0000CA2F  _vwf_current_mask                  ui
     0000CA30  _vwf_current_rotate                ui
     0000CA31  _vwf_inverse_map                   ui
     0000CA32  _vwf_direction                     ui
     0000CA33  _vwf_current_font_desc             ui
     0000CA3B  _vwf_current_font_bank             ui
     0000CA3C  _vwf_current_font_idx              ui
     0000CA3D  _text_render_base_addr             ui
     0000CA3F  _text_scroll_addr                  ui
     0000CA41  _text_scroll_width                 ui
     0000CA42  _text_scroll_height                ui
     0000CA43  _text_scroll_fill                  ui
     0000CA44  _text_sound_mask                   ui
     0000CA45  _text_sound_bank                   ui
     0000CA46  _text_sound_data                   ui
     0000CA48  _overlay_priority                  ui
ASxxxx Linker V03.00/V05.40 + sdld,  page 51.
Hexadecimal  [32-Bits]

Area                                    Addr        Size        Decimal Bytes (Attributes)
--------------------------------        ----        ----        ------- ----- ------------
_DATA                               0000C0A0    00001994 =        6548. bytes (REL,CON)

      Value  Global                              Global Defined In Module
      -----  --------------------------------   ------------------------
     0000CA49  _text_palette                      ui
     0000CA50  __itoa_fmt_len                     vm_ui_a
     0000CA51  .itoa_fmt_buf                      vm_ui_a
     0000CA54  _CTXS                              vm
     0000CB84  _first_ctx                         vm
     0000CB86  _free_ctxs                         vm
     0000CB88  _old_executing_ctx                 vm
     0000CB8A  _executing_ctx                     vm
     0000CB8C  _vm_lock_state                     vm
     0000CB8D  _vm_loaded_state                   vm
     0000CB8E  _vm_exception_code                 vm
     0000CB8F  _vm_exception_params_length        vm
     0000CB90  _vm_exception_params_bank          vm
     0000CB91  _vm_exception_params_offset        vm
     0000CB95  _script_memory                     vm
     0000D99B  _grounded                          platform
     0000D99C  _on_slope                          platform
     0000D99D  _slope_y                           platform
     0000D99E  _on_ladder                         platform
     0000D99F  _pl_vel_x                          platform
     0000D9A1  _pl_vel_y                          platform
     0000D9A3  _plat_min_vel                      platform
     0000D9A5  _plat_walk_vel                     platform
     0000D9A7  _plat_climb_vel                    platform
     0000D9A9  _plat_run_vel                      platform
     0000D9AB  _plat_walk_acc                     platform
     0000D9AD  _plat_run_acc                      platform
     0000D9AF  _plat_dec                          platform
     0000D9B1  _plat_jump_vel                     platform
     0000D9B3  _plat_grav                         platform
     0000D9B5  _plat_hold_grav                    platform
     0000D9B7  _plat_max_fall_vel                 platform
     0000D9B9  _shooter_reached_end               shmup
     0000D9BA  _shooter_dest                      shmup
     0000D9BC  _shooter_direction                 shmup
     0000D9BD  _topdown_grid                      topdown
     0000D9BE  ___rand_seed                       
     0000D9DC  _hUGE_current_wave                 hUGEDriver_obj
     0000D9DC  hUGE_current_wave                  hUGEDriver_obj
     0000D9DD  _hUGE_mute_mask                    hUGEDriver_obj
     0000DA24  ___call_banked_addr                far_ptr
     0000DA24  ___call_banked_ptr                 far_ptr
     0000DA26  ___call_banked_bank                far_ptr
     0000DA28  .int_0x48                          
     0000DA30  ___current_metasprite              Metasprites
     0000DA32  ___current_base_tile               Metasprites
     0000DA33  ___current_base_prop               Metasprites

ASxxxx Linker V03.00/V05.40 + sdld,  page 52.
Hexadecimal  [32-Bits]

Area                                    Addr        Size        Decimal Bytes (Attributes)
--------------------------------        ----        ----        ------- ----- ------------
_INITIALIZED                        0000DA34    0000001A =          26. bytes (REL,CON)

      Value  Global                              Global Defined In Module
      -----  --------------------------------   ------------------------
     0000DA34  _fade_style                        fade_manager
     0000DA35  _game_time                         game_time
     0000DA36  _PRN_PKT_START                     gbprinter
     0000DA44  _hide_sprites                      interrupts
     0000DA45  _show_actors_on_overlay            interrupts
     0000DA46  _overlay_cut_scanline              interrupts
     0000DA47  __submap_tile_offset               
     0000DA48  _triggers_len                      trigger
     0000DA49  _exchange_state                    vm_sio
     0000DA4A  _last_hit_trigger                  pointnclick
     0000DA4B  _shooter_scroll_speed              shmup
     0000DA4C  ___render_shadow_OAM               Metasprites
     0000DA4D  __map_tile_offset                  SetTileMap

ASxxxx Linker V03.00/V05.40 + sdld,  page 53.
Hexadecimal  [32-Bits]

Area                                    Addr        Size        Decimal Bytes (Attributes)
--------------------------------        ----        ----        ------- ----- ------------
_HRAM12                             00000000    00000003 =           3. bytes (ABS,CON)

      Value  Global                              Global Defined In Module
      -----  --------------------------------   ------------------------
     0000FF90  __current_bank                     Runtime
     0000FF92  __shadow_OAM_base                  Runtime

ASxxxx Linker V03.00/V05.40 + sdld,  page 54.
Hexadecimal  [32-Bits]

Area                                    Addr        Size        Decimal Bytes (Attributes)
--------------------------------        ----        ----        ------- ----- ------------
_CODE_5                             00054000    00004000 =       16384. bytes (REL,CON)

      Value  Global                              Global Defined In Module
      -----  --------------------------------   ------------------------
     00054000  ___func_ACTOR                      actor
     00054000  _actors_init                       actor
     0005403A  _emote_offsets                     actor
     00054049  _emote_metasprite                  actor
     00054055  _player_init                       actor
     0005406A  _deactivate_actor                  actor
     000541CB  _activate_actor                    actor
     0005430A  _activate_actors_in_row            actor
     00054401  _activate_actors_in_col            actor
     00054552  _actor_set_frames                  actor
     000545A8  _actor_set_frame_offset            actor
     000545E3  _actor_get_frame_offset            actor
     000545F5  _actor_set_anim_idle               actor
     00054623  _actor_set_anim_moving             actor
     00054654  _actor_set_dir                     actor
     000546B9  _actor_at_tile                     actor
     0005478D  _actor_in_front_of_player          actor
     00054841  _actor_overlapping_player          actor
     00054ADA  _actor_overlapping_bb              actor
     00054CF9  _actors_handle_player_collision    actor
     00054D85  _check_collision_in_direction      actor
     000555A3  ___func_VM_ACTOR                   vm_actor
     000555A3  _vm_actor_move_to                  vm_actor
     00055F3F  _vm_actor_move_cancel              vm_actor
     00055F75  _vm_actor_activate                 vm_actor
     00055FC6  _vm_actor_deactivate               vm_actor
     00056017  _vm_actor_begin_update             vm_actor
     0005609E  _vm_actor_terminate_update         vm_actor
     000560E5  _vm_actor_set_dir                  vm_actor
     0005612E  _vm_actor_set_anim                 vm_actor
     000561BC  _vm_actor_set_pos                  vm_actor
     00056236  _vm_actor_get_pos                  vm_actor
     000562A5  _vm_actor_get_dir                  vm_actor
     0005631F  _vm_actor_get_angle                vm_actor
     000563A0  _vm_actor_emote                    vm_actor
     00056464  _vm_actor_set_bounds               vm_actor
     000564C2  _vm_actor_set_spritesheet          vm_actor
     0005658C  _vm_actor_replace_tile             vm_actor
     000565F7  _vm_actor_set_anim_tick            vm_actor
     00056635  _vm_actor_set_move_speed           vm_actor
     00056673  _vm_actor_set_anim_frame           vm_actor
     000566B7  _vm_actor_get_anim_frame           vm_actor
     00056701  _vm_actor_set_anim_set             vm_actor
     00056789  _vm_actor_set_spritesheet_by_ref   vm_actor
     00056896  _vm_actor_set_flags                vm_actor
     00056944  ___func_bg_pirateboat3_tileset     bg_pirateboat3_tileset
     00056944  _bg_pirateboat3_tileset            bg_pirateboat3_tileset
     00057FE5  _song_villaginarroun_Data          song_villaginarroun_Data
     00057FFA  ___func_scene_12_sprites           scene_12_sprites
     00057FFA  _scene_12_sprites                  scene_12_sprites

ASxxxx Linker V03.00/V05.40 + sdld,  page 55.
Hexadecimal  [32-Bits]

Area                                    Addr        Size        Decimal Bytes (Attributes)
--------------------------------        ----        ----        ------- ----- ------------
_CODE_18                            00124000    00000BE3 =        3043. bytes (REL,CON)

      Value  Global                              Global Defined In Module
      -----  --------------------------------   ------------------------
     00124000  _bootstrap_script                  
     0012400B  _input_init                        input
     00124031  _remove_LCD_ISRs                   interrupts
     0012404C  _palette_init                      palette
     0012405A  _parallax_init                     parallax
     0012407A  _SIO_init                          sio
     001240A3  _actor_1_interact                  actor_1_interact
     001240B6  GBVM$actor_1_interact$d0df7062_0   actor_1_interact
     001240C5  _actor_1_update                    actor_1_update
     001240C7  GBVM$actor_1_update$3282a385_56b   actor_1_update
     001240EA  _actor_10_interact                 actor_10_interact
     001240FD  GBVM$actor_10_interact$934925c6_   actor_10_interact
     0012410C  _actor_10_update                   actor_10_update
     0012410E  GBVM$actor_10_update$2fbfde5c_cd   actor_10_update
     00124131  _actor_19_interact                 actor_19_interact
     00124132  GBVM$actor_19_interact$69186397_   actor_19_interact
     00124132  GBVM$actor_19_interact$d0b7586a_   actor_19_interact
     0012413B  GBVM$actor_19_interact$f5f7e2b3_   actor_19_interact
     00124147  GBVM$actor_19_interact$f8a8cb12_   actor_19_interact
     0012414C  GBVM$actor_19_interact$2e4d966e_   actor_19_interact
     0012414C  GBVM$actor_19_interact$747b6247_   actor_19_interact
     00124151  GBVM_END$actor_19_interact$f5f7e   actor_19_interact
     00124154  GBVM$actor_19_interact$e61bcaa5_   actor_19_interact
     00124159  GBVM_END$actor_19_interact$69186   actor_19_interact
     0012415A  _actor_2_interact                  actor_2_interact
     0012416D  GBVM$actor_2_interact$d715a6f3_5   actor_2_interact
     0012417C  _actor_2_update                    actor_2_update
     0012417E  GBVM$actor_2_update$f033c3fc_276   actor_2_update
     001241A1  _actor_20_interact                 actor_20_interact
     001241A2  GBVM$actor_20_interact$177d8435_   actor_20_interact
     001241A2  GBVM$actor_20_interact$a28bab16_   actor_20_interact
     001241AB  GBVM$actor_20_interact$879e4a8d_   actor_20_interact
     001241B7  GBVM$actor_20_interact$6c11bdfc_   actor_20_interact
     001241BC  GBVM$actor_20_interact$081cf010_   actor_20_interact
     001241BC  GBVM$actor_20_interact$526e5d6b_   actor_20_interact
     001241C1  GBVM_END$actor_20_interact$879e4   actor_20_interact
     001241C4  GBVM$actor_20_interact$809a7523_   actor_20_interact
     001241C9  GBVM_END$actor_20_interact$a28ba   actor_20_interact
     001241CA  _actor_22_interact                 actor_22_interact
     001241CB  GBVM$actor_22_interact$30ebcc4c_   actor_22_interact
     001241CB  GBVM$actor_22_interact$67000984_   actor_22_interact
     001241D4  GBVM$actor_22_interact$ccf6fe7e_   actor_22_interact
     001241E0  GBVM$actor_22_interact$708109a4_   actor_22_interact
     001241E5  GBVM$actor_22_interact$0a8f0784_   actor_22_interact
     001241E5  GBVM$actor_22_interact$ec65162e_   actor_22_interact
     001241EA  GBVM_END$actor_22_interact$ccf6f   actor_22_interact
     001241ED  GBVM$actor_22_interact$3af0327f_   actor_22_interact
     001241F2  GBVM_END$actor_22_interact$67000   actor_22_interact
     001241F3  _actor_3_interact                  actor_3_interact
     00124206  GBVM$actor_3_interact$004b7b45_1   actor_3_interact
ASxxxx Linker V03.00/V05.40 + sdld,  page 56.
Hexadecimal  [32-Bits]

Area                                    Addr        Size        Decimal Bytes (Attributes)
--------------------------------        ----        ----        ------- ----- ------------
_CODE_18                            00124000    00000BE3 =        3043. bytes (REL,CON)

      Value  Global                              Global Defined In Module
      -----  --------------------------------   ------------------------
     00124215  _actor_3_update                    actor_3_update
     00124217  GBVM$actor_3_update$f4c86245_8e2   actor_3_update
     0012423A  _actor_30_interact                 actor_30_interact
     0012423B  GBVM$actor_30_interact$987e7ac7_   actor_30_interact
     0012423B  GBVM$actor_30_interact$aff91ced_   actor_30_interact
     00124244  GBVM$actor_30_interact$f5e56fcb_   actor_30_interact
     00124250  GBVM$actor_30_interact$0de183c3_   actor_30_interact
     00124255  GBVM$actor_30_interact$aefce26f_   actor_30_interact
     00124255  GBVM$actor_30_interact$ee71419f_   actor_30_interact
     0012425A  GBVM_END$actor_30_interact$f5e56   actor_30_interact
     0012425D  GBVM$actor_30_interact$df628e09_   actor_30_interact
     00124262  GBVM_END$actor_30_interact$987e7   actor_30_interact
     00124263  _actor_40_interact                 actor_40_interact
     00124276  GBVM$actor_40_interact$ddc8bdd2_   actor_40_interact
     00124280  _actor_41_interact                 actor_41_interact
     00124293  GBVM$actor_41_interact$b799774f_   actor_41_interact
     0012429D  _actor_42_interact                 actor_42_interact
     001242B0  GBVM$actor_42_interact$b2f379be_   actor_42_interact
     001242BA  _actor_5_interact                  actor_5_interact
     001242CD  GBVM$actor_5_interact$8461189f_5   actor_5_interact
     001242DC  _actor_5_update                    actor_5_update
     001242DE  GBVM$actor_5_update$c9d263fe_5ab   actor_5_update
     00124301  _actor_52_interact                 actor_52_interact
     00124314  GBVM$actor_52_interact$9ce5f934_   actor_52_interact
     0012431E  _actor_6_interact                  actor_6_interact
     00124331  GBVM$actor_6_interact$757c22a8_1   actor_6_interact
     00124340  _actor_6_update                    actor_6_update
     00124342  GBVM$actor_6_update$998f0d01_71d   actor_6_update
     00124365  _actor_60_update                   actor_60_update
     00124367  GBVM$actor_60_update$b5a8354b_67   actor_60_update
     00124373  GBVM$actor_60_update$510cca74_da   actor_60_update
     0012437B  GBVM_END$actor_60_update$b5a8354   actor_60_update
     00124380  _actor_61_interact                 actor_61_interact
     00124393  GBVM$actor_61_interact$1ce93e25_   actor_61_interact
     0012439D  _actor_62_interact                 actor_62_interact
     001243B0  GBVM$actor_62_interact$39ac890b_   actor_62_interact
     001243BA  _actor_7_interact                  actor_7_interact
     001243CD  GBVM$actor_7_interact$7cb34f1f_f   actor_7_interact
     001243DC  _actor_7_update                    actor_7_update
     001243DE  GBVM$actor_7_update$1f49e2b7_22b   actor_7_update
     00124401  _actor_8_interact                  actor_8_interact
     00124414  GBVM$actor_8_interact$584e9e6c_1   actor_8_interact
     00124423  _actor_8_update                    actor_8_update
     00124425  GBVM$actor_8_update$2fde280d_499   actor_8_update
     00124448  ___func_bg_barco_a_sair_do_porto   bg_barco_a_sair_do_porto
     00124448  _bg_barco_a_sair_do_porto          bg_barco_a_sair_do_porto
     00124456  ___func_bg_beco                    bg_beco
     00124456  _bg_beco                           bg_beco
     00124464  ___func_bg_becodeath               bg_becodeath
     00124464  _bg_becodeath                      bg_becodeath
     00124472  ___func_bg_boatdeath               bg_boatdeath
ASxxxx Linker V03.00/V05.40 + sdld,  page 57.
Hexadecimal  [32-Bits]

Area                                    Addr        Size        Decimal Bytes (Attributes)
--------------------------------        ----        ----        ------- ----- ------------
_CODE_18                            00124000    00000BE3 =        3043. bytes (REL,CON)

      Value  Global                              Global Defined In Module
      -----  --------------------------------   ------------------------
     00124472  _bg_boatdeath                      bg_boatdeath
     00124480  ___func_bg_chief_entrance          bg_chief_entrance
     00124480  _bg_chief_entrance                 bg_chief_entrance
     0012448E  ___func_bg_credits                 bg_credits
     0012448E  _bg_credits                        bg_credits
     0012449C  ___func_bg_crows_nest              bg_crows_nest
     0012449C  _bg_crows_nest                     bg_crows_nest
     001244AA  ___func_bg_cutscene_badending      bg_cutscene_badending
     001244AA  _bg_cutscene_badending             bg_cutscene_badending
     001244B8  ___func_bg_cutscene_entrance       bg_cutscene_entrance
     001244B8  _bg_cutscene_entrance              bg_cutscene_entrance
     001244C6  ___func_bg_cutscene_fan_final      bg_cutscene_fan_final
     001244C6  _bg_cutscene_fan_final             bg_cutscene_fan_final
     001244D4  ___func_bg_cutscene_ingame         bg_cutscene_ingame
     001244D4  _bg_cutscene_ingame                bg_cutscene_ingame
     001244E2  ___func_bg_cutscene_lanternas2     bg_cutscene_lanternas2
     001244E2  _bg_cutscene_lanternas2            bg_cutscene_lanternas2
     001244F0  ___func_bg_diningroom              bg_diningroom
     001244F0  _bg_diningroom                     bg_diningroom
     001244FE  ___func_bg_docas                   bg_docas
     001244FE  _bg_docas                          bg_docas
     0012450C  ___func_bg_inventory_chief         bg_inventory_chief
     0012450C  _bg_inventory_chief                bg_inventory_chief
     0012451A  ___func_bg_inventory_samurai       bg_inventory_samurai
     0012451A  _bg_inventory_samurai              bg_inventory_samurai
     00124528  ___func_bg_logo                    bg_logo
     00124528  _bg_logo                           bg_logo
     00124536  ___func_bg_main_menu               bg_main_menu
     00124536  _bg_main_menu                      bg_main_menu
     00124544  ___func_bg_pausa_fixed             bg_pausa_fixed
     00124544  _bg_pausa_fixed                    bg_pausa_fixed
     00124552  ___func_bg_pirateboat3             bg_pirateboat3
     00124552  _bg_pirateboat3                    bg_pirateboat3
     00124560  ___func_bg_piratedeath             bg_piratedeath
     00124560  _bg_piratedeath                    bg_piratedeath
     0012456E  ___func_bg_placeholder             bg_placeholder
     0012456E  _bg_placeholder                    bg_placeholder
     0012457C  ___func_bg_portuguese_boat_befor   bg_portuguese_boat_before
     0012457C  _bg_portuguese_boat_before         bg_portuguese_boat_before
     0012458A  ___func_bg_portuguese_boat_cutsc   bg_portuguese_boat_cutscene
     0012458A  _bg_portuguese_boat_cutscene       bg_portuguese_boat_cutscene
     00124598  ___func_bg_portugueseboat          bg_portugueseboat
     00124598  _bg_portugueseboat                 bg_portugueseboat
     001245A6  ___func_bg_skeleton_back           bg_skeleton_back
     001245A6  _bg_skeleton_back                  bg_skeleton_back
     001245B4  ___func_bg_title_screen            bg_title_screen
     001245B4  _bg_title_screen                   bg_title_screen
     001245C2  ___func_bg_vila_1                  bg_vila_1
     001245C2  _bg_vila_1                         bg_vila_1
     001245D0  ___func_bg_vila_2                  bg_vila_2
     001245D0  _bg_vila_2                         bg_vila_2
ASxxxx Linker V03.00/V05.40 + sdld,  page 58.
Hexadecimal  [32-Bits]

Area                                    Addr        Size        Decimal Bytes (Attributes)
--------------------------------        ----        ----        ------- ----- ------------
_CODE_18                            00124000    00000BE3 =        3043. bytes (REL,CON)

      Value  Global                              Global Defined In Module
      -----  --------------------------------   ------------------------
     001245DE  ___func_cursor_image               cursor_image
     001245DE  _cursor_image                      cursor_image
     001245EE  _scene_14_p_hit1                   scene_14_p_hit1
     00124601  GBVM$scene_14_p_hit1$a35c7a3f_e9   scene_14_p_hit1
     0012460A  ___func_scene_14_projectiles       scene_14_projectiles
     0012460A  _scene_14_projectiles              scene_14_projectiles
     00124638  ___func_scene_14_sprites           scene_14_sprites
     00124638  _scene_14_sprites                  scene_14_sprites
     00124644  ___func_scene_14_triggers          scene_14_triggers
     00124644  _scene_14_triggers                 scene_14_triggers
     0012464C  ___func_scene_16_sprites           scene_16_sprites
     0012464C  _scene_16_sprites                  scene_16_sprites
     00124658  ___func_scene_16_triggers          scene_16_triggers
     00124658  _scene_16_triggers                 scene_16_triggers
     00124668  ___func_scene_17_sprites           scene_17_sprites
     00124668  _scene_17_sprites                  scene_17_sprites
     0012466E  ___func_scene_17_triggers          scene_17_triggers
     0012466E  _scene_17_triggers                 scene_17_triggers
     00124686  _scene_18_init                     scene_18_init
     00124687  GBVM$scene_18_init$a707f67b_9329   scene_18_init
     00124688  GBVM$scene_18_init$0c36f2c0_a214   scene_18_init
     00124688  GBVM$scene_18_init$e8e1a4eb_0a7e   scene_18_init
     00124690  GBVM$scene_18_init$autofade$7fa8   scene_18_init
     00124690  GBVM_END$scene_18_init$0c36f2c0_   scene_18_init
     00124690  GBVM_END$scene_18_init$e8e1a4eb_   scene_18_init
     0012469C  ___func_scene_18_triggers          scene_18_triggers
     0012469C  _scene_18_triggers                 scene_18_triggers
     001246A4  ___func_scene_19_sprites           scene_19_sprites
     001246A4  _scene_19_sprites                  scene_19_sprites
     001246B9  ___func_scene_19_triggers          scene_19_triggers
     001246B9  _scene_19_triggers                 scene_19_triggers
     001246E1  _scene_2_init                      scene_2_init
     001246E2  GBVM$scene_2_init$385ab815_16d3_   scene_2_init
     001246E6  GBVM$scene_2_init$2ab4efbd_8399_   scene_2_init
     001246E6  GBVM$scene_2_init$643c4d02_6275_   scene_2_init
     001246EE  GBVM$scene_2_init$autofade$ece08   scene_2_init
     001246EE  GBVM_END$scene_2_init$2ab4efbd_8   scene_2_init
     001246EE  GBVM_END$scene_2_init$643c4d02_6   scene_2_init
     001246FA  ___func_scene_20_sprites           scene_20_sprites
     001246FA  _scene_20_sprites                  scene_20_sprites
     00124700  ___func_scene_20_triggers          scene_20_triggers
     00124700  _scene_20_triggers                 scene_20_triggers
     00124710  ___func_scene_21_sprites           scene_21_sprites
     00124710  _scene_21_sprites                  scene_21_sprites
     0012471C  ___func_scene_21_triggers          scene_21_triggers
     0012471C  _scene_21_triggers                 scene_21_triggers
     0012473C  ___func_scene_22_sprites           scene_22_sprites
     0012473C  _scene_22_sprites                  scene_22_sprites
     00124748  ___func_scene_22_triggers          scene_22_triggers
     00124748  _scene_22_triggers                 scene_22_triggers
     00124758  _scene_24_init                     scene_24_init
ASxxxx Linker V03.00/V05.40 + sdld,  page 59.
Hexadecimal  [32-Bits]

Area                                    Addr        Size        Decimal Bytes (Attributes)
--------------------------------        ----        ----        ------- ----- ------------
_CODE_18                            00124000    00000BE3 =        3043. bytes (REL,CON)

      Value  Global                              Global Defined In Module
      -----  --------------------------------   ------------------------
     0012475B  GBVM$scene_24_init$ff71d08b_ad1d   scene_24_init
     00124765  GBVM$scene_24_init$829178c2_3cb6   scene_24_init
     00124765  GBVM$scene_24_init$de41eb71_3a77   scene_24_init
     0012476D  GBVM$scene_24_init$autofade$95a1   scene_24_init
     0012476D  GBVM_END$scene_24_init$829178c2_   scene_24_init
     0012476D  GBVM_END$scene_24_init$de41eb71_   scene_24_init
     00124779  ___func_scene_24_projectiles       scene_24_projectiles
     00124779  _scene_24_projectiles              scene_24_projectiles
     00124790  ___func_scene_24_sprites           scene_24_sprites
     00124790  _scene_24_sprites                  scene_24_sprites
     00124799  ___func_scene_24_triggers          scene_24_triggers
     00124799  _scene_24_triggers                 scene_24_triggers
     001247A9  _scene_25_init                     scene_25_init
     001247AC  GBVM$scene_25_init$ce42a60c_a02b   scene_25_init
     001247AC  GBVM$scene_25_init$d4718046_1c02   scene_25_init
     001247B4  GBVM$scene_25_init$bde93d8e_c790   scene_25_init
     001247B4  GBVM_END$scene_25_init$ce42a60c_   scene_25_init
     001247B4  GBVM_END$scene_25_init$d4718046_   scene_25_init
     001247BE  GBVM$scene_25_init$07996bed_aa48   scene_25_init
     001247BF  GBVM$scene_25_init$autofade$ce67   scene_25_init
     001247CB  ___func_scene_25_sprites           scene_25_sprites
     001247CB  _scene_25_sprites                  scene_25_sprites
     001247D1  ___func_scene_25_triggers          scene_25_triggers
     001247D1  _scene_25_triggers                 scene_25_triggers
     001247D9  ___func_scene_27_sprites           scene_27_sprites
     001247D9  _scene_27_sprites                  scene_27_sprites
     001247DF  _scene_28_init                     scene_28_init
     001247E2  GBVM$scene_28_init$96f2b911_fc30   scene_28_init
     001247EA  GBVM$scene_28_init$2fb58f92_d94e   scene_28_init
     001247F2  GBVM$scene_28_init$autofade$66c8   scene_28_init
     001247F2  GBVM_END$scene_28_init$2fb58f92_   scene_28_init
     001247FE  ___func_scene_29_sprites           scene_29_sprites
     001247FE  _scene_29_sprites                  scene_29_sprites
     00124804  ___func_scene_29_triggers          scene_29_triggers
     00124804  _scene_29_triggers                 scene_29_triggers
     0012480C  _scene_3_init                      scene_3_init
     0012480D  GBVM$scene_3_init$d3dd36d8_b67c_   scene_3_init
     00124815  GBVM$scene_3_init$066e523d_112c_   scene_3_init
     00124815  GBVM$scene_3_init$f10d012e_afab_   scene_3_init
     00124815  GBVM_END$scene_3_init$d3dd36d8_b   scene_3_init
     0012481D  GBVM$scene_3_init$autofade$16ebc   scene_3_init
     0012481D  GBVM_END$scene_3_init$066e523d_1   scene_3_init
     0012481D  GBVM_END$scene_3_init$f10d012e_a   scene_3_init
     00124829  ___func_scene_30_triggers          scene_30_triggers
     00124829  _scene_30_triggers                 scene_30_triggers
     00124839  ___func_scene_31_sprites           scene_31_sprites
     00124839  _scene_31_sprites                  scene_31_sprites
     00124842  ___func_scene_31_triggers          scene_31_triggers
     00124842  _scene_31_triggers                 scene_31_triggers
     00124852  ___func_scene_32_sprites           scene_32_sprites
     00124852  _scene_32_sprites                  scene_32_sprites
ASxxxx Linker V03.00/V05.40 + sdld,  page 60.
Hexadecimal  [32-Bits]

Area                                    Addr        Size        Decimal Bytes (Attributes)
--------------------------------        ----        ----        ------- ----- ------------
_CODE_18                            00124000    00000BE3 =        3043. bytes (REL,CON)

      Value  Global                              Global Defined In Module
      -----  --------------------------------   ------------------------
     00124858  ___func_scene_32_triggers          scene_32_triggers
     00124858  _scene_32_triggers                 scene_32_triggers
     00124860  _scene_36_init                     scene_36_init
     00124863  GBVM$scene_36_init$2ac9fccf_6cb9   scene_36_init
     0012486B  GBVM$scene_36_init$30ed1b1e_b241   scene_36_init
     00124873  GBVM$scene_36_init$autofade$3a7b   scene_36_init
     00124873  GBVM_END$scene_36_init$30ed1b1e_   scene_36_init
     0012487F  _scene_37_init                     scene_37_init
     00124882  GBVM$scene_37_init$0f8ace81_0842   scene_37_init
     0012488A  GBVM$scene_37_init$c3eab275_c213   scene_37_init
     00124892  GBVM$scene_37_init$autofade$96ff   scene_37_init
     00124892  GBVM_END$scene_37_init$c3eab275_   scene_37_init
     0012489E  _scene_38_init                     scene_38_init
     001248A1  GBVM$scene_38_init$48016fd8_410a   scene_38_init
     001248A9  GBVM$scene_38_init$5b31a1d0_e1f1   scene_38_init
     001248B1  GBVM$scene_38_init$autofade$b76e   scene_38_init
     001248B1  GBVM_END$scene_38_init$5b31a1d0_   scene_38_init
     001248BD  ___func_scene_39_sprites           scene_39_sprites
     001248BD  _scene_39_sprites                  scene_39_sprites
     001248C6  ___func_scene_4_triggers           scene_4_triggers
     001248C6  _scene_4_triggers                  scene_4_triggers
     001248CE  ___func_scene_40_projectiles       scene_40_projectiles
     001248CE  _scene_40_projectiles              scene_40_projectiles
     001248E5  ___func_scene_40_sprites           scene_40_sprites
     001248E5  _scene_40_sprites                  scene_40_sprites
     001248FA  ___func_scene_40_triggers          scene_40_triggers
     001248FA  _scene_40_triggers                 scene_40_triggers
     0012490A  ___func_scene_41_sprites           scene_41_sprites
     0012490A  _scene_41_sprites                  scene_41_sprites
     0012490D  ___func_scene_41_triggers          scene_41_triggers
     0012490D  _scene_41_triggers                 scene_41_triggers
     00124925  ___func_scene_42_sprites           scene_42_sprites
     00124925  _scene_42_sprites                  scene_42_sprites
     00124931  ___func_scene_42_triggers          scene_42_triggers
     00124931  _scene_42_triggers                 scene_42_triggers
     00124941  ___func_scene_43_sprites           scene_43_sprites
     00124941  _scene_43_sprites                  scene_43_sprites
     0012494A  ___func_scene_43_triggers          scene_43_triggers
     0012494A  _scene_43_triggers                 scene_43_triggers
     00124952  ___func_scene_44_sprites           scene_44_sprites
     00124952  _scene_44_sprites                  scene_44_sprites
     00124955  ___func_scene_44_triggers          scene_44_triggers
     00124955  _scene_44_triggers                 scene_44_triggers
     00124965  ___func_scene_46_projectiles       scene_46_projectiles
     00124965  _scene_46_projectiles              scene_46_projectiles
     0012497C  ___func_scene_46_sprites           scene_46_sprites
     0012497C  _scene_46_sprites                  scene_46_sprites
     00124991  ___func_scene_46_triggers          scene_46_triggers
     00124991  _scene_46_triggers                 scene_46_triggers
     001249A1  ___func_scene_5_sprites            scene_5_sprites
     001249A1  _scene_5_sprites                   scene_5_sprites
ASxxxx Linker V03.00/V05.40 + sdld,  page 61.
Hexadecimal  [32-Bits]

Area                                    Addr        Size        Decimal Bytes (Attributes)
--------------------------------        ----        ----        ------- ----- ------------
_CODE_18                            00124000    00000BE3 =        3043. bytes (REL,CON)

      Value  Global                              Global Defined In Module
      -----  --------------------------------   ------------------------
     001249A4  _scene_6_p_hit1                    scene_6_p_hit1
     001249B7  GBVM$scene_6_p_hit1$928e3079_49a   scene_6_p_hit1
     001249C0  ___func_scene_6_projectiles        scene_6_projectiles
     001249C0  _scene_6_projectiles               scene_6_projectiles
     001249EE  ___func_scene_6_sprites            scene_6_sprites
     001249EE  _scene_6_sprites                   scene_6_sprites
     001249FA  ___func_scene_6_triggers           scene_6_triggers
     001249FA  _scene_6_triggers                  scene_6_triggers
     00124A02  ___func_scene_7_sprites            scene_7_sprites
     00124A02  _scene_7_sprites                   scene_7_sprites
     00124A08  _scene_8_init                      scene_8_init
     00124A09  GBVM$scene_8_init$autofade$bd884   scene_8_init
     00124A15  _scene_9_init                      scene_9_init
     00124A16  GBVM$scene_9_init$autofade$04ef2   scene_9_init
     00124A22  _script_1                          script_1
     00124A24  GBVM$script_1$1fd482a9_b198_452f   script_1
     00124A2E  GBVM$script_1$133e6c72_d5cc_4ce8   script_1
     00124A3B  GBVM$script_input_11$2ad10f72_01   script_input_11
     00124A3B  _script_input_11                   script_input_11
     00124A43  _script_input_4                    script_input_4
     00124A45  GBVM$script_input_4$3aecc63b_0dd   script_input_4
     00124A68  GBVM$script_input_4$0fc2367f_e66   script_input_4
     00124A6E  _script_input_5                    script_input_5
     00124A70  GBVM$script_input_5$8017f5f3_8ec   script_input_5
     00124A93  GBVM$script_input_5$1943adb6_d8d   script_input_5
     00124A99  GBVM$script_input_9$9bd6c599_9c6   script_input_9
     00124A99  _script_input_9                    script_input_9
     00124AA1  ___func_sound_bump_vgm             sound_bump_vgm
     00124AA1  _sound_bump_vgm                    sound_bump_vgm
     00124ABE  ___func_sound_legacy_1             sound_legacy_1
     00124ABE  _sound_legacy_1                    sound_legacy_1
     00124ACC  ___func_sound_legacy_2             sound_legacy_2
     00124ACC  _sound_legacy_2                    sound_legacy_2
     00124ADB  ___func_sound_legacy_3             sound_legacy_3
     00124ADB  _sound_legacy_3                    sound_legacy_3
     00124AEB  ___func_sound_sword_slash_vgm      sound_sword_slash_vgm
     00124AEB  _sound_sword_slash_vgm             sound_sword_slash_vgm
     00124B13  ___func_sprite_estatua_buda_tile   sprite_estatua_buda_tileset
     00124B13  _sprite_estatua_buda_tileset       sprite_estatua_buda_tileset
     00124B35  _spritesheet_none_metasprite       spritesheet_none
     00124B39  _spritesheet_none_metasprites      spritesheet_none
     00124B3B  _spritesheet_none                  spritesheet_none
     00124B4E  _trigger_24_interact               trigger_24_interact
     00124B62  GBVM$trigger_24_interact$83a0529   trigger_24_interact
     00124B79  GBVM$trigger_24_interact$727f1ce   trigger_24_interact
     00124B80  _trigger_43_interact               trigger_43_interact
     00124B81  GBVM$trigger_43_interact$a8458b5   trigger_43_interact
     00124BAE  _trigger_45_interact               trigger_45_interact
     00124BAF  GBVM$trigger_45_interact$b788e89   trigger_45_interact
     00124BB0  GBVM$trigger_45_interact$1ff3fb5   trigger_45_interact
     00124BB5  _trigger_54_interact               trigger_54_interact
ASxxxx Linker V03.00/V05.40 + sdld,  page 62.
Hexadecimal  [32-Bits]

Area                                    Addr        Size        Decimal Bytes (Attributes)
--------------------------------        ----        ----        ------- ----- ------------
_CODE_18                            00124000    00000BE3 =        3043. bytes (REL,CON)

      Value  Global                              Global Defined In Module
      -----  --------------------------------   ------------------------
     00124BB6  GBVM$trigger_54_interact$4d1f8b5   trigger_54_interact
ASxxxx Linker V03.00/V05.40 + sdld,  page 63.
Hexadecimal  [32-Bits]

Area                                    Addr        Size        Decimal Bytes (Attributes)
--------------------------------        ----        ----        ------- ----- ------------
_CODE_3                             00034000    00003FFF =       16383. bytes (REL,CON)

      Value  Global                              Global Defined In Module
      -----  --------------------------------   ------------------------
     00034000  _camera_init                       camera
     00034026  ___func_VM_CAMERA                  vm_camera
     00034026  _vm_camera_move_to                 vm_camera
     00034279  _vm_camera_set_pos                 vm_camera
     000342C0  _camera_shake_frames               vm_camera
     000343EF  ___func_VM_MAIN                    vm
     000343EF  _vm_call                           vm
     00034431  _vm_ret                            vm
     00034491  _vm_call_far                       vm
     00034510  _vm_ret_far                        vm
     00034588  _vm_push                           vm
     000345B3  _vm_pop                            vm
     000345EE  _vm_loop                           vm
     00034679  _vm_jump                           vm
     00034685  _wait_frames                       vm
     000346FB  _vm_invoke                         vm
     00034828  _vm_join                           vm
     0003488A  _vm_terminate                      vm
     000348B7  _vm_if                             vm
     000349FC  _vm_if_const                       vm
     00034B11  _vm_push_value                     vm
     00034B63  _vm_push_value_ind                 vm
     00034BD8  _vm_push_reference                 vm
     00034C2F  _vm_reserve                        vm
     00034C5D  _vm_set                            vm
     00034CBE  _vm_set_const                      vm
     00034CEA  _vm_get_tlocal                     vm
     00034D77  _vm_test_terminate                 vm
     00034D82  _vm_idle                           vm
     00034D8E  _vm_init_rng                       vm
     00034DBA  _vm_rand                           vm
     00034DFC  _vm_lock                           vm
     00034E0B  _vm_unlock                         vm
     00034E1E  _vm_raise                          vm
     00034E60  _vm_set_indirect                   vm
     00034EDB  _vm_get_indirect                   vm
     00034F56  _vm_poll_loaded                    vm
     00034F86  _vm_memset                         vm
     00034FC0  _vm_memcpy                         vm
     0003503D  _script_runner_init                vm
     000350F4  _script_execute                    vm
     0003525A  _script_terminate                  vm
     000352BF  _script_detach_hthread             vm
     000352FB  ___func_bg_main_menu_tileset       bg_main_menu_tileset
     000352FB  _bg_main_menu_tileset              bg_main_menu_tileset
     0003697D  ___func_bg_piratedeath_tileset     bg_piratedeath_tileset
     0003697D  _bg_piratedeath_tileset            bg_piratedeath_tileset

ASxxxx Linker V03.00/V05.40 + sdld,  page 64.
Hexadecimal  [32-Bits]

Area                                    Addr        Size        Decimal Bytes (Attributes)
--------------------------------        ----        ----        ------- ----- ------------
_CODE_11                            000B4000    00003FFF =       16383. bytes (REL,CON)

      Value  Global                              Global Defined In Module
      -----  --------------------------------   ------------------------
     000B4000  _core_reset                        core
     000B4075  _process_VM                        core
     000B42F3  _core_run                          core
     000B43C6  _data_init                         load_save
     000B4411  _save_points                       load_save
     000B4471  _data_slot_address                 load_save
     000B44E9  _data_save                         load_save
     000B45AA  _data_load                         load_save
     000B46BE  _data_clear                        load_save
     000B46EB  _data_peek                         load_save
     000B478C  _trigger_reset                     trigger
     000B479C  _trigger_interact                  trigger
     000B47DB  _trigger_activate_at               trigger
     000B4826  _trigger_at_intersection           trigger
     000B494D  _trigger_activate_at_intersectio   trigger
     000B4A8E  _trigger_at_tile                   trigger
     000B4B1F  ___func_VM_GAMEBOY                 vm_gameboy
     000B4B1F  _vm_set_sprites_visible            vm_gameboy
     000B4B36  _vm_input_wait                     vm_gameboy
     000B4B5F  _vm_context_prepare                vm_gameboy
     000B4B8A  _vm_input_attach                   vm_gameboy
     000B4BA0  _vm_input_detach                   vm_gameboy
     000B4BB4  _vm_input_get                      vm_gameboy
     000B4BE8  _vm_fade                           vm_gameboy
     000B4C18  _vm_timer_prepare                  vm_gameboy
     000B4C43  _vm_timer_set                      vm_gameboy
     000B4C5E  _vm_timer_stop                     vm_gameboy
     000B4C72  _vm_timer_reset                    vm_gameboy
     000B4C89  _vm_get_tile_xy                    vm_gameboy
     000B4D29  _vm_replace_tile                   vm_gameboy
     000B4DBA  _vm_poll                           vm_gameboy
     000B4E8C  _vm_set_sprite_mode                vm_gameboy
     000B4EA0  _vm_replace_tile_xy                vm_gameboy
     000B5008  _vm_rumble                         vm_gameboy
     000B5028  _vm_load_tileset                   vm_gameboy
     000B5095  ___func_VM_UI                      vm_ui
     000B5095  _vm_display_text                   vm_ui
     000B50C8  _vm_switch_text_layer              vm_ui
     000B50E2  _vm_overlay_setpos                 vm_ui
     000B50FC  _vm_overlay_wait                   vm_ui
     000B518C  _vm_overlay_move_to                vm_ui
     000B51D0  _vm_overlay_set_scroll             vm_ui
     000B5209  _vm_overlay_clear                  vm_ui
     000B52A9  _vm_overlay_show                   vm_ui
     000B52F7  _vm_choice                         vm_ui
     000B5412  _vm_set_font                       vm_ui
     000B5441  _vm_overlay_scroll                 vm_ui
     000B5478  _vm_overlay_set_submap             vm_ui
     000B54B1  _vm_overlay_set_submap_ex          vm_ui
     000B552D  _vm_overlay_set_map                vm_ui
ASxxxx Linker V03.00/V05.40 + sdld,  page 65.
Hexadecimal  [32-Bits]

Area                                    Addr        Size        Decimal Bytes (Attributes)
--------------------------------        ----        ----        ------- ----- ------------
_CODE_11                            000B4000    00003FFF =       16383. bytes (REL,CON)

      Value  Global                              Global Defined In Module
      -----  --------------------------------   ------------------------
     000B5617  _vm_set_text_sound                 vm_ui
     000B5630  _actor_37_interact                 actor_37_interact
     000B5633  GBVM$actor_37_interact$73de0360_   actor_37_interact
     000B563F  GBVM$actor_37_interact$f21fd41c_   actor_37_interact
     000B564A  GBVM$actor_37_interact$5f6688e1_   actor_37_interact
     000B5693  GBVM$actor_37_interact$b10839f8_   actor_37_interact
     000B578B  GBVM$actor_37_interact$e9334950_   actor_37_interact
     000B5824  GBVM$actor_37_interact$3ea8a338_   actor_37_interact
     000B59BC  GBVM$actor_37_interact$c897d07f_   actor_37_interact
     000B59C7  GBVM$actor_37_interact$7b278041_   actor_37_interact
     000B59CC  GBVM$actor_37_interact$407ed9cb_   actor_37_interact
     000B59CC  GBVM$actor_37_interact$6868bd3b_   actor_37_interact
     000B59CC  GBVM$actor_37_interact$d4c4ef4c_   actor_37_interact
     000B59D7  GBVM$actor_37_interact$4a12fc86_   actor_37_interact
     000B59D7  GBVM_END$actor_37_interact$407ed   actor_37_interact
     000B59D7  GBVM_END$actor_37_interact$73de0   actor_37_interact
     000B59E2  _actor_51_interact                 actor_51_interact
     000B59E5  GBVM$actor_51_interact$97e90ef3_   actor_51_interact
     000B59EE  GBVM$actor_51_interact$d9591295_   actor_51_interact
     000B5A10  GBVM$actor_51_interact$68cb4037_   actor_51_interact
     000B5A19  GBVM$actor_51_interact$530593b2_   actor_51_interact
     000B5A4E  GBVM$actor_51_interact$cc7d01ff_   actor_51_interact
     000B5A83  GBVM$actor_51_interact$2656bf89_   actor_51_interact
     000B5B2C  GBVM$actor_51_interact$88cc626d_   actor_51_interact
     000B5C51  GBVM$actor_51_interact$1594a3ed_   actor_51_interact
     000B5C9C  GBVM$actor_51_interact$7525a80c_   actor_51_interact
     000B5CCA  GBVM$actor_51_interact$8bb7d492_   actor_51_interact
     000B5CCF  GBVM$actor_51_interact$5c59ef0d_   actor_51_interact
     000B5D01  GBVM$actor_51_interact$2d5311b3_   actor_51_interact
     000B5D01  GBVM_END$actor_51_interact$68cb4   actor_51_interact
     000B5D0D  GBVM$actor_51_interact$76967092_   actor_51_interact
     000B5D50  GBVM$actor_51_interact$890f3c05_   actor_51_interact
     000B5DA3  GBVM$actor_51_interact$8e3ada5a_   actor_51_interact
     000B5DF6  GBVM$actor_51_interact$253c3a5b_   actor_51_interact
     000B5DFE  GBVM$actor_51_interact$893bac5e_   actor_51_interact
     000B5E06  GBVM_END$actor_51_interact$2d531   actor_51_interact
     000B5E06  GBVM_END$actor_51_interact$97e90   actor_51_interact
     000B5E07  _actor_64_interact                 actor_64_interact
     000B5E0A  GBVM$actor_64_interact$bc604314_   actor_64_interact
     000B5E13  GBVM$actor_64_interact$d706b585_   actor_64_interact
     000B5E35  GBVM$actor_64_interact$a8791aed_   actor_64_interact
     000B5E3E  GBVM$actor_64_interact$efd64dea_   actor_64_interact
     000B5E73  GBVM$actor_64_interact$da0d8ffb_   actor_64_interact
     000B5EA8  GBVM$actor_64_interact$d9571c58_   actor_64_interact
     000B5F51  GBVM$actor_64_interact$fc721ff3_   actor_64_interact
     000B6076  GBVM$actor_64_interact$8d2cd331_   actor_64_interact
     000B60C1  GBVM$actor_64_interact$b73b5429_   actor_64_interact
     000B60EF  GBVM$actor_64_interact$68aff9ff_   actor_64_interact
     000B60F4  GBVM$actor_64_interact$1e549e04_   actor_64_interact
     000B6126  GBVM$actor_64_interact$7dd5dc62_   actor_64_interact
     000B6126  GBVM_END$actor_64_interact$a8791   actor_64_interact
ASxxxx Linker V03.00/V05.40 + sdld,  page 66.
Hexadecimal  [32-Bits]

Area                                    Addr        Size        Decimal Bytes (Attributes)
--------------------------------        ----        ----        ------- ----- ------------
_CODE_11                            000B4000    00003FFF =       16383. bytes (REL,CON)

      Value  Global                              Global Defined In Module
      -----  --------------------------------   ------------------------
     000B6132  GBVM$actor_64_interact$86dc3fbf_   actor_64_interact
     000B6175  GBVM$actor_64_interact$18317be4_   actor_64_interact
     000B61C8  GBVM$actor_64_interact$1e73b542_   actor_64_interact
     000B621B  GBVM$actor_64_interact$e29f1a56_   actor_64_interact
     000B6223  GBVM$actor_64_interact$777c9fb5_   actor_64_interact
     000B622B  GBVM_END$actor_64_interact$7dd5d   actor_64_interact
     000B622B  GBVM_END$actor_64_interact$bc604   actor_64_interact
     000B622C  ___func_bg_chief_entrance_tilese   bg_chief_entrance_tileset
     000B622C  _bg_chief_entrance_tileset         bg_chief_entrance_tileset
     000B684E  ___func_bg_docas_tileset           bg_docas_tileset
     000B684E  _bg_docas_tileset                  bg_docas_tileset
     000B6E10  ___func_bg_logo_tileset            bg_logo_tileset
     000B6E10  _bg_logo_tileset                   bg_logo_tileset
     000B71D2  ___func_bg_portuguese_boat_cutsc   bg_portuguese_boat_cutscene_
     000B71D2  _bg_portuguese_boat_cutscene_til   bg_portuguese_boat_cutscene_
     000B76A4  ___func_bg_vila_2_tilemap          bg_vila_2_tilemap
     000B76A4  _bg_vila_2_tilemap                 bg_vila_2_tilemap
     000B7A24  ___func_scene_4_collisions         scene_4_collisions
     000B7A24  _scene_4_collisions                scene_4_collisions
     000B7F74  _script_input_6                    script_input_6
     000B7F76  GBVM$script_input_6$d65b57a4_a60   script_input_6
     000B7F7F  GBVM$script_input_6$ae53ba34_53a   script_input_6
     000B7F91  GBVM$script_input_6$0fbdfd58_bd4   script_input_6
     000B7FA3  GBVM$script_input_6$1c3608aa_72b   script_input_6
     000B7FD8  GBVM$script_input_6$df8da37a_896   script_input_6
     000B7FDE  GBVM$script_input_6$02d0bdd9_3ca   script_input_6
     000B7FEA  GBVM$script_input_6$e525a8a8_655   script_input_6
     000B7FFE  GBVM_END$script_input_6$d65b57a4   script_input_6
ASxxxx Linker V03.00/V05.40 + sdld,  page 67.
Hexadecimal  [32-Bits]

Area                                    Addr        Size        Decimal Bytes (Attributes)
--------------------------------        ----        ----        ------- ----- ------------
_CRASH_HEADER0                      00000000    00000005 =           5. bytes (ABS,CON)

      Value  Global                              Global Defined In Module
      -----  --------------------------------   ------------------------
ASxxxx Linker V03.00/V05.40 + sdld,  page 68.
Hexadecimal  [32-Bits]

Area                                    Addr        Size        Decimal Bytes (Attributes)
--------------------------------        ----        ----        ------- ----- ------------
_CRASH_HEADER1                      00000000    00000004 =           4. bytes (ABS,CON)

      Value  Global                              Global Defined In Module
      -----  --------------------------------   ------------------------
ASxxxx Linker V03.00/V05.40 + sdld,  page 69.
Hexadecimal  [32-Bits]

Area                                    Addr        Size        Decimal Bytes (Attributes)
--------------------------------        ----        ----        ------- ----- ------------
_CODE_12                            000C4000    00004000 =       16384. bytes (REL,CON)

      Value  Global                              Global Defined In Module
      -----  --------------------------------   ------------------------
     000C4000  ___HandleCrash_banked              
     000C4368  _printer_send_receive              gbprinter
     000C439E  _printer_send_byte                 gbprinter
     000C43B1  _printer_send_command              gbprinter
     000C43D4  _printer_print_tile                gbprinter
     000C4465  _printer_wait                      gbprinter
     000C4497  _gbprinter_detect                  gbprinter
     000C44B1  _gbprinter_print_overlay           gbprinter
     000C4676  _atan2                             math_atan2
     000C480F  _atan2_table                       math_atan2
     000C4977  ___func_VM_SIO                     vm_sio
     000C4977  _vm_sio_set_mode                   vm_sio
     000C4989  _vm_sio_exchange                   vm_sio
     000C4C6B  _actor_38_update                   actor_38_update
     000C4C6D  GBVM$actor_38_update$e2370b87_ff   actor_38_update
     000C4F21  GBVM$actor_38_update$c82c52a1_56   actor_38_update
     000C4F26  GBVM$actor_38_update$ad185298_b0   actor_38_update
     000C4F2B  GBVM$actor_38_update$866bb278_bf   actor_38_update
     000C4F4E  GBVM$actor_38_update$967426d1_8f   actor_38_update
     000C4F71  GBVM$actor_38_update$b50e7f93_38   actor_38_update
     000C4FA3  GBVM$actor_38_update$a5217aef_bc   actor_38_update
     000C4FAC  _actor_60_interact                 actor_60_interact
     000C4FAD  GBVM$actor_60_interact$986a7ed6_   actor_60_interact
     000C4FB2  GBVM$actor_60_interact$6b385aa6_   actor_60_interact
     000C52FF  ___func_bg_docas_tilemap           bg_docas_tilemap
     000C52FF  _bg_docas_tilemap                  bg_docas_tilemap
     000C55BF  ___func_bg_placeholder_tileset     bg_placeholder_tileset
     000C55BF  _bg_placeholder_tileset            bg_placeholder_tileset
     000C5601  ___func_bg_vila_1_tilemap          bg_vila_1_tilemap
     000C5601  _bg_vila_1_tilemap                 bg_vila_1_tilemap
     000C58C1  _scene_10_init                     scene_10_init
     000C58C4  GBVM$scene_10_init$48527e12_3a96   scene_10_init
     000C58C8  GBVM$scene_10_init$autofade$d83b   scene_10_init
     000C58D3  GBVM$scene_10_init$b1e25fae_1384   scene_10_init
     000C58F6  GBVM$scene_10_init$06e4d843_cba7   scene_10_init
     000C58FF  GBVM$scene_10_init$9b1346c5_ac86   scene_10_init
     000C590A  GBVM$scene_10_init$638d30ec_bcc0   scene_10_init
     000C593B  GBVM$scene_10_init$1f787056_1fc3   scene_10_init
     000C5944  GBVM$scene_10_init$efe2455d_c2d1   scene_10_init
     000C594F  GBVM$scene_10_init$1dc7e474_0c76   scene_10_init
     000C595B  GBVM$scene_10_init$39e629e4_b9b9   scene_10_init
     000C5966  GBVM$scene_10_init$e0ad823a_3aa7   scene_10_init
     000C5A6A  GBVM$scene_10_init$c5876ef4_7c06   scene_10_init
     000C5AAA  GBVM$scene_10_init$d2997372_4ee0   scene_10_init
     000C5AB5  GBVM$scene_10_init$70ddc059_07b4   scene_10_init
     000C5B62  GBVM$scene_10_init$0d5f6676_1449   scene_10_init
     000C5B6D  GBVM$scene_10_init$f8d4cb17_124b   scene_10_init
     000C5BA0  ___func_scene_16_collisions        scene_16_collisions
     000C5BA0  _scene_16_collisions               scene_16_collisions
     000C5F20  ___func_scene_17_collisions        scene_17_collisions
ASxxxx Linker V03.00/V05.40 + sdld,  page 70.
Hexadecimal  [32-Bits]

Area                                    Addr        Size        Decimal Bytes (Attributes)
--------------------------------        ----        ----        ------- ----- ------------
_CODE_12                            000C4000    00004000 =       16384. bytes (REL,CON)

      Value  Global                              Global Defined In Module
      -----  --------------------------------   ------------------------
     000C5F20  _scene_17_collisions               scene_17_collisions
     000C61E0  ___func_scene_19_collisions        scene_19_collisions
     000C61E0  _scene_19_collisions               scene_19_collisions
     000C64A0  ___func_scene_30_collisions        scene_30_collisions
     000C64A0  _scene_30_collisions               scene_30_collisions
     000C6760  ___func_scene_42_collisions        scene_42_collisions
     000C6760  _scene_42_collisions               scene_42_collisions
     000C6AE0  ___func_sprite_chefe_vila_tilese   sprite_chefe_vila_tileset
     000C6AE0  _sprite_chefe_vila_tileset         sprite_chefe_vila_tileset
     000C6DE2  ___func_sprite_main_character_ti   sprite_main_character_tilese
     000C6DE2  _sprite_main_character_tileset     sprite_main_character_tilese
     000C70C4  ___func_sprite_ninja_tileset       sprite_ninja_tileset
     000C70C4  _sprite_ninja_tileset              sprite_ninja_tileset
     000C73C6  ___func_sprite_pirata2_tileset     sprite_pirata2_tileset
     000C73C6  _sprite_pirata2_tileset            sprite_pirata2_tileset
     000C7688  ___func_sprite_tripulante1_tiles   sprite_tripulante1_tileset
     000C7688  _sprite_tripulante1_tileset        sprite_tripulante1_tileset
     000C798A  ___func_sprite_tripulante2_tiles   sprite_tripulante2_tileset
     000C798A  _sprite_tripulante2_tileset        sprite_tripulante2_tileset
     000C7C8C  _pointnclick_init                  pointnclick
     000C7CC5  _pointnclick_update                pointnclick

ASxxxx Linker V03.00/V05.40 + sdld,  page 71.
Hexadecimal  [32-Bits]

Area                                    Addr        Size        Decimal Bytes (Attributes)
--------------------------------        ----        ----        ------- ----- ------------
_CRASH_SCRATCH2                     00000000    000001CB =         459. bytes (ABS,CON)

      Value  Global                              Global Defined In Module
      -----  --------------------------------   ------------------------
ASxxxx Linker V03.00/V05.40 + sdld,  page 72.
Hexadecimal  [32-Bits]

Area                                    Addr        Size        Decimal Bytes (Attributes)
--------------------------------        ----        ----        ------- ----- ------------
_CODE_10                            000A4000    00004000 =       16384. bytes (REL,CON)

      Value  Global                              Global Defined In Module
      -----  --------------------------------   ------------------------
     000A4000  _load_init                         data_manager
     000A4013  _spritesheet_none_far              data_manager
     000A4016  _load_bkg_tileset                  data_manager
     000A40F3  _load_background                   data_manager
     000A4191  _load_sprite                       data_manager
     000A41E4  _load_bounds                       data_manager
     000A4201  _do_load_palette                   data_manager
     000A4286  _load_scene                        data_manager
     000A48EC  _load_player                       data_manager
     000A4935  _load_emote                        data_manager
     000A494E  _projectiles_init                  projectiles
     000A497D  _projectile_launch                 projectiles
     000A4D94  _scroll_init                       scroll
     000A4DBE  _scroll_reset                      scroll
     000A4DDE  _scroll_update                     scroll
     000A4F15  _scroll_viewport                   scroll
     000A53AE  _scroll_repaint                    scroll
     000A53BE  _scroll_render_rows                scroll
     000A5454  _scroll_queue_row                  scroll
     000A5476  _scroll_queue_col                  scroll
     000A54C1  ___func_bg_becodeath_tileset       bg_becodeath_tileset
     000A54C1  _bg_becodeath_tileset              bg_becodeath_tileset
     000A5DE3  ___func_bg_crows_nest_tileset      bg_crows_nest_tileset
     000A5DE3  _bg_crows_nest_tileset             bg_crows_nest_tileset
     000A6525  ___func_bg_vila_1_tileset          bg_vila_1_tileset
     000A6525  _bg_vila_1_tileset                 bg_vila_1_tileset
     000A6BC7  _script_2                          script_2
     000A6BC9  GBVM$script_2$bee149d7_25c0_4b9f   script_2
     000A6BD5  GBVM$script_2$ae166873_911c_4e62   script_2
     000A6C3F  GBVM$script_2$abe3dcd1_aa12_4273   script_2
     000A6C4B  GBVM$script_2$996a3afb_e262_4c8e   script_2
     000A6C96  GBVM$script_2$9c0588d6_65ea_4639   script_2
     000A6CB4  GBVM$script_2$9ade6e40_f426_47e8   script_2
     000A6CD2  GBVM$script_2$977b51ed_65e9_4616   script_2
     000A6CDE  GBVM$script_2$653c9572_ddad_47f5   script_2
     000A6D00  GBVM$script_2$7dc2108d_4d40_40b5   script_2
     000A6D22  GBVM$script_2$22b7ac3e_2f25_4c75   script_2
     000A6D2E  GBVM$script_2$00aa79e5_dde4_4813   script_2
     000A6D50  GBVM$script_2$b602c67f_c6ad_4481   script_2
     000A6D5C  GBVM_END$script_2$00aa79e5_dde4_   script_2
     000A6D5C  GBVM_END$script_2$7dc2108d_4d40_   script_2
     000A6D5F  GBVM$script_2$f007e8bf_7a26_4bfd   script_2
     000A6D81  GBVM$script_2$27b30f6d_3c85_48fa   script_2
     000A6D8D  GBVM$script_2$c7ecded8_f8f1_48c8   script_2
     000A6DAF  GBVM$script_2$80aefa12_5300_45f6   script_2
     000A6DBB  GBVM$script_2$f044d7fd_e808_40a5   script_2
     000A6DBB  GBVM_END$script_2$653c9572_ddad_   script_2
     000A6DBB  GBVM_END$script_2$c7ecded8_f8f1_   script_2
     000A6DBB  GBVM_END$script_2$f007e8bf_7a26_   script_2
     000A6DC7  GBVM$script_2$9a9495ad_ffe9_4bb0   script_2
ASxxxx Linker V03.00/V05.40 + sdld,  page 73.
Hexadecimal  [32-Bits]

Area                                    Addr        Size        Decimal Bytes (Attributes)
--------------------------------        ----        ----        ------- ----- ------------
_CODE_10                            000A4000    00004000 =       16384. bytes (REL,CON)

      Value  Global                              Global Defined In Module
      -----  --------------------------------   ------------------------
     000A6E31  GBVM$script_2$429ef67e_8f25_4454   script_2
     000A6E3D  GBVM$script_2$9cab401d_32bf_4993   script_2
     000A6E5E  GBVM$script_2$fcf2816b_caba_4824   script_2
     000A6E6D  GBVM_END$script_2$9a9495ad_ffe9_   script_2
     000A6E70  GBVM$script_2$db5f4e31_ea1a_47b6   script_2
     000A6E7C  GBVM$script_2$46cc0da4_52b9_4860   script_2
     000A6EE6  GBVM$script_2$d5710940_d7ac_4887   script_2
     000A6EFA  GBVM$script_2$95e36f72_3320_4051   script_2
     000A6F06  GBVM$script_2$0cd86a75_eceb_43cf   script_2
     000A6F1B  GBVM$script_2$0a6aaa55_3388_49b0   script_2
     000A6F2F  GBVM$script_2$8a81624e_9a8f_4f2e   script_2
     000A6F3B  GBVM$script_2$bde24fe4_3c6e_42b5   script_2
     000A6F4D  GBVM$script_2$51d7a0b1_f0f6_4005   script_2
     000A6F5F  GBVM$script_2$e916377d_f284_44e3   script_2
     000A6F71  GBVM$script_2$99fa7872_f4f5_4f76   script_2
     000A6F86  GBVM$script_2$7c8ec79a_73df_40ad   script_2
     000A6FD9  GBVM_END$script_2$99fa7872_f4f5_   script_2
     000A6FDC  GBVM$script_2$8a86ceec_a4c6_4268   script_2
     000A702F  GBVM_END$script_2$e916377d_f284_   script_2
     000A7032  GBVM$script_2$89c1e6b4_0ef2_4cfa   script_2
     000A7085  GBVM_END$script_2$51d7a0b1_f0f6_   script_2
     000A7088  GBVM$script_2$8a2c5313_f29c_431d   script_2
     000A70DB  GBVM$script_2$61c443b3_179b_4247   script_2
     000A70DB  GBVM_END$script_2$0cd86a75_eceb_   script_2
     000A70DB  GBVM_END$script_2$bde24fe4_3c6e_   script_2
     000A70E7  GBVM$script_2$5cc76d3c_307a_426f   script_2
     000A7151  GBVM$script_2$3457b996_0f40_4ab5   script_2
     000A7165  GBVM$script_2$6f248dc8_a1d0_41ab   script_2
     000A7171  GBVM$script_2$f46731d9_0ca0_4fff   script_2
     000A717D  GBVM$script_2$7feab908_4d23_400b   script_2
     000A7192  GBVM$script_2$bdc2ae0b_d811_4ac4   script_2
     000A71A6  GBVM$script_2$9f26f5e0_5611_42d3   script_2
     000A71B2  GBVM$script_2$38aa9e15_5f6e_4754   script_2
     000A71C4  GBVM$script_2$b89046a3_472f_4478   script_2
     000A71D6  GBVM$script_2$97e41bb4_5126_4894   script_2
     000A71E8  GBVM$script_2$2a0fd7b1_17ac_4eb8   script_2
     000A71FD  GBVM$script_2$74887461_7b0b_4069   script_2
     000A7206  GBVM_END$script_2$2a0fd7b1_17ac_   script_2
     000A7209  GBVM$script_2$b3ff5aa9_a8d2_400a   script_2
     000A7212  GBVM_END$script_2$97e41bb4_5126_   script_2
     000A7215  GBVM$script_2$fb4ff337_608f_47e8   script_2
     000A721E  GBVM_END$script_2$b89046a3_472f_   script_2
     000A7221  GBVM$script_2$22ff6e19_7bb8_4f34   script_2
     000A722A  GBVM_END$script_2$38aa9e15_5f6e_   script_2
     000A722A  GBVM_END$script_2$7feab908_4d23_   script_2
     000A722D  GBVM_END$script_2$5cc76d3c_307a_   script_2
     000A7230  GBVM_END$script_2$46cc0da4_52b9_   script_2
     000A7230  GBVM_END$script_2$ae166873_911c_   script_2
     000A7234  _script_timer_0                    script_timer_0
     000A7236  GBVM$script_timer_0$4a9ab18b_18b   script_timer_0
     000A723F  GBVM$script_timer_0$b548a229_f50   script_timer_0
ASxxxx Linker V03.00/V05.40 + sdld,  page 74.
Hexadecimal  [32-Bits]

Area                                    Addr        Size        Decimal Bytes (Attributes)
--------------------------------        ----        ----        ------- ----- ------------
_CODE_10                            000A4000    00004000 =       16384. bytes (REL,CON)

      Value  Global                              Global Defined In Module
      -----  --------------------------------   ------------------------
     000A7260  GBVM$script_timer_0$89c16d01_b4d   script_timer_0
     000A7266  GBVM$script_timer_0$86c40ec0_93f   script_timer_0
     000A7273  _adventure_init                    adventure
     000A7288  _adventure_update                  adventure
     000A793F  _topdown_init                      topdown
     000A79D6  _topdown_update                    topdown

ASxxxx Linker V03.00/V05.40 + sdld,  page 75.
Hexadecimal  [32-Bits]

Area                                    Addr        Size        Decimal Bytes (Attributes)
--------------------------------        ----        ----        ------- ----- ------------
_CODE_17                            00114000    00004000 =       16384. bytes (REL,CON)

      Value  Global                              Global Defined In Module
      -----  --------------------------------   ------------------------
     00114000  _events_init                       events
     00114040  _timers_init                       events
     00114080  _restore_sram_bank                 flasher
     001140B6  _restore_sram                      flasher
     001140CC  _save_sram                         flasher
     001140F8  _scroll_rect                       
     00114135  _actor_100_interact                actor_100_interact
     00114136  GBVM$actor_100_interact$34e5d2a4   actor_100_interact
     0011416B  _actor_101_interact                actor_101_interact
     0011416C  GBVM$actor_101_interact$d623cba8   actor_101_interact
     0011419F  _actor_106_update                  actor_106_update
     001141A1  GBVM$actor_106_update$f398ff79_7   actor_106_update
     001141AD  GBVM$actor_106_update$f9b02f4b_c   actor_106_update
     001141FD  _actor_13_update                   actor_13_update
     001141FF  GBVM$actor_13_update$bb214417_19   actor_13_update
     0011420B  GBVM$actor_13_update$e3e78c0d_9b   actor_13_update
     0011421F  GBVM$actor_13_update$3760c96a_54   actor_13_update
     00114226  GBVM$actor_13_update$2a8bcd1b_87   actor_13_update
     0011426C  _actor_15_update                   actor_15_update
     0011426E  GBVM$actor_15_update$00773512_68   actor_15_update
     00114283  GBVM$actor_15_update$c9ea033b_b8   actor_15_update
     0011428F  GBVM$actor_15_update$4a44daf4_0d   actor_15_update
     00114290  GBVM$actor_15_update$295c8b34_30   actor_15_update
     0011429B  GBVM$actor_15_update$a5810813_4a   actor_15_update
     001142CD  GBVM_END$actor_15_update$0077351   actor_15_update
     001142D2  _actor_18_update                   actor_18_update
     001142D4  GBVM$actor_18_update$a88244c7_6e   actor_18_update
     001142E6  GBVM$actor_18_update$9c1368e2_b4   actor_18_update
     001142F9  GBVM$actor_18_update$bb920647_3a   actor_18_update
     00114301  GBVM$actor_18_update$68190aff_1f   actor_18_update
     00114333  GBVM_END$actor_18_update$a88244c   actor_18_update
     00114338  _actor_21_update                   actor_21_update
     0011433A  GBVM$actor_21_update$cba34e1c_57   actor_21_update
     00114346  GBVM$actor_21_update$7fd2fc4b_8b   actor_21_update
     00114396  _actor_23_update                   actor_23_update
     00114398  GBVM$actor_23_update$50394153_f5   actor_23_update
     001143A4  GBVM$actor_23_update$543beb95_bb   actor_23_update
     001143F4  _actor_25_update                   actor_25_update
     001143F6  GBVM$actor_25_update$9c1599bc_f1   actor_25_update
     00114419  GBVM$actor_25_update$fc9d426d_8c   actor_25_update
     00114441  _actor_26_interact                 actor_26_interact
     00114444  GBVM$actor_26_interact$1612c663_   actor_26_interact
     0011446B  GBVM$actor_26_interact$6febac4e_   actor_26_interact
     00114470  GBVM$actor_26_interact$7a40014b_   actor_26_interact
     00114475  GBVM$actor_26_interact$2d37f9ea_   actor_26_interact
     00114479  GBVM$actor_26_interact$920773e2_   actor_26_interact
     001144AC  _actor_33_update                   actor_33_update
     001144AE  GBVM$actor_33_update$8671ea01_33   actor_33_update
     001144BA  GBVM$actor_33_update$3d8a825b_e1   actor_33_update
     0011450A  _actor_35_update                   actor_35_update
ASxxxx Linker V03.00/V05.40 + sdld,  page 76.
Hexadecimal  [32-Bits]

Area                                    Addr        Size        Decimal Bytes (Attributes)
--------------------------------        ----        ----        ------- ----- ------------
_CODE_17                            00114000    00004000 =       16384. bytes (REL,CON)

      Value  Global                              Global Defined In Module
      -----  --------------------------------   ------------------------
     0011450C  GBVM$actor_35_update$fca9367e_5d   actor_35_update
     00114518  GBVM$actor_35_update$59e2b4f3_19   actor_35_update
     00114568  _actor_37_update                   actor_37_update
     0011456A  GBVM$actor_37_update$2af58185_1f   actor_37_update
     00114576  GBVM$actor_37_update$bdcb0f3b_76   actor_37_update
     001145C6  _actor_4_update                    actor_4_update
     001145C8  GBVM$actor_4_update$3df7ca76_e3f   actor_4_update
     001145D8  GBVM$actor_4_update$579809db_18c   actor_4_update
     001145ED  GBVM$actor_4_update$b48acf3b_03c   actor_4_update
     001145F9  GBVM$actor_4_update$a988da88_149   actor_4_update
     0011462B  GBVM_END$actor_4_update$579809db   actor_4_update
     00114630  _actor_45_update                   actor_45_update
     00114632  GBVM$actor_45_update$28737c1f_32   actor_45_update
     00114644  GBVM$actor_45_update$0a74c644_75   actor_45_update
     00114657  GBVM$actor_45_update$bd9e2eac_45   actor_45_update
     0011465F  GBVM$actor_45_update$40900222_fb   actor_45_update
     00114691  GBVM_END$actor_45_update$28737c1   actor_45_update
     00114696  _actor_53_update                   actor_53_update
     00114698  GBVM$actor_53_update$244ddca0_78   actor_53_update
     001146A4  GBVM$actor_53_update$ff26b771_a3   actor_53_update
     001146F4  _actor_54_update                   actor_54_update
     001146F6  GBVM$actor_54_update$8e2fc0c1_3a   actor_54_update
     001146FF  GBVM$actor_54_update$e8335acb_99   actor_54_update
     0011470A  GBVM$actor_54_update$7433459e_92   actor_54_update
     00114712  GBVM$actor_54_update$61addb27_a6   actor_54_update
     00114712  GBVM_END$actor_54_update$8e2fc0c   actor_54_update
     00114735  GBVM$actor_54_update$4719d120_36   actor_54_update
     00114767  GBVM$actor_54_update$8399cb39_65   actor_54_update
     00114770  _actor_55_update                   actor_55_update
     00114772  GBVM$actor_55_update$65446a6c_49   actor_55_update
     0011477B  GBVM$actor_55_update$693e7221_e5   actor_55_update
     00114786  GBVM$actor_55_update$5c6eccd3_6d   actor_55_update
     0011478E  GBVM$actor_55_update$e7063ee9_d6   actor_55_update
     0011478E  GBVM_END$actor_55_update$65446a6   actor_55_update
     001147B6  _actor_56_update                   actor_56_update
     001147B8  GBVM$actor_56_update$d79a995c_9c   actor_56_update
     001147DB  GBVM$actor_56_update$b042df37_02   actor_56_update
     001147E8  _actor_57_update                   actor_57_update
     001147EA  GBVM$actor_57_update$c1e8a4ce_0f   actor_57_update
     001147F6  GBVM$actor_57_update$e2af466d_73   actor_57_update
     00114846  _actor_63_interact                 actor_63_interact
     00114847  GBVM$actor_63_interact$098d3559_   actor_63_interact
     00114890  _actor_65_interact                 actor_65_interact
     00114891  GBVM$actor_65_interact$7f6562ff_   actor_65_interact
     001148CA  _actor_66_interact                 actor_66_interact
     001148CB  GBVM$actor_66_interact$80c2a8d5_   actor_66_interact
     00114918  _actor_67_interact                 actor_67_interact
     00114919  GBVM$actor_67_interact$3c08fd06_   actor_67_interact
     00114956  _actor_69_update                   actor_69_update
     00114958  GBVM$actor_69_update$9581c700_1f   actor_69_update
     00114964  GBVM$actor_69_update$b824fba1_d9   actor_69_update
ASxxxx Linker V03.00/V05.40 + sdld,  page 77.
Hexadecimal  [32-Bits]

Area                                    Addr        Size        Decimal Bytes (Attributes)
--------------------------------        ----        ----        ------- ----- ------------
_CODE_17                            00114000    00004000 =       16384. bytes (REL,CON)

      Value  Global                              Global Defined In Module
      -----  --------------------------------   ------------------------
     001149B4  _actor_70_interact                 actor_70_interact
     001149B5  GBVM$actor_70_interact$52ea76cb_   actor_70_interact
     001149F2  _actor_71_interact                 actor_71_interact
     001149F3  GBVM$actor_71_interact$5c61a9f3_   actor_71_interact
     00114A30  _actor_76_update                   actor_76_update
     00114A32  GBVM$actor_76_update$d0f9f754_f1   actor_76_update
     00114A3E  GBVM$actor_76_update$f557f9b4_41   actor_76_update
     00114A8E  _actor_77_update                   actor_77_update
     00114A90  GBVM$actor_77_update$939161b6_ff   actor_77_update
     00114A9C  GBVM$actor_77_update$d92de7d8_8f   actor_77_update
     00114AEC  _actor_78_interact                 actor_78_interact
     00114AED  GBVM$actor_78_interact$eb54ce9a_   actor_78_interact
     00114B24  _actor_79_interact                 actor_79_interact
     00114B25  GBVM$actor_79_interact$1339b12c_   actor_79_interact
     00114B6D  _actor_80_interact                 actor_80_interact
     00114B6E  GBVM$actor_80_interact$9ac9d7d4_   actor_80_interact
     00114BA2  _actor_81_update                   actor_81_update
     00114BA4  GBVM$actor_81_update$1c7fd17e_81   actor_81_update
     00114BB0  GBVM$actor_81_update$8216915a_a5   actor_81_update
     00114C00  _actor_82_update                   actor_82_update
     00114C02  GBVM$actor_82_update$75c9f33d_84   actor_82_update
     00114C0B  GBVM$actor_82_update$af3f5857_91   actor_82_update
     00114C16  GBVM$actor_82_update$b84cb047_37   actor_82_update
     00114C1E  GBVM$actor_82_update$9b3cb973_c0   actor_82_update
     00114C1E  GBVM_END$actor_82_update$75c9f33   actor_82_update
     00114C41  GBVM$actor_82_update$7f95674a_d5   actor_82_update
     00114C73  GBVM$actor_82_update$628cbe94_68   actor_82_update
     00114C7C  _actor_83_update                   actor_83_update
     00114C7E  GBVM$actor_83_update$77a600d5_a7   actor_83_update
     00114C87  GBVM$actor_83_update$a1dc3965_11   actor_83_update
     00114C92  GBVM$actor_83_update$d6804f20_f8   actor_83_update
     00114C9A  GBVM$actor_83_update$0e30b8cd_e0   actor_83_update
     00114C9A  GBVM_END$actor_83_update$77a600d   actor_83_update
     00114CC2  _actor_87_interact                 actor_87_interact
     00114CC3  GBVM$actor_87_interact$3874bfa6_   actor_87_interact
     00114D00  _actor_9_update                    actor_9_update
     00114D02  GBVM$actor_9_update$3b211a36_f20   actor_9_update
     00114D12  GBVM$actor_9_update$71bacee9_f80   actor_9_update
     00114D27  GBVM$actor_9_update$5fd783aa_7d7   actor_9_update
     00114D33  GBVM$actor_9_update$6afd69bb_aed   actor_9_update
     00114D65  GBVM_END$actor_9_update$71bacee9   actor_9_update
     00114D6A  _actor_90_update                   actor_90_update
     00114D6C  GBVM$actor_90_update$07930936_70   actor_90_update
     00114D78  GBVM$actor_90_update$e9864d6b_aa   actor_90_update
     00114DC8  _actor_91_interact                 actor_91_interact
     00114DC9  GBVM$actor_91_interact$8a007d1c_   actor_91_interact
     00114DFB  _actor_92_interact                 actor_92_interact
     00114DFC  GBVM$actor_92_interact$28622966_   actor_92_interact
     00114E71  _actor_94_update                   actor_94_update
     00114E73  GBVM$actor_94_update$80353c66_d9   actor_94_update
     00114E7F  GBVM$actor_94_update$cd33bb1b_f0   actor_94_update
ASxxxx Linker V03.00/V05.40 + sdld,  page 78.
Hexadecimal  [32-Bits]

Area                                    Addr        Size        Decimal Bytes (Attributes)
--------------------------------        ----        ----        ------- ----- ------------
_CODE_17                            00114000    00004000 =       16384. bytes (REL,CON)

      Value  Global                              Global Defined In Module
      -----  --------------------------------   ------------------------
     00114ECF  _actor_99_interact                 actor_99_interact
     00114ED0  GBVM$actor_99_interact$8b4a5ef0_   actor_99_interact
     00114F04  ___func_emote_anger                emote_anger
     00114F04  _emote_anger                       emote_anger
     00114F44  ___func_emote_music                emote_music
     00114F44  _emote_music                       emote_music
     00114F84  ___func_emote_pause                emote_pause
     00114F84  _emote_pause                       emote_pause
     00114FC4  ___func_emote_question             emote_question
     00114FC4  _emote_question                    emote_question
     00115004  ___func_emote_shock                emote_shock
     00115004  _emote_shock                       emote_shock
     00115044  ___func_scene_0                    scene_0
     00115044  _scene_0                           scene_0
     0011507F  _scene_1_init                      scene_1_init
     00115082  GBVM$scene_1_init$49d540c2_13cb_   scene_1_init
     0011508C  GBVM$scene_1_init$autofade$00484   scene_1_init
     00115097  GBVM$scene_1_init$eb3f07b5_2c82_   scene_1_init
     001150CA  ___func_scene_1                    scene_1
     001150CA  _scene_1                           scene_1
     00115105  ___func_scene_10_actors            scene_10_actors
     00115105  _scene_10_actors                   scene_10_actors
     00115139  ___func_scene_10                   scene_10
     00115139  _scene_10                          scene_10
     00115174  ___func_scene_11                   scene_11
     00115174  _scene_11                          scene_11
     001151AF  _scene_12_init                     scene_12_init
     001151B2  GBVM$scene_12_init$4112fbbd_dab4   scene_12_init
     001151BB  GBVM$scene_12_init$19384a81_8419   scene_12_init
     001151C4  GBVM$scene_12_init$4bdfa2f7_e07b   scene_12_init
     001151CD  GBVM$scene_12_init$589a1ba9_4d34   scene_12_init
     001151CE  GBVM$scene_12_init$bcad2bca_cf99   scene_12_init
     001151D2  GBVM$scene_12_init$0940a12c_e22b   scene_12_init
     001151D2  GBVM$scene_12_init$fd3731cb_e082   scene_12_init
     001151DA  GBVM$scene_12_init$52852d16_8473   scene_12_init
     001151DA  GBVM_END$scene_12_init$0940a12c_   scene_12_init
     001151DA  GBVM_END$scene_12_init$fd3731cb_   scene_12_init
     001151DF  GBVM$scene_12_init$9ab3799e_9ae0   scene_12_init
     001151E4  GBVM$scene_12_init$182567c0_15f1   scene_12_init
     001151E9  GBVM$scene_12_init$autofade$8b23   scene_12_init
     001151F5  ___func_scene_12                   scene_12
     001151F5  _scene_12                          scene_12
     00115230  ___func_scene_13_actors            scene_13_actors
     00115230  _scene_13_actors                   scene_13_actors
     00115264  ___func_scene_13                   scene_13
     00115264  _scene_13                          scene_13
     0011529F  _scene_14_init                     scene_14_init
     001152A0  GBVM$scene_14_init$22ea75b1_5566   scene_14_init
     001152AA  GBVM$scene_14_init$a82e5e78_7ba8   scene_14_init
     001152B4  GBVM$scene_14_init$0bc5d1a7_bca3   scene_14_init
     001152BE  GBVM$scene_14_init$25839c5b_2c73   scene_14_init
ASxxxx Linker V03.00/V05.40 + sdld,  page 79.
Hexadecimal  [32-Bits]

Area                                    Addr        Size        Decimal Bytes (Attributes)
--------------------------------        ----        ----        ------- ----- ------------
_CODE_17                            00114000    00004000 =       16384. bytes (REL,CON)

      Value  Global                              Global Defined In Module
      -----  --------------------------------   ------------------------
     001152C8  GBVM$scene_14_init$5567b3a5_3d9a   scene_14_init
     001152C8  GBVM$scene_14_init$cca697cd_8c5c   scene_14_init
     001152D0  GBVM$scene_14_init$db971cc1_5883   scene_14_init
     001152D0  GBVM_END$scene_14_init$5567b3a5_   scene_14_init
     001152D0  GBVM_END$scene_14_init$cca697cd_   scene_14_init
     001152D8  GBVM$scene_14_init$autofade$5e3e   scene_14_init
     001152D8  GBVM_END$scene_14_init$db971cc1_   scene_14_init
     001152E4  ___func_scene_14                   scene_14
     001152E4  _scene_14                          scene_14
     0011531F  _scene_15_init                     scene_15_init
     00115322  GBVM$scene_15_init$autofade$4f9b   scene_15_init
     0011532D  GBVM$scene_15_init$83ad9453_8b8c   scene_15_init
     00115339  GBVM$scene_15_init$fad04384_4763   scene_15_init
     0011533A  GBVM$scene_15_init$bf14c8b0_a3a2   scene_15_init
     0011533E  GBVM$scene_15_init$244b92c3_d2e1   scene_15_init
     00115371  ___func_scene_15                   scene_15
     00115371  _scene_15                          scene_15
     001153AC  ___func_scene_16                   scene_16
     001153AC  _scene_16                          scene_16
     001153E7  ___func_scene_17                   scene_17
     001153E7  _scene_17                          scene_17
     00115422  ___func_scene_18                   scene_18
     00115422  _scene_18                          scene_18
     0011545D  ___func_scene_19                   scene_19
     0011545D  _scene_19                          scene_19
     00115498  ___func_scene_2                    scene_2
     00115498  _scene_2                           scene_2
     001154D3  ___func_scene_20_actors            scene_20_actors
     001154D3  _scene_20_actors                   scene_20_actors
     0011553B  _scene_20_init                     scene_20_init
     0011553E  GBVM$scene_20_init$5dc722f6_0bf5   scene_20_init
     00115548  GBVM$scene_20_init$bb199909_ac9c   scene_20_init
     00115552  GBVM$scene_20_init$3b9881c2_3bc1   scene_20_init
     00115557  GBVM$scene_20_init$8496cd72_e0c1   scene_20_init
     0011555C  GBVM$scene_20_init$d9608a05_18d6   scene_20_init
     0011555D  GBVM$scene_20_init$0905886a_34da   scene_20_init
     00115561  GBVM$scene_20_init$647287f0_746e   scene_20_init
     0011556B  GBVM$scene_20_init$b1ef31fe_0f73   scene_20_init
     00115575  GBVM$scene_20_init$46a512ee_0392   scene_20_init
     0011557F  GBVM$scene_20_init$f5edd8a1_db4a   scene_20_init
     00115587  GBVM$scene_20_init$autofade$7d4e   scene_20_init
     00115587  GBVM_END$scene_20_init$f5edd8a1_   scene_20_init
     00115593  ___func_scene_20                   scene_20
     00115593  _scene_20                          scene_20
     001155CE  ___func_scene_21                   scene_21
     001155CE  _scene_21                          scene_21
     00115609  ___func_scene_22                   scene_22
     00115609  _scene_22                          scene_22
     00115644  _scene_23_init                     scene_23_init
     00115647  GBVM$scene_23_init$4862a5bb_dc72   scene_23_init
     00115651  GBVM$scene_23_init$autofade$8f1f   scene_23_init
ASxxxx Linker V03.00/V05.40 + sdld,  page 80.
Hexadecimal  [32-Bits]

Area                                    Addr        Size        Decimal Bytes (Attributes)
--------------------------------        ----        ----        ------- ----- ------------
_CODE_17                            00114000    00004000 =       16384. bytes (REL,CON)

      Value  Global                              Global Defined In Module
      -----  --------------------------------   ------------------------
     0011565C  GBVM$scene_23_init$7b090cfa_329b   scene_23_init
     00115668  GBVM$scene_23_init$19b2ccd1_d262   scene_23_init
     0011569B  ___func_scene_23                   scene_23
     0011569B  _scene_23                          scene_23
     001156D6  ___func_scene_24                   scene_24
     001156D6  _scene_24                          scene_24
     00115711  ___func_scene_25_actors            scene_25_actors
     00115711  _scene_25_actors                   scene_25_actors
     00115779  ___func_scene_25                   scene_25
     00115779  _scene_25                          scene_25
     001157B4  ___func_scene_26                   scene_26
     001157B4  _scene_26                          scene_26
     001157EF  ___func_scene_27_actors            scene_27_actors
     001157EF  _scene_27_actors                   scene_27_actors
     00115857  _scene_27_init                     scene_27_init
     0011585A  GBVM$scene_27_init$64d915eb_c8ed   scene_27_init
     00115863  GBVM$scene_27_init$c0883406_f1b2   scene_27_init
     00115873  GBVM$scene_27_init$8a32ced5_5cb8   scene_27_init
     0011587D  GBVM$scene_27_init$fc4fc3ed_bc7e   scene_27_init
     00115882  GBVM$scene_27_init$a3de954f_27ad   scene_27_init
     00115883  GBVM$scene_27_init$b936ee26_b730   scene_27_init
     00115887  GBVM$scene_27_init$0338604b_bcd6   scene_27_init
     00115887  GBVM$scene_27_init$f36eab15_f938   scene_27_init
     0011588F  GBVM$scene_27_init$autofade$139c   scene_27_init
     0011588F  GBVM_END$scene_27_init$0338604b_   scene_27_init
     0011588F  GBVM_END$scene_27_init$f36eab15_   scene_27_init
     0011589B  ___func_scene_27_triggers          scene_27_triggers
     0011589B  _scene_27_triggers                 scene_27_triggers
     0011590B  ___func_scene_27                   scene_27
     0011590B  _scene_27                          scene_27
     00115946  ___func_scene_28                   scene_28
     00115946  _scene_28                          scene_28
     00115981  ___func_scene_29_actors            scene_29_actors
     00115981  _scene_29_actors                   scene_29_actors
     001159E9  ___func_scene_29                   scene_29
     001159E9  _scene_29                          scene_29
     00115A24  ___func_scene_3                    scene_3
     00115A24  _scene_3                           scene_3
     00115A5F  ___func_scene_30_actors            scene_30_actors
     00115A5F  _scene_30_actors                   scene_30_actors
     00115A93  ___func_scene_30_sprites           scene_30_sprites
     00115A93  _scene_30_sprites                  scene_30_sprites
     00115A96  ___func_scene_30                   scene_30
     00115A96  _scene_30                          scene_30
     00115AD1  ___func_scene_31                   scene_31
     00115AD1  _scene_31                          scene_31
     00115B0C  ___func_scene_32_actors            scene_32_actors
     00115B0C  _scene_32_actors                   scene_32_actors
     00115B74  ___func_scene_32                   scene_32
     00115B74  _scene_32                          scene_32
     00115BAF  ___func_scene_33                   scene_33
ASxxxx Linker V03.00/V05.40 + sdld,  page 81.
Hexadecimal  [32-Bits]

Area                                    Addr        Size        Decimal Bytes (Attributes)
--------------------------------        ----        ----        ------- ----- ------------
_CODE_17                            00114000    00004000 =       16384. bytes (REL,CON)

      Value  Global                              Global Defined In Module
      -----  --------------------------------   ------------------------
     00115BAF  _scene_33                          scene_33
     00115BEA  ___func_scene_34                   scene_34
     00115BEA  _scene_34                          scene_34
     00115C25  _scene_35_init                     scene_35_init
     00115C28  GBVM$scene_35_init$autofade$9fff   scene_35_init
     00115C33  GBVM$scene_35_init$92c0b803_b928   scene_35_init
     00115C3F  GBVM$scene_35_init$351d7fc1_b151   scene_35_init
     00115C40  GBVM$scene_35_init$75b15432_9128   scene_35_init
     00115C44  GBVM$scene_35_init$01a34f6d_687e   scene_35_init
     00115C77  ___func_scene_35                   scene_35
     00115C77  _scene_35                          scene_35
     00115CB2  ___func_scene_36                   scene_36
     00115CB2  _scene_36                          scene_36
     00115CED  ___func_scene_37                   scene_37
     00115CED  _scene_37                          scene_37
     00115D28  ___func_scene_38                   scene_38
     00115D28  _scene_38                          scene_38
     00115D63  ___func_scene_39                   scene_39
     00115D63  _scene_39                          scene_39
     00115D9E  _scene_4_init                      scene_4_init
     00115DA1  GBVM$scene_4_init$7dfdffa6_950b_   scene_4_init
     00115DAB  GBVM$scene_4_init$8c16266d_1b11_   scene_4_init
     00115DB4  GBVM$scene_4_init$autofade$33546   scene_4_init
     00115DBF  GBVM$scene_4_init$df7cf45f_4b56_   scene_4_init
     00115DFA  GBVM$scene_4_init$3eed5587_75ff_   scene_4_init
     00115DFA  GBVM$scene_4_init$4a1a40a5_2740_   scene_4_init
     00115E02  GBVM_END$scene_4_init$3eed5587_7   scene_4_init
     00115E02  GBVM_END$scene_4_init$4a1a40a5_2   scene_4_init
     00115E03  ___func_scene_4                    scene_4
     00115E03  _scene_4                           scene_4
     00115E3E  ___func_scene_40                   scene_40
     00115E3E  _scene_40                          scene_40
     00115E79  ___func_scene_41_actors            scene_41_actors
     00115E79  _scene_41_actors                   scene_41_actors
     00115EAD  ___func_scene_41                   scene_41
     00115EAD  _scene_41                          scene_41
     00115EE8  ___func_scene_42                   scene_42
     00115EE8  _scene_42                          scene_42
     00115F23  ___func_scene_43                   scene_43
     00115F23  _scene_43                          scene_43
     00115F5E  ___func_scene_44_actors            scene_44_actors
     00115F5E  _scene_44_actors                   scene_44_actors
     00115F92  ___func_scene_44                   scene_44
     00115F92  _scene_44                          scene_44
     00115FCD  _scene_46_init                     scene_46_init
     00115FD0  GBVM$scene_46_init$a8a514be_9373   scene_46_init
     00115FDC  GBVM$scene_46_init$96ecd151_ee77   scene_46_init
     00115FE4  GBVM$scene_46_init$9ac028ed_7a2a   scene_46_init
     00115FE4  GBVM_END$scene_46_init$a8a514be_   scene_46_init
     00115FF0  GBVM$scene_46_init$b7bb3a2e_b708   scene_46_init
     00115FF8  GBVM$scene_46_init$d7e9a538_161c   scene_46_init
ASxxxx Linker V03.00/V05.40 + sdld,  page 82.
Hexadecimal  [32-Bits]

Area                                    Addr        Size        Decimal Bytes (Attributes)
--------------------------------        ----        ----        ------- ----- ------------
_CODE_17                            00114000    00004000 =       16384. bytes (REL,CON)

      Value  Global                              Global Defined In Module
      -----  --------------------------------   ------------------------
     00115FF8  GBVM_END$scene_46_init$9ac028ed_   scene_46_init
     00116004  GBVM$scene_46_init$e4d61888_934b   scene_46_init
     0011600C  GBVM$scene_46_init$c5fd9e2b_f1f1   scene_46_init
     0011600C  GBVM_END$scene_46_init$d7e9a538_   scene_46_init
     00116018  GBVM$scene_46_init$5d9488cf_fc4a   scene_46_init
     00116020  GBVM$scene_46_init$cebdea9e_5746   scene_46_init
     00116020  GBVM$scene_46_init$fcb4445d_06c0   scene_46_init
     00116020  GBVM_END$scene_46_init$c5fd9e2b_   scene_46_init
     00116028  GBVM$scene_46_init$autofade$6cff   scene_46_init
     00116028  GBVM_END$scene_46_init$cebdea9e_   scene_46_init
     00116028  GBVM_END$scene_46_init$fcb4445d_   scene_46_init
     00116034  ___func_scene_46                   scene_46
     00116034  _scene_46                          scene_46
     0011606F  ___func_scene_5_actors             scene_5_actors
     0011606F  _scene_5_actors                    scene_5_actors
     001160A3  _scene_5_init                      scene_5_init
     001160A6  GBVM$scene_5_init$acb859e3_873b_   scene_5_init
     001160AE  GBVM$scene_5_init$33a6090b_bd63_   scene_5_init
     001160B3  GBVM$scene_5_init$4fe31869_f817_   scene_5_init
     001160BC  GBVM$scene_5_init$57052cbb_559b_   scene_5_init
     001160C4  GBVM$scene_5_init$f250ac5d_4c24_   scene_5_init
     001160C4  GBVM_END$scene_5_init$57052cbb_5   scene_5_init
     001160CC  GBVM$scene_5_init$c506bd03_b2eb_   scene_5_init
     001160CC  GBVM_END$scene_5_init$f250ac5d_4   scene_5_init
     001160D4  GBVM$scene_5_init$autofade$3f0ef   scene_5_init
     001160D4  GBVM_END$scene_5_init$c506bd03_b   scene_5_init
     001160E0  ___func_scene_5                    scene_5
     001160E0  _scene_5                           scene_5
     0011611B  _scene_6_init                      scene_6_init
     0011611C  GBVM$scene_6_init$46d9ee02_9788_   scene_6_init
     00116126  GBVM$scene_6_init$672c2dd4_1894_   scene_6_init
     00116130  GBVM$scene_6_init$97211c41_a46d_   scene_6_init
     0011613A  GBVM$scene_6_init$088d3e36_7424_   scene_6_init
     00116144  GBVM$scene_6_init$461ce7d0_794a_   scene_6_init
     00116148  GBVM$scene_6_init$0fa4daa6_2437_   scene_6_init
     00116148  GBVM$scene_6_init$b0708d92_5707_   scene_6_init
     00116150  GBVM$scene_6_init$51c86778_da39_   scene_6_init
     00116150  GBVM_END$scene_6_init$0fa4daa6_2   scene_6_init
     00116150  GBVM_END$scene_6_init$b0708d92_5   scene_6_init
     00116158  GBVM$scene_6_init$37fb0d7a_461c_   scene_6_init
     00116158  GBVM_END$scene_6_init$51c86778_d   scene_6_init
     0011615D  GBVM$scene_6_init$autofade$78183   scene_6_init
     00116169  ___func_scene_6                    scene_6
     00116169  _scene_6                           scene_6
     001161A4  ___func_scene_7_actors             scene_7_actors
     001161A4  _scene_7_actors                    scene_7_actors
     0011620C  _scene_7_init                      scene_7_init
     0011620F  GBVM$scene_7_init$32eb00f7_f091_   scene_7_init
     00116218  GBVM$scene_7_init$5b5887e4_4452_   scene_7_init
     00116228  GBVM$scene_7_init$f1ee1f0f_2f67_   scene_7_init
     00116232  GBVM$scene_7_init$056ef4b1_0e07_   scene_7_init
ASxxxx Linker V03.00/V05.40 + sdld,  page 83.
Hexadecimal  [32-Bits]

Area                                    Addr        Size        Decimal Bytes (Attributes)
--------------------------------        ----        ----        ------- ----- ------------
_CODE_17                            00114000    00004000 =       16384. bytes (REL,CON)

      Value  Global                              Global Defined In Module
      -----  --------------------------------   ------------------------
     00116237  GBVM$scene_7_init$6ac4a94c_c637_   scene_7_init
     0011623B  GBVM$scene_7_init$28e38f17_86d2_   scene_7_init
     0011623B  GBVM$scene_7_init$cffc7f01_aebb_   scene_7_init
     00116243  GBVM$scene_7_init$autofade$596cd   scene_7_init
     00116243  GBVM_END$scene_7_init$28e38f17_8   scene_7_init
     00116243  GBVM_END$scene_7_init$cffc7f01_a   scene_7_init
     0011624F  ___func_scene_7_triggers           scene_7_triggers
     0011624F  _scene_7_triggers                  scene_7_triggers
     001162BF  ___func_scene_7                    scene_7
     001162BF  _scene_7                           scene_7
     001162FA  ___func_scene_8                    scene_8
     001162FA  _scene_8                           scene_8
     00116335  ___func_scene_9                    scene_9
     00116335  _scene_9                           scene_9
     00116370  _script_4                          script_4
     00116372  GBVM$script_4$3cf5b2c0_de9f_4393   script_4
     00116393  GBVM$script_4$21c157d6_19fc_4dfa   script_4
     00116399  GBVM$script_4$4f917f20_d2eb_41fc   script_4
     001163A9  _script_engine_init                
     00116429  _script_input_0                    script_input_0
     0011642B  GBVM$script_input_0$c6b09240_55c   script_input_0
     0011643D  GBVM$script_input_0$cc910eb3_9b3   script_input_0
     0011643E  GBVM$script_input_0$b78937bb_3cf   script_input_0
     00116471  _script_input_1                    script_input_1
     00116473  GBVM$script_input_1$ae48d0ce_91a   script_input_1
     00116474  GBVM$script_input_1$1c3c65f1_f2b   script_input_1
     00116486  GBVM$script_input_1$d48f5ce4_333   script_input_1
     00116487  GBVM$script_input_1$86fe8fd6_e8a   script_input_1
     001164BA  _script_input_10                   script_input_10
     001164BC  GBVM$script_input_10$d1a7dc8e_35   script_input_10
     001164C2  GBVM$script_input_10$973b885d_e0   script_input_10
     001164C3  GBVM$script_input_10$bf2989c8_58   script_input_10
     001164F6  _script_input_12                   script_input_12
     001164F8  GBVM$script_input_12$e2c080bf_31   script_input_12
     001164FE  GBVM$script_input_12$f4eb2f11_eb   script_input_12
     001164FF  GBVM$script_input_12$ddb6a62c_de   script_input_12
     00116532  _script_input_13                   script_input_13
     00116534  GBVM$script_input_13$e46871e1_36   script_input_13
     0011653A  GBVM$script_input_13$6a2151fc_30   script_input_13
     0011653B  GBVM$script_input_13$4d050210_e6   script_input_13
     0011656E  _script_input_14                   script_input_14
     00116570  GBVM$script_input_14$48e51c55_b4   script_input_14
     00116576  GBVM$script_input_14$4290d2f6_2a   script_input_14
     00116577  GBVM$script_input_14$8a366c44_3d   script_input_14
     001165AA  _script_input_15                   script_input_15
     001165AC  GBVM$script_input_15$d0f714c6_2d   script_input_15
     001165B2  GBVM$script_input_15$dbcb82be_6a   script_input_15
     001165B3  GBVM$script_input_15$2c279099_84   script_input_15
     001165E6  _script_input_16                   script_input_16
     001165E8  GBVM$script_input_16$eabfaddb_eb   script_input_16
     001165EE  GBVM$script_input_16$4b52e1c4_7d   script_input_16
ASxxxx Linker V03.00/V05.40 + sdld,  page 84.
Hexadecimal  [32-Bits]

Area                                    Addr        Size        Decimal Bytes (Attributes)
--------------------------------        ----        ----        ------- ----- ------------
_CODE_17                            00114000    00004000 =       16384. bytes (REL,CON)

      Value  Global                              Global Defined In Module
      -----  --------------------------------   ------------------------
     001165EF  GBVM$script_input_16$20c5f1c3_52   script_input_16
     00116622  _script_input_17                   script_input_17
     00116624  GBVM$script_input_17$350c03f7_8c   script_input_17
     00116657  _script_input_18                   script_input_18
     00116659  GBVM$script_input_18$b9649565_06   script_input_18
     0011665F  GBVM$script_input_18$7297e4ce_ef   script_input_18
     00116678  GBVM$script_input_18$46f9118e_25   script_input_18
     001166AB  _script_input_19                   script_input_19
     001166AD  GBVM$script_input_19$f3245ef6_5d   script_input_19
     001166E0  _script_input_2                    script_input_2
     001166E2  GBVM$script_input_2$b749c872_24e   script_input_2
     001166F4  GBVM$script_input_2$65e6391e_9bd   script_input_2
     001166F5  GBVM$script_input_2$fd5c75ab_b21   script_input_2
     00116728  _script_input_20                   script_input_20
     0011672A  GBVM$script_input_20$4866c648_53   script_input_20
     00116730  GBVM$script_input_20$b24ed59e_70   script_input_20
     00116731  GBVM$script_input_20$881ac93d_37   script_input_20
     00116764  _script_input_21                   script_input_21
     00116766  GBVM$script_input_21$96c28dd7_d8   script_input_21
     0011676C  GBVM$script_input_21$293e539f_17   script_input_21
     0011676D  GBVM$script_input_21$0695ff21_76   script_input_21
     001167A0  _script_input_22                   script_input_22
     001167A2  GBVM$script_input_22$15a4eb30_74   script_input_22
     001167B4  GBVM$script_input_22$7fb15fdb_3c   script_input_22
     001167B5  GBVM$script_input_22$1cc42a46_fc   script_input_22
     001167E8  _script_input_23                   script_input_23
     001167EA  GBVM$script_input_23$9e01b37a_ad   script_input_23
     001167F0  GBVM$script_input_23$d8260382_6f   script_input_23
     00116809  GBVM$script_input_23$073e0691_94   script_input_23
     0011683C  _script_input_24                   script_input_24
     0011683E  GBVM$script_input_24$4aacaecc_a1   script_input_24
     00116844  GBVM$script_input_24$16e5fd80_54   script_input_24
     0011685D  GBVM$script_input_24$b5d8df98_70   script_input_24
     00116890  _script_input_25                   script_input_25
     00116892  GBVM$script_input_25$43863f1f_c4   script_input_25
     00116898  GBVM$script_input_25$440119d7_18   script_input_25
     001168B1  GBVM$script_input_25$957b13d1_cf   script_input_25
     001168E4  _script_input_26                   script_input_26
     001168E6  GBVM$script_input_26$45cc8a1e_00   script_input_26
     001168EC  GBVM$script_input_26$4cb71bf1_5c   script_input_26
     00116905  GBVM$script_input_26$f8a05fee_ee   script_input_26
     00116938  _script_input_27                   script_input_27
     0011693A  GBVM$script_input_27$b1efa0c2_74   script_input_27
     00116940  GBVM$script_input_27$cd9e03cc_26   script_input_27
     00116941  GBVM$script_input_27$f800a0f1_c9   script_input_27
     00116974  _script_input_28                   script_input_28
     00116976  GBVM$script_input_28$2cf53f70_07   script_input_28
     0011697C  GBVM$script_input_28$c4e237a7_9d   script_input_28
     0011697D  GBVM$script_input_28$cab897bd_0a   script_input_28
     001169B0  _script_input_29                   script_input_29
     001169B2  GBVM$script_input_29$7f65f5ab_33   script_input_29
ASxxxx Linker V03.00/V05.40 + sdld,  page 85.
Hexadecimal  [32-Bits]

Area                                    Addr        Size        Decimal Bytes (Attributes)
--------------------------------        ----        ----        ------- ----- ------------
_CODE_17                            00114000    00004000 =       16384. bytes (REL,CON)

      Value  Global                              Global Defined In Module
      -----  --------------------------------   ------------------------
     001169B8  GBVM$script_input_29$abf43937_c0   script_input_29
     001169B9  GBVM$script_input_29$b0fac502_a6   script_input_29
     001169EC  _script_input_3                    script_input_3
     001169EE  GBVM$script_input_3$13f55936_fe8   script_input_3
     00116A00  GBVM$script_input_3$b1749932_ea0   script_input_3
     00116A12  GBVM$script_input_3$7f77b7f8_cc0   script_input_3
     00116A27  _script_input_30                   script_input_30
     00116A29  GBVM$script_input_30$6e746a48_13   script_input_30
     00116A2F  GBVM$script_input_30$e6e8be54_92   script_input_30
     00116A30  GBVM$script_input_30$6af5f576_51   script_input_30
     00116A63  _script_input_31                   script_input_31
     00116A65  GBVM$script_input_31$c17d69a6_43   script_input_31
     00116A6B  GBVM$script_input_31$29ef45aa_53   script_input_31
     00116A6C  GBVM$script_input_31$22eb0efe_7e   script_input_31
     00116A9F  _script_input_7                    script_input_7
     00116AA1  GBVM$script_input_7$6e0c783a_dc2   script_input_7
     00116AA7  GBVM$script_input_7$91f32c33_3f0   script_input_7
     00116AA8  GBVM$script_input_7$c3f40123_830   script_input_7
     00116ADB  _script_input_8                    script_input_8
     00116ADD  GBVM$script_input_8$1cb33ec8_1e1   script_input_8
     00116AE3  GBVM$script_input_8$3edf2dfc_e90   script_input_8
     00116AE4  GBVM$script_input_8$2aaf4ca0_925   script_input_8
     00116B17  _script_timer_1                    script_timer_1
     00116B19  GBVM$script_timer_1$495c2ba5_e1f   script_timer_1
     00116B22  GBVM$script_timer_1$251ca9b4_a92   script_timer_1
     00116B43  GBVM$script_timer_1$2f1b47b1_db1   script_timer_1
     00116B50  ___func_sound_hurt_vgm             sound_hurt_vgm
     00116B50  _sound_hurt_vgm                    sound_hurt_vgm
     00116B90  ___func_sound_legacy_4             sound_legacy_4
     00116B90  _sound_legacy_4                    sound_legacy_4
     00116BC8  ___func_sound_legacy_5             sound_legacy_5
     00116BC8  _sound_legacy_5                    sound_legacy_5
     00116C00  ___func_sound_pause_vgm            sound_pause_vgm
     00116C00  _sound_pause_vgm                   sound_pause_vgm
     00116C54  ___func_sprite_actor               sprite_actor
     00116C54  _sprite_actor_metasprite_0         sprite_actor
     00116C60  _sprite_actor_metasprite_1         sprite_actor
     00116C6C  _sprite_actor_metasprite_2         sprite_actor
     00116C78  _sprite_actor_metasprite_3         sprite_actor
     00116C84  _sprite_actor_metasprites          sprite_actor
     00116C8C  _sprite_actor_animations           sprite_actor
     00116C9C  _sprite_actor_animations_lookup    sprite_actor
     00116C9E  _sprite_actor                      sprite_actor
     00116CB1  ___func_sprite_arcabuz_tileset     sprite_arcabuz_tileset
     00116CB1  _sprite_arcabuz_tileset            sprite_arcabuz_tileset
     00116CF3  ___func_sprite_arcabuz             sprite_arcabuz
     00116CF3  _sprite_arcabuz_metasprite_0       sprite_arcabuz
     00116CFF  _sprite_arcabuz_metasprites        sprite_arcabuz
     00116D01  _sprite_arcabuz_animations         sprite_arcabuz
     00116D11  _sprite_arcabuz_animations_looku   sprite_arcabuz
     00116D13  _sprite_arcabuz                    sprite_arcabuz
ASxxxx Linker V03.00/V05.40 + sdld,  page 86.
Hexadecimal  [32-Bits]

Area                                    Addr        Size        Decimal Bytes (Attributes)
--------------------------------        ----        ----        ------- ----- ------------
_CODE_17                            00114000    00004000 =       16384. bytes (REL,CON)

      Value  Global                              Global Defined In Module
      -----  --------------------------------   ------------------------
     00116D26  ___func_sprite_boat_life_bar       sprite_boat_life_bar
     00116D26  _sprite_boat_life_bar_metasprite   sprite_boat_life_bar
     00116D3A  _sprite_boat_life_bar_metasprite   sprite_boat_life_bar
     00116D4E  _sprite_boat_life_bar_metasprite   sprite_boat_life_bar
     00116D62  _sprite_boat_life_bar_metasprite   sprite_boat_life_bar
     00116D76  _sprite_boat_life_bar_metasprite   sprite_boat_life_bar
     00116D7E  _sprite_boat_life_bar_animations   sprite_boat_life_bar
     00116D8E  _sprite_boat_life_bar_animations   sprite_boat_life_bar
     00116D90  _sprite_boat_life_bar              sprite_boat_life_bar
     00116DA3  ___func_sprite_boat_life_reverse   sprite_boat_life_reverse
     00116DA3  _sprite_boat_life_reverse_metasp   sprite_boat_life_reverse
     00116DB7  _sprite_boat_life_reverse_metasp   sprite_boat_life_reverse
     00116DCB  _sprite_boat_life_reverse_metasp   sprite_boat_life_reverse
     00116DDF  _sprite_boat_life_reverse_metasp   sprite_boat_life_reverse
     00116DF3  _sprite_boat_life_reverse_metasp   sprite_boat_life_reverse
     00116DFB  _sprite_boat_life_reverse_animat   sprite_boat_life_reverse
     00116E0B  _sprite_boat_life_reverse_animat   sprite_boat_life_reverse
     00116E0D  _sprite_boat_life_reverse          sprite_boat_life_reverse
     00116E20  ___func_sprite_caixa_1_tileset     sprite_caixa_1_tileset
     00116E20  _sprite_caixa_1_tileset            sprite_caixa_1_tileset
     00116E62  ___func_sprite_caixa_1             sprite_caixa_1
     00116E62  _sprite_caixa_1_metasprite_0       sprite_caixa_1
     00116E6E  _sprite_caixa_1_metasprites        sprite_caixa_1
     00116E70  _sprite_caixa_1_animations         sprite_caixa_1
     00116E80  _sprite_caixa_1_animations_looku   sprite_caixa_1
     00116E82  _sprite_caixa_1                    sprite_caixa_1
     00116E95  ___func_sprite_comerciante1_1      sprite_comerciante1_1
     00116E95  _sprite_comerciante1_1_metasprit   sprite_comerciante1_1
     00116EA1  _sprite_comerciante1_1_metasprit   sprite_comerciante1_1
     00116EAD  _sprite_comerciante1_1_metasprit   sprite_comerciante1_1
     00116EB1  _sprite_comerciante1_1_animation   sprite_comerciante1_1
     00116EC1  _sprite_comerciante1_1_animation   sprite_comerciante1_1
     00116EC3  _sprite_comerciante1_1             sprite_comerciante1_1
     00116ED6  ___func_sprite_comerciante1_2      sprite_comerciante1_2
     00116ED6  _sprite_comerciante1_2_metasprit   sprite_comerciante1_2
     00116EE2  _sprite_comerciante1_2_metasprit   sprite_comerciante1_2
     00116EEE  _sprite_comerciante1_2_metasprit   sprite_comerciante1_2
     00116EF2  _sprite_comerciante1_2_animation   sprite_comerciante1_2
     00116F02  _sprite_comerciante1_2_animation   sprite_comerciante1_2
     00116F04  _sprite_comerciante1_2             sprite_comerciante1_2
     00116F17  ___func_sprite_comerciante2_1      sprite_comerciante2_1
     00116F17  _sprite_comerciante2_1_metasprit   sprite_comerciante2_1
     00116F23  _sprite_comerciante2_1_metasprit   sprite_comerciante2_1
     00116F2F  _sprite_comerciante2_1_metasprit   sprite_comerciante2_1
     00116F33  _sprite_comerciante2_1_animation   sprite_comerciante2_1
     00116F43  _sprite_comerciante2_1_animation   sprite_comerciante2_1
     00116F45  _sprite_comerciante2_1             sprite_comerciante2_1
     00116F58  ___func_sprite_comerciante2_2_ti   sprite_comerciante2_2_tilese
     00116F58  _sprite_comerciante2_2_tileset     sprite_comerciante2_2_tilese
     00116FDA  ___func_sprite_comerciante2_2      sprite_comerciante2_2
     00116FDA  _sprite_comerciante2_2_metasprit   sprite_comerciante2_2
ASxxxx Linker V03.00/V05.40 + sdld,  page 87.
Hexadecimal  [32-Bits]

Area                                    Addr        Size        Decimal Bytes (Attributes)
--------------------------------        ----        ----        ------- ----- ------------
_CODE_17                            00114000    00004000 =       16384. bytes (REL,CON)

      Value  Global                              Global Defined In Module
      -----  --------------------------------   ------------------------
     00116FE6  _sprite_comerciante2_2_metasprit   sprite_comerciante2_2
     00116FF2  _sprite_comerciante2_2_metasprit   sprite_comerciante2_2
     00116FF6  _sprite_comerciante2_2_animation   sprite_comerciante2_2
     00117006  _sprite_comerciante2_2_animation   sprite_comerciante2_2
     00117008  _sprite_comerciante2_2             sprite_comerciante2_2
     0011701B  ___func_sprite_espada_europeia_t   sprite_espada_europeia_tiles
     0011701B  _sprite_espada_europeia_tileset    sprite_espada_europeia_tiles
     0011705D  ___func_sprite_espada_europeia     sprite_espada_europeia
     0011705D  _sprite_espada_europeia_metaspri   sprite_espada_europeia
     00117069  _sprite_espada_europeia_metaspri   sprite_espada_europeia
     0011706B  _sprite_espada_europeia_animatio   sprite_espada_europeia
     0011707B  _sprite_espada_europeia_animatio   sprite_espada_europeia
     0011707D  _sprite_espada_europeia            sprite_espada_europeia
     00117090  ___func_sprite_estatua_buda        sprite_estatua_buda
     00117090  _sprite_estatua_buda_metasprite_   sprite_estatua_buda
     0011709C  _sprite_estatua_buda_metasprites   sprite_estatua_buda
     0011709E  _sprite_estatua_buda_animations    sprite_estatua_buda
     001170AE  _sprite_estatua_buda_animations_   sprite_estatua_buda
     001170B0  _sprite_estatua_buda               sprite_estatua_buda
     001170C3  ___func_sprite_franciscano_og      sprite_franciscano_og
     001170C3  _sprite_franciscano_og_metasprit   sprite_franciscano_og
     001170CF  _sprite_franciscano_og_metasprit   sprite_franciscano_og
     001170DB  _sprite_franciscano_og_metasprit   sprite_franciscano_og
     001170E7  _sprite_franciscano_og_metasprit   sprite_franciscano_og
     001170F3  _sprite_franciscano_og_metasprit   sprite_franciscano_og
     001170FB  _sprite_franciscano_og_animation   sprite_franciscano_og
     0011710B  _sprite_franciscano_og_animation   sprite_franciscano_og
     0011710D  _sprite_franciscano_og             sprite_franciscano_og
     00117120  ___func_sprite_gunpointer_tilese   sprite_gunpointer_tileset
     00117120  _sprite_gunpointer_tileset         sprite_gunpointer_tileset
     00117162  ___func_sprite_gunpointer          sprite_gunpointer
     00117162  _sprite_gunpointer_metasprite_0    sprite_gunpointer
     0011716E  _sprite_gunpointer_metasprites     sprite_gunpointer
     00117170  _sprite_gunpointer_animations      sprite_gunpointer
     00117180  _sprite_gunpointer_animations_lo   sprite_gunpointer
     00117182  _sprite_gunpointer                 sprite_gunpointer
     00117195  ___func_sprite_inventory_cursor_   sprite_inventory_cursor_tile
     00117195  _sprite_inventory_cursor_tileset   sprite_inventory_cursor_tile
     001171D7  ___func_sprite_inventory_cursor    sprite_inventory_cursor
     001171D7  _sprite_inventory_cursor_metaspr   sprite_inventory_cursor
     001171E3  _sprite_inventory_cursor_metaspr   sprite_inventory_cursor
     001171E5  _sprite_inventory_cursor_animati   sprite_inventory_cursor
     001171F5  _sprite_inventory_cursor_animati   sprite_inventory_cursor
     001171F7  _sprite_inventory_cursor           sprite_inventory_cursor
     0011720A  ___func_sprite_kunai_tileset       sprite_kunai_tileset
     0011720A  _sprite_kunai_tileset              sprite_kunai_tileset
     0011724C  ___func_sprite_kunai               sprite_kunai
     0011724C  _sprite_kunai_metasprite_0         sprite_kunai
     00117258  _sprite_kunai_metasprites          sprite_kunai
     0011725A  _sprite_kunai_animations           sprite_kunai
     0011726A  _sprite_kunai_animations_lookup    sprite_kunai
ASxxxx Linker V03.00/V05.40 + sdld,  page 88.
Hexadecimal  [32-Bits]

Area                                    Addr        Size        Decimal Bytes (Attributes)
--------------------------------        ----        ----        ------- ----- ------------
_CODE_17                            00114000    00004000 =       16384. bytes (REL,CON)

      Value  Global                              Global Defined In Module
      -----  --------------------------------   ------------------------
     0011726C  _sprite_kunai                      sprite_kunai
     0011727F  ___func_sprite_navio_portugues_i   sprite_navio_portugues_inve_
     0011727F  _sprite_navio_portugues_inve_til   sprite_navio_portugues_inve_
     00117301  ___func_sprite_navio_portugues_i   sprite_navio_portugues_inve
     00117301  _sprite_navio_portugues_inve_met   sprite_navio_portugues_inve
     00117315  _sprite_navio_portugues_inve_met   sprite_navio_portugues_inve
     00117317  _sprite_navio_portugues_inve_ani   sprite_navio_portugues_inve
     00117327  _sprite_navio_portugues_inve_ani   sprite_navio_portugues_inve
     00117329  _sprite_navio_portugues_inve       sprite_navio_portugues_inve
     0011733C  ___func_sprite_navio_portugues_t   sprite_navio_portugues_tiles
     0011733C  _sprite_navio_portugues_tileset    sprite_navio_portugues_tiles
     001173BE  ___func_sprite_navio_portugues     sprite_navio_portugues
     001173BE  _sprite_navio_portugues_metaspri   sprite_navio_portugues
     001173D2  _sprite_navio_portugues_metaspri   sprite_navio_portugues
     001173D4  _sprite_navio_portugues_animatio   sprite_navio_portugues
     001173E4  _sprite_navio_portugues_animatio   sprite_navio_portugues
     001173E6  _sprite_navio_portugues            sprite_navio_portugues
     001173F9  ___func_sprite_samurai1_tileset    sprite_samurai1_tileset
     001173F9  _sprite_samurai1_tileset           sprite_samurai1_tileset
     0011743B  ___func_sprite_samurai1            sprite_samurai1
     0011743B  _sprite_samurai1_metasprite_0      sprite_samurai1
     00117447  _sprite_samurai1_metasprite_1      sprite_samurai1
     00117453  _sprite_samurai1_metasprites       sprite_samurai1
     00117457  _sprite_samurai1_animations        sprite_samurai1
     00117467  _sprite_samurai1_animations_look   sprite_samurai1
     00117469  _sprite_samurai1                   sprite_samurai1
     0011747C  ___func_sprite_skull_tileset       sprite_skull_tileset
     0011747C  _sprite_skull_tileset              sprite_skull_tileset
     001174BE  ___func_sprite_skull               sprite_skull
     001174BE  _sprite_skull_metasprite_0         sprite_skull
     001174CA  _sprite_skull_metasprites          sprite_skull
     001174CC  _sprite_skull_animations           sprite_skull
     001174DC  _sprite_skull_animations_lookup    sprite_skull
     001174DE  _sprite_skull                      sprite_skull
     001174F1  ___func_sprite_sprite_level_23_c   sprite_sprite_level_23_cris_
     001174F1  _sprite_sprite_level_23_cris_til   sprite_sprite_level_23_cris_
     00117533  ___func_sprite_sprite_level_23_c   sprite_sprite_level_23_cris
     00117533  _sprite_sprite_level_23_cris_met   sprite_sprite_level_23_cris
     0011753F  _sprite_sprite_level_23_cris_met   sprite_sprite_level_23_cris
     00117541  _sprite_sprite_level_23_cris_ani   sprite_sprite_level_23_cris
     00117551  _sprite_sprite_level_23_cris_ani   sprite_sprite_level_23_cris
     00117553  _sprite_sprite_level_23_cris       sprite_sprite_level_23_cris
     00117566  ___func_sprite_sprite_level_4_ni   sprite_sprite_level_4_ninja_
     00117566  _sprite_sprite_level_4_ninja_til   sprite_sprite_level_4_ninja_
     001175A8  ___func_sprite_sprite_level_4_ni   sprite_sprite_level_4_ninja
     001175A8  _sprite_sprite_level_4_ninja_met   sprite_sprite_level_4_ninja
     001175B4  _sprite_sprite_level_4_ninja_met   sprite_sprite_level_4_ninja
     001175B6  _sprite_sprite_level_4_ninja_ani   sprite_sprite_level_4_ninja
     001175C6  _sprite_sprite_level_4_ninja_ani   sprite_sprite_level_4_ninja
     001175C8  _sprite_sprite_level_4_ninja       sprite_sprite_level_4_ninja
     001175DB  ___func_sprite_sprite_level_cris   sprite_sprite_level_cris_0_t
ASxxxx Linker V03.00/V05.40 + sdld,  page 89.
Hexadecimal  [32-Bits]

Area                                    Addr        Size        Decimal Bytes (Attributes)
--------------------------------        ----        ----        ------- ----- ------------
_CODE_17                            00114000    00004000 =       16384. bytes (REL,CON)

      Value  Global                              Global Defined In Module
      -----  --------------------------------   ------------------------
     001175DB  _sprite_sprite_level_cris_0_tile   sprite_sprite_level_cris_0_t
     0011761D  ___func_sprite_sprite_level_cris   sprite_sprite_level_cris_0
     0011761D  _sprite_sprite_level_cris_0_meta   sprite_sprite_level_cris_0
     00117629  _sprite_sprite_level_cris_0_meta   sprite_sprite_level_cris_0
     0011762B  _sprite_sprite_level_cris_0_anim   sprite_sprite_level_cris_0
     0011763B  _sprite_sprite_level_cris_0_anim   sprite_sprite_level_cris_0
     0011763D  _sprite_sprite_level_cris_0        sprite_sprite_level_cris_0
     00117650  ___func_sprite_static_tileset      sprite_static_tileset
     00117650  _sprite_static_tileset             sprite_static_tileset
     00117692  ___func_sprite_static              sprite_static
     00117692  _sprite_static_metasprite_0        sprite_static
     0011769E  _sprite_static_metasprites         sprite_static
     001176A0  _sprite_static_animations          sprite_static
     001176B0  _sprite_static_animations_lookup   sprite_static
     001176B2  _sprite_static                     sprite_static
     001176C5  ___func_sprite_yipper_tileset      sprite_yipper_tileset
     001176C5  _sprite_yipper_tileset             sprite_yipper_tileset
     00117707  ___func_sprite_yipper              sprite_yipper
     00117707  _sprite_yipper_metasprite_0        sprite_yipper
     00117713  _sprite_yipper_metasprites         sprite_yipper
     00117715  _sprite_yipper_animations          sprite_yipper
     00117725  _sprite_yipper_animations_lookup   sprite_yipper
     00117727  _sprite_yipper                     sprite_yipper
     0011773A  _trigger_0_interact                trigger_0_interact
     0011773D  GBVM$trigger_0_interact$df044e81   trigger_0_interact
     00117770  _trigger_1_interact                trigger_1_interact
     00117773  GBVM$trigger_1_interact$2fd20453   trigger_1_interact
     001177A6  _trigger_15_interact               trigger_15_interact
     001177A9  GBVM$trigger_15_interact$cfae018   trigger_15_interact
     001177AE  GBVM$trigger_15_interact$587af79   trigger_15_interact
     001177B3  GBVM$trigger_15_interact$7a90fcd   trigger_15_interact
     001177E5  GBVM$trigger_15_interact$cbc31db   trigger_15_interact
     001177EE  _trigger_17_interact               trigger_17_interact
     001177F1  GBVM$trigger_17_interact$9b0fb75   trigger_17_interact
     00117824  _trigger_18_interact               trigger_18_interact
     00117827  GBVM$trigger_18_interact$c0362a7   trigger_18_interact
     0011785A  _trigger_20_interact               trigger_20_interact
     0011785B  GBVM$trigger_20_interact$1c9b37f   trigger_20_interact
     00117867  GBVM$trigger_20_interact$2e94c40   trigger_20_interact
     00117899  GBVM_END$trigger_20_interact$1c9   trigger_20_interact
     0011789A  _trigger_21_interact               trigger_21_interact
     0011789D  GBVM$trigger_21_interact$b72b476   trigger_21_interact
     001178D0  _trigger_22_interact               trigger_22_interact
     001178D3  GBVM$trigger_22_interact$8f717ca   trigger_22_interact
     00117906  _trigger_23_interact               trigger_23_interact
     0011791A  GBVM$trigger_23_interact$101e09d   trigger_23_interact
     00117931  GBVM$trigger_23_interact$95c6967   trigger_23_interact
     00117938  _trigger_25_interact               trigger_25_interact
     0011793B  GBVM$trigger_25_interact$7d76454   trigger_25_interact
     0011796E  _trigger_26_interact               trigger_26_interact
     00117971  GBVM$trigger_26_interact$58312c3   trigger_26_interact
ASxxxx Linker V03.00/V05.40 + sdld,  page 90.
Hexadecimal  [32-Bits]

Area                                    Addr        Size        Decimal Bytes (Attributes)
--------------------------------        ----        ----        ------- ----- ------------
_CODE_17                            00114000    00004000 =       16384. bytes (REL,CON)

      Value  Global                              Global Defined In Module
      -----  --------------------------------   ------------------------
     001179A4  _trigger_28_interact               trigger_28_interact
     001179A7  GBVM$trigger_28_interact$99ae18b   trigger_28_interact
     001179DA  _trigger_3_interact                trigger_3_interact
     001179DD  GBVM$trigger_3_interact$e5a9fe0b   trigger_3_interact
     00117A10  _trigger_41_interact               trigger_41_interact
     00117A24  GBVM$trigger_41_interact$2658402   trigger_41_interact
     00117A39  GBVM$trigger_41_interact$f8f4575   trigger_41_interact
     00117A6B  GBVM_END$trigger_41_interact$265   trigger_41_interact
     00117A7D  GBVM$trigger_41_interact$f5c2b11   trigger_41_interact
     00117A84  _trigger_42_interact               trigger_42_interact
     00117A87  GBVM$trigger_42_interact$e106e39   trigger_42_interact
     00117AB9  GBVM$trigger_42_interact$a27c8d9   trigger_42_interact
     00117ABF  _trigger_44_interact               trigger_44_interact
     00117AC2  GBVM$trigger_44_interact$08c64a7   trigger_44_interact
     00117AD7  GBVM$trigger_44_interact$033e1c8   trigger_44_interact
     00117B09  GBVM_END$trigger_44_interact$08c   trigger_44_interact
     00117B0A  _trigger_50_interact               trigger_50_interact
     00117B0D  GBVM$trigger_50_interact$752f3bc   trigger_50_interact
     00117B12  GBVM$trigger_50_interact$4a5d70b   trigger_50_interact
     00117B17  GBVM$trigger_50_interact$4a1a06c   trigger_50_interact
     00117B49  GBVM$trigger_50_interact$86a102f   trigger_50_interact
     00117B4F  _trigger_51_interact               trigger_51_interact
     00117B63  GBVM$trigger_51_interact$76e37d7   trigger_51_interact
     00117BA7  GBVM$trigger_51_interact$c07bfba   trigger_51_interact
     00117BAE  _trigger_52_interact               trigger_52_interact
     00117BB1  GBVM$trigger_52_interact$18b4578   trigger_52_interact
     00117BE3  GBVM$trigger_52_interact$2fee8b8   trigger_52_interact
     00117BED  _trigger_55_interact               trigger_55_interact
     00117BEE  GBVM$trigger_55_interact$57ce6b2   trigger_55_interact
     00117BF7  GBVM$trigger_55_interact$d8cc870   trigger_55_interact
     00117C27  GBVM_END$trigger_55_interact$57c   trigger_55_interact
     00117C28  _trigger_56_interact               trigger_56_interact
     00117C29  GBVM$trigger_56_interact$8696591   trigger_56_interact
     00117C32  GBVM$trigger_56_interact$80aeb92   trigger_56_interact
     00117C5A  GBVM_END$trigger_56_interact$869   trigger_56_interact
     00117C5B  _trigger_57_interact               trigger_57_interact
     00117C5C  GBVM$trigger_57_interact$2f0eb66   trigger_57_interact
     00117C65  GBVM$trigger_57_interact$2858c3b   trigger_57_interact
     00117C90  GBVM_END$trigger_57_interact$2f0   trigger_57_interact
     00117C91  _trigger_58_interact               trigger_58_interact
     00117C94  GBVM$trigger_58_interact$a102bc0   trigger_58_interact
     00117C99  GBVM$trigger_58_interact$f3b66b4   trigger_58_interact
     00117C9E  GBVM$trigger_58_interact$dd06201   trigger_58_interact
     00117CD0  GBVM$trigger_58_interact$2fa9401   trigger_58_interact
     00117CD9  _trigger_59_interact               trigger_59_interact
     00117CDC  GBVM$trigger_59_interact$9f0d786   trigger_59_interact
     00117CF1  GBVM$trigger_59_interact$0f20fdd   trigger_59_interact
     00117D23  GBVM_END$trigger_59_interact$9f0   trigger_59_interact
     00117D24  _trigger_60_interact               trigger_60_interact
     00117D38  GBVM$trigger_60_interact$b8afeca   trigger_60_interact
     00117D7C  GBVM$trigger_60_interact$75c6261   trigger_60_interact
ASxxxx Linker V03.00/V05.40 + sdld,  page 91.
Hexadecimal  [32-Bits]

Area                                    Addr        Size        Decimal Bytes (Attributes)
--------------------------------        ----        ----        ------- ----- ------------
_CODE_17                            00114000    00004000 =       16384. bytes (REL,CON)

      Value  Global                              Global Defined In Module
      -----  --------------------------------   ------------------------
     00117D83  _trigger_61_interact               trigger_61_interact
     00117D97  GBVM$trigger_61_interact$7a6342b   trigger_61_interact
     00117DDB  GBVM$trigger_61_interact$604a549   trigger_61_interact
     00117DE2  _trigger_64_interact               trigger_64_interact
     00117DE5  GBVM$trigger_64_interact$c868591   trigger_64_interact
     00117E18  _trigger_65_interact               trigger_65_interact
     00117E1B  GBVM$trigger_65_interact$76cbaa2   trigger_65_interact
     00117E4E  _trigger_66_interact               trigger_66_interact
     00117E51  GBVM$trigger_66_interact$35f0458   trigger_66_interact
     00117E84  _trigger_68_interact               trigger_68_interact
     00117E98  GBVM$trigger_68_interact$7ee7ecf   trigger_68_interact
     00117EDC  GBVM$trigger_68_interact$b233144   trigger_68_interact
     00117EE3  _trigger_70_interact               trigger_70_interact
     00117EF7  GBVM$trigger_70_interact$920c62d   trigger_70_interact
     00117F3B  GBVM$trigger_70_interact$9d9cb32   trigger_70_interact
     00117F42  _trigger_72_interact               trigger_72_interact
     00117F56  GBVM$trigger_72_interact$77e61bb   trigger_72_interact
     00117F9A  GBVM$trigger_72_interact$ecd08d5   trigger_72_interact
     00117FA1  _trigger_73_interact               trigger_73_interact
     00117FB5  GBVM$trigger_73_interact$bb4ab3e   trigger_73_interact
     00117FF9  GBVM$trigger_73_interact$e9c3afe   trigger_73_interact

ASxxxx Linker V03.00/V05.40 + sdld,  page 92.
Hexadecimal  [32-Bits]

Area                                    Addr        Size        Decimal Bytes (Attributes)
--------------------------------        ----        ----        ------- ----- ------------
_CODE_13                            000D4000    00004000 =       16384. bytes (REL,CON)

      Value  Global                              Global Defined In Module
      -----  --------------------------------   ------------------------
     000D4000  _DMGFadeToWhiteStep                fade_manager
     000D4021  _DMGFadeToBlackStep                fade_manager
     000D4044  _ApplyPaletteChangeDMG             fade_manager
     000D409A  _fade_speeds                       fade_manager
     000D40A1  _fade_init                         fade_manager
     000D40B7  _fade_in                           fade_manager
     000D40D9  _fade_out                          fade_manager
     000D40FD  _fade_update                       fade_manager
     000D4144  _fade_applypalettechange           fade_manager
     000D414A  _fade_setspeed                     fade_manager
     000D415A  _fade_in_modal                     fade_manager
     000D4174  _fade_out_modal                    fade_manager
     000D418E  _set_sgb_border                    sgb_border
     000D4378  _actor_20_update                   actor_20_update
     000D437A  GBVM$actor_20_update$0709c267_8a   actor_20_update
     000D4383  GBVM$actor_20_update$8339e982_fe   actor_20_update
     000D4383  GBVM$actor_20_update$fb42a3fa_16   actor_20_update
     000D438F  GBVM$actor_20_update$03674e11_29   actor_20_update
     000D4398  GBVM$actor_20_update$1f0e1d9c_e4   actor_20_update
     000D43B1  GBVM$actor_20_update$4b8d3c95_b6   actor_20_update
     000D44F4  GBVM$actor_20_update$3fa092fa_fd   actor_20_update
     000D44F9  GBVM$actor_20_update$0ef11827_ab   actor_20_update
     000D44FA  GBVM$actor_20_update$e8887807_61   actor_20_update
     000D44FE  GBVM$actor_20_update$a60e1442_70   actor_20_update
     000D4503  GBVM$actor_20_update$868a798f_27   actor_20_update
     000D4535  GBVM$actor_20_update$09124cab_62   actor_20_update
     000D4535  GBVM_END$actor_20_update$03674e1   actor_20_update
     000D453A  GBVM_END$actor_20_update$fb42a3f   actor_20_update
     000D453D  GBVM$actor_20_update$3dfde35c_43   actor_20_update
     000D453D  GBVM$actor_20_update$9893ee4f_82   actor_20_update
     000D4546  GBVM$actor_20_update$b3ea556d_40   actor_20_update
     000D4584  GBVM_END$actor_20_update$0709c26   actor_20_update
     000D4589  _actor_31_interact                 actor_31_interact
     000D458C  GBVM$actor_31_interact$5fd9a0cf_   actor_31_interact
     000D459E  GBVM$actor_31_interact$f7759316_   actor_31_interact
     000D45A6  GBVM$actor_31_interact$517bf760_   actor_31_interact
     000D45AB  GBVM$actor_31_interact$aabf8ba2_   actor_31_interact
     000D45AB  GBVM_END$actor_31_interact$5fd9a   actor_31_interact
     000D45B4  GBVM$actor_31_interact$1135c244_   actor_31_interact
     000D45B4  GBVM$actor_31_interact$53036d21_   actor_31_interact
     000D45C4  GBVM$actor_31_interact$d35f1131_   actor_31_interact
     000D45C4  GBVM$actor_31_interact$d4e26d3e_   actor_31_interact
     000D45E6  GBVM$actor_31_interact$404a3cd2_   actor_31_interact
     000D45E6  GBVM$actor_31_interact$96241786_   actor_31_interact
     000D45F2  GBVM$actor_31_interact$dd537d62_   actor_31_interact
     000D45FD  GBVM$actor_31_interact$e1a671bd_   actor_31_interact
     000D463B  GBVM$actor_31_interact$6e41aff4_   actor_31_interact
     000D4640  GBVM$actor_31_interact$d5df8867_   actor_31_interact
     000D4640  GBVM_END$actor_31_interact$404a3   actor_31_interact
     000D4643  GBVM$actor_31_interact$bfd8663b_   actor_31_interact
ASxxxx Linker V03.00/V05.40 + sdld,  page 93.
Hexadecimal  [32-Bits]

Area                                    Addr        Size        Decimal Bytes (Attributes)
--------------------------------        ----        ----        ------- ----- ------------
_CODE_13                            000D4000    00004000 =       16384. bytes (REL,CON)

      Value  Global                              Global Defined In Module
      -----  --------------------------------   ------------------------
     000D4643  GBVM_END$actor_31_interact$1135c   actor_31_interact
     000D464F  GBVM$actor_31_interact$27be9c7a_   actor_31_interact
     000D464F  GBVM$actor_31_interact$ef0cf0df_   actor_31_interact
     000D465A  GBVM$actor_31_interact$043c4b28_   actor_31_interact
     000D465A  GBVM_END$actor_31_interact$bfd86   actor_31_interact
     000D4662  GBVM$actor_31_interact$5e83e3a2_   actor_31_interact
     000D4662  GBVM$actor_31_interact$926b0fe5_   actor_31_interact
     000D4686  GBVM$actor_31_interact$cdda0dcb_   actor_31_interact
     000D46ED  GBVM$actor_31_interact$4996f849_   actor_31_interact
     000D4718  GBVM$actor_31_interact$4e189641_   actor_31_interact
     000D4786  GBVM_END$actor_31_interact$aabf8   actor_31_interact
     000D4787  _actor_73_interact                 actor_73_interact
     000D478A  GBVM$actor_73_interact$b8fe1c8a_   actor_73_interact
     000D479C  GBVM$actor_73_interact$f29af596_   actor_73_interact
     000D47A4  GBVM$actor_73_interact$e8786a13_   actor_73_interact
     000D47A9  GBVM$actor_73_interact$cf8175fc_   actor_73_interact
     000D47A9  GBVM_END$actor_73_interact$b8fe1   actor_73_interact
     000D47B2  GBVM$actor_73_interact$52573e22_   actor_73_interact
     000D47B2  GBVM$actor_73_interact$9f6b7575_   actor_73_interact
     000D47C2  GBVM$actor_73_interact$0c855b4e_   actor_73_interact
     000D47C2  GBVM$actor_73_interact$5c48f09e_   actor_73_interact
     000D47E4  GBVM$actor_73_interact$5ade5f3d_   actor_73_interact
     000D47E4  GBVM$actor_73_interact$f9e90ec8_   actor_73_interact
     000D47F0  GBVM$actor_73_interact$61e8c520_   actor_73_interact
     000D47FB  GBVM$actor_73_interact$39ae810d_   actor_73_interact
     000D4839  GBVM$actor_73_interact$9ecb6c78_   actor_73_interact
     000D483E  GBVM$actor_73_interact$29f4e07c_   actor_73_interact
     000D483E  GBVM_END$actor_73_interact$5ade5   actor_73_interact
     000D4841  GBVM$actor_73_interact$71f889ea_   actor_73_interact
     000D4841  GBVM_END$actor_73_interact$52573   actor_73_interact
     000D484D  GBVM$actor_73_interact$05c56bae_   actor_73_interact
     000D484D  GBVM$actor_73_interact$200e834a_   actor_73_interact
     000D4858  GBVM$actor_73_interact$b18eb4e3_   actor_73_interact
     000D4858  GBVM_END$actor_73_interact$71f88   actor_73_interact
     000D4860  GBVM$actor_73_interact$af1c8602_   actor_73_interact
     000D4860  GBVM$actor_73_interact$d29857d4_   actor_73_interact
     000D4884  GBVM$actor_73_interact$3a52b601_   actor_73_interact
     000D48EB  GBVM$actor_73_interact$67844382_   actor_73_interact
     000D4916  GBVM$actor_73_interact$8b0f9edb_   actor_73_interact
     000D4984  GBVM_END$actor_73_interact$cf817   actor_73_interact
     000D4985  _actor_76_interact                 actor_76_interact
     000D4988  GBVM$actor_76_interact$712a4ae4_   actor_76_interact
     000D4994  GBVM$actor_76_interact$94598f74_   actor_76_interact
     000D499F  GBVM$actor_76_interact$24174364_   actor_76_interact
     000D49E8  GBVM$actor_76_interact$24e324d0_   actor_76_interact
     000D4A54  GBVM$actor_76_interact$bdc38521_   actor_76_interact
     000D4AEE  GBVM$actor_76_interact$cc628ce0_   actor_76_interact
     000D4BC5  GBVM$actor_76_interact$b5255b94_   actor_76_interact
     000D4BD0  GBVM$actor_76_interact$8d8fb955_   actor_76_interact
     000D4BD5  GBVM$actor_76_interact$461b4416_   actor_76_interact
     000D4BD5  GBVM$actor_76_interact$65c4c427_   actor_76_interact
ASxxxx Linker V03.00/V05.40 + sdld,  page 94.
Hexadecimal  [32-Bits]

Area                                    Addr        Size        Decimal Bytes (Attributes)
--------------------------------        ----        ----        ------- ----- ------------
_CODE_13                            000D4000    00004000 =       16384. bytes (REL,CON)

      Value  Global                              Global Defined In Module
      -----  --------------------------------   ------------------------
     000D4BD5  GBVM$actor_76_interact$8c127b78_   actor_76_interact
     000D4BE0  GBVM$actor_76_interact$50d27bc5_   actor_76_interact
     000D4BE0  GBVM_END$actor_76_interact$65c4c   actor_76_interact
     000D4BE0  GBVM_END$actor_76_interact$712a4   actor_76_interact
     000D4BEB  _actor_95_interact                 actor_95_interact
     000D4BEE  GBVM$actor_95_interact$84f57985_   actor_95_interact
     000D4C00  GBVM$actor_95_interact$1b8851a4_   actor_95_interact
     000D4C08  GBVM$actor_95_interact$3454614b_   actor_95_interact
     000D4C0D  GBVM$actor_95_interact$d399d5a7_   actor_95_interact
     000D4C0D  GBVM_END$actor_95_interact$84f57   actor_95_interact
     000D4C16  GBVM$actor_95_interact$519c89ee_   actor_95_interact
     000D4C16  GBVM$actor_95_interact$ef0a368d_   actor_95_interact
     000D4C26  GBVM$actor_95_interact$626656de_   actor_95_interact
     000D4C26  GBVM$actor_95_interact$e7acdf33_   actor_95_interact
     000D4C48  GBVM$actor_95_interact$c8a8908c_   actor_95_interact
     000D4C48  GBVM$actor_95_interact$d3346db4_   actor_95_interact
     000D4C54  GBVM$actor_95_interact$93b15917_   actor_95_interact
     000D4C5F  GBVM$actor_95_interact$957548cc_   actor_95_interact
     000D4C9D  GBVM$actor_95_interact$2b1a5a85_   actor_95_interact
     000D4CA2  GBVM$actor_95_interact$88e77ea5_   actor_95_interact
     000D4CA2  GBVM_END$actor_95_interact$c8a89   actor_95_interact
     000D4CA5  GBVM$actor_95_interact$b39ab77a_   actor_95_interact
     000D4CA5  GBVM_END$actor_95_interact$519c8   actor_95_interact
     000D4CB1  GBVM$actor_95_interact$02154dc6_   actor_95_interact
     000D4CB1  GBVM$actor_95_interact$07d008a1_   actor_95_interact
     000D4CBC  GBVM$actor_95_interact$66a9de57_   actor_95_interact
     000D4CBC  GBVM_END$actor_95_interact$b39ab   actor_95_interact
     000D4CC4  GBVM$actor_95_interact$1f3741b1_   actor_95_interact
     000D4CC4  GBVM$actor_95_interact$2d600a45_   actor_95_interact
     000D4CE8  GBVM$actor_95_interact$65ed1ac1_   actor_95_interact
     000D4D4F  GBVM$actor_95_interact$664b893a_   actor_95_interact
     000D4D7A  GBVM$actor_95_interact$9d9bc156_   actor_95_interact
     000D4DE8  GBVM_END$actor_95_interact$d399d   actor_95_interact
     000D4DE9  ___func_bg_beco_tilemap            bg_beco_tilemap
     000D4DE9  _bg_beco_tilemap                   bg_beco_tilemap
     000D5019  ___func_bg_beco_tileset            bg_beco_tileset
     000D5019  _bg_beco_tileset                   bg_beco_tileset
     000D523B  ___func_bg_pirateboat3_tilemap     bg_pirateboat3_tilemap
     000D523B  _bg_pirateboat3_tilemap            bg_pirateboat3_tilemap
     000D547B  ___func_bg_portuguese_boat_befor   bg_portuguese_boat_before_ti
     000D547B  _bg_portuguese_boat_before_tilem   bg_portuguese_boat_before_ti
     000D56BB  ___func_bg_portugueseboat_tilema   bg_portugueseboat_tilemap
     000D56BB  _bg_portugueseboat_tilemap         bg_portugueseboat_tilemap
     000D58FB  ___func_scene_12_collisions        scene_12_collisions
     000D58FB  _scene_12_collisions               scene_12_collisions
     000D5B3B  _scene_13_init                     scene_13_init
     000D5B3E  GBVM$scene_13_init$adbace3b_62d1   scene_13_init
     000D5B3F  GBVM$scene_13_init$autofade$9d27   scene_13_init
     000D5B4A  GBVM$scene_13_init$04345001_f29d   scene_13_init
     000D5B88  GBVM$scene_13_init$1c8a946e_ba53   scene_13_init
     000D5BAB  GBVM$scene_13_init$0c548741_a3ee   scene_13_init
ASxxxx Linker V03.00/V05.40 + sdld,  page 95.
Hexadecimal  [32-Bits]

Area                                    Addr        Size        Decimal Bytes (Attributes)
--------------------------------        ----        ----        ------- ----- ------------
_CODE_13                            000D4000    00004000 =       16384. bytes (REL,CON)

      Value  Global                              Global Defined In Module
      -----  --------------------------------   ------------------------
     000D5BD7  GBVM$scene_13_init$2efd0c0c_858d   scene_13_init
     000D5BE2  GBVM$scene_13_init$e60ba544_6b4a   scene_13_init
     000D5CBF  GBVM$scene_13_init$9ebd645e_9762   scene_13_init
     000D5CCA  GBVM$scene_13_init$d2913b33_da6a   scene_13_init
     000D5D08  GBVM$scene_13_init$ed3f2aba_8b27   scene_13_init
     000D5D3B  ___func_scene_14_collisions        scene_14_collisions
     000D5D3B  _scene_14_collisions               scene_14_collisions
     000D5F7B  ___func_scene_18_collisions        scene_18_collisions
     000D5F7B  _scene_18_collisions               scene_18_collisions
     000D61AB  ___func_scene_19_actors            scene_19_actors
     000D61AB  _scene_19_actors                   scene_19_actors
     000D641B  ___func_scene_24_collisions        scene_24_collisions
     000D641B  _scene_24_collisions               scene_24_collisions
     000D664B  ___func_scene_25_collisions        scene_25_collisions
     000D664B  _scene_25_collisions               scene_25_collisions
     000D687B  _scene_34_init                     scene_34_init
     000D687E  GBVM$scene_34_init$36cce9fa_c388   scene_34_init
     000D6888  GBVM$scene_34_init$autofade$a418   scene_34_init
     000D6893  GBVM$scene_34_init$85cabf3b_2e32   scene_34_init
     000D689F  GBVM$scene_34_init$58b02edf_86d4   scene_34_init
     000D6A96  GBVM$scene_34_init$3d09cdb8_dee2   scene_34_init
     000D6AC9  ___func_scene_40_actors            scene_40_actors
     000D6AC9  _scene_40_actors                   scene_40_actors
     000D6D05  ___func_scene_40_collisions        scene_40_collisions
     000D6D05  _scene_40_collisions               scene_40_collisions
     000D6FC5  ___func_scene_41_collisions        scene_41_collisions
     000D6FC5  _scene_41_collisions               scene_41_collisions
     000D7285  ___func_scene_46_actors            scene_46_actors
     000D7285  _scene_46_actors                   scene_46_actors
     000D74C1  ___func_scene_46_collisions        scene_46_collisions
     000D74C1  _scene_46_collisions               scene_46_collisions
     000D7781  ___func_scene_6_collisions         scene_6_collisions
     000D7781  _scene_6_collisions                scene_6_collisions
     000D79C1  ___func_sound_legacy_0             sound_legacy_0
     000D79C1  _sound_legacy_0                    sound_legacy_0
     000D79D0  ___func_sprite_samurai_tileset     sprite_samurai_tileset
     000D79D0  _sprite_samurai_tileset            sprite_samurai_tileset
     000D7BF2  ___func_sprite_tradutor_tileset    sprite_tradutor_tileset
     000D7BF2  _sprite_tradutor_tileset           sprite_tradutor_tileset
     000D7E14  _trigger_46_interact               trigger_46_interact
     000D7E17  GBVM$trigger_46_interact$0abb4dd   trigger_46_interact
     000D7E23  GBVM$trigger_46_interact$f97b3c4   trigger_46_interact
     000D7E2F  GBVM$trigger_46_interact$6c5bee3   trigger_46_interact
     000D7E6D  GBVM$trigger_46_interact$49b640b   trigger_46_interact
     000D7E78  GBVM$trigger_46_interact$dc99455   trigger_46_interact
     000D7EB3  GBVM$trigger_46_interact$709bc60   trigger_46_interact
     000D7FB0  GBVM$trigger_46_interact$baeccf2   trigger_46_interact
     000D7FFA  GBVM$trigger_46_interact$ce29f73   trigger_46_interact
     000D7FFF  GBVM_END$trigger_46_interact$0ab   trigger_46_interact
     000D7FFF  GBVM_END$trigger_46_interact$f97   trigger_46_interact

ASxxxx Linker V03.00/V05.40 + sdld,  page 96.
Hexadecimal  [32-Bits]

Area                                    Addr        Size        Decimal Bytes (Attributes)
--------------------------------        ----        ----        ------- ----- ------------
_CODE_16                            00104000    00004000 =       16384. bytes (REL,CON)

      Value  Global                              Global Defined In Module
      -----  --------------------------------   ------------------------
     00104068  _save_sram_banks                   
     001040F0  _erase_flash                       
     00104106  _music_init_driver                 music_manager
     00104162  _music_init_events                 music_manager
     0010419E  _music_events_poll                 music_manager
     001041C6  _music_pause                       music_manager
     001041E8  ___func_VM_GBPRINTER               vm_gbprinter
     001041E8  _vm_print_detect                   vm_gbprinter
     00104237  _vm_print_overlay                  vm_gbprinter
     0010428C  ___func_VM_LOAD_SAVE               vm_load_save
     0010428C  _vm_save_clear                     vm_load_save
     0010429B  _vm_save_peek                      vm_load_save
     0010431D  ___func_VM_PROJECTILE              vm_projectiles
     0010431D  _vm_projectile_launch              vm_projectiles
     0010435E  _vm_projectile_load_type           vm_projectiles
     001043F0  ___func_VM_SCENE                   vm_scene
     001043F0  _vm_scene_push                     vm_scene
     00104466  _vm_scene_pop                      vm_scene
     00104474  _vm_scene_pop_all                  vm_scene
     0010447F  _vm_scene_stack_reset              vm_scene
     00104488  _itoa_fmt                          vm_ui_a
     001044C1  .utoa_fmt                          vm_ui_a
     0010456B  _actor_102_interact                actor_102_interact
     0010456E  GBVM$actor_102_interact$14671136   actor_102_interact
     001045BA  GBVM$actor_102_interact$708d6454   actor_102_interact
     001045C1  GBVM$actor_102_interact$bd69fabc   actor_102_interact
     001045CB  GBVM$actor_102_interact$13c91f42   actor_102_interact
     001045D7  GBVM$actor_102_interact$33de88e1   actor_102_interact
     001045E1  GBVM$actor_102_interact$d4157b23   actor_102_interact
     001045ED  GBVM$actor_102_interact$339af5bd   actor_102_interact
     001045F7  GBVM$actor_102_interact$1a0b21f5   actor_102_interact
     0010465A  GBVM$actor_102_interact$39c5d1b5   actor_102_interact
     0010465F  GBVM$actor_102_interact$7e208b16   actor_102_interact
     00104668  _actor_103_interact                actor_103_interact
     0010466B  GBVM$actor_103_interact$5d7a21af   actor_103_interact
     001046B7  GBVM$actor_103_interact$672cb6d1   actor_103_interact
     001046BE  GBVM$actor_103_interact$42e9bcf7   actor_103_interact
     001046C8  GBVM$actor_103_interact$7d1de166   actor_103_interact
     001046D4  GBVM$actor_103_interact$115b59f1   actor_103_interact
     001046DE  GBVM$actor_103_interact$de78beb5   actor_103_interact
     001046EA  GBVM$actor_103_interact$15b405a3   actor_103_interact
     001046F4  GBVM$actor_103_interact$eb676797   actor_103_interact
     00104759  GBVM$actor_103_interact$5ce60f7f   actor_103_interact
     0010475E  GBVM$actor_103_interact$9d1f0d4c   actor_103_interact
     00104763  GBVM$actor_103_interact$ac0d7791   actor_103_interact
     0010476C  _actor_14_update                   actor_14_update
     0010476E  GBVM$actor_14_update$e48581c2_58   actor_14_update
     001047C1  GBVM$actor_14_update$54dae8f1_a5   actor_14_update
     001047CD  GBVM$actor_14_update$a658e48f_e5   actor_14_update
     00104820  GBVM$actor_14_update$cda4a343_d2   actor_14_update
ASxxxx Linker V03.00/V05.40 + sdld,  page 97.
Hexadecimal  [32-Bits]

Area                                    Addr        Size        Decimal Bytes (Attributes)
--------------------------------        ----        ----        ------- ----- ------------
_CODE_16                            00104000    00004000 =       16384. bytes (REL,CON)

      Value  Global                              Global Defined In Module
      -----  --------------------------------   ------------------------
     00104831  _actor_43_update                   actor_43_update
     00104833  GBVM$actor_43_update$ec16560b_6a   actor_43_update
     0010483F  GBVM$actor_43_update$17e8031b_c5   actor_43_update
     0010484B  GBVM$actor_43_update$ced263f1_04   actor_43_update
     00104855  GBVM$actor_43_update$66a190ed_49   actor_43_update
     00104878  GBVM$actor_43_update$82677043_8d   actor_43_update
     0010487D  GBVM$actor_43_update$1b90a14c_c8   actor_43_update
     00104889  GBVM$actor_43_update$477aa6b9_75   actor_43_update
     001048BB  GBVM_END$actor_43_update$ec16560   actor_43_update
     001048C0  _actor_48_interact                 actor_48_interact
     001048C1  GBVM$actor_48_interact$ad711820_   actor_48_interact
     001048CA  GBVM$actor_48_interact$2db03256_   actor_48_interact
     001048EC  GBVM$actor_48_interact$48250d09_   actor_48_interact
     00104901  GBVM$actor_48_interact$b269148a_   actor_48_interact
     00104925  GBVM$actor_48_interact$e205fb95_   actor_48_interact
     00104971  GBVM_END$actor_48_interact$48250   actor_48_interact
     00104971  GBVM_END$actor_48_interact$ad711   actor_48_interact
     00104972  _actor_50_interact                 actor_50_interact
     00104973  GBVM$actor_50_interact$1868511c_   actor_50_interact
     0010497C  GBVM$actor_50_interact$ef397a2a_   actor_50_interact
     0010499E  GBVM$actor_50_interact$afc5e671_   actor_50_interact
     001049B3  GBVM$actor_50_interact$b8ff15b9_   actor_50_interact
     001049D7  GBVM$actor_50_interact$79897a40_   actor_50_interact
     00104A23  GBVM_END$actor_50_interact$18685   actor_50_interact
     00104A23  GBVM_END$actor_50_interact$afc5e   actor_50_interact
     00104A24  _actor_84_interact                 actor_84_interact
     00104A25  GBVM$actor_84_interact$96d751ed_   actor_84_interact
     00104A2E  GBVM$actor_84_interact$4002e388_   actor_84_interact
     00104A50  GBVM$actor_84_interact$adc27980_   actor_84_interact
     00104A65  GBVM$actor_84_interact$e6aceeb0_   actor_84_interact
     00104A89  GBVM$actor_84_interact$0ec6f93b_   actor_84_interact
     00104AD5  GBVM_END$actor_84_interact$96d75   actor_84_interact
     00104AD5  GBVM_END$actor_84_interact$adc27   actor_84_interact
     00104AD6  _actor_85_interact                 actor_85_interact
     00104AD7  GBVM$actor_85_interact$4e661c64_   actor_85_interact
     00104AE0  GBVM$actor_85_interact$66b0daba_   actor_85_interact
     00104B02  GBVM$actor_85_interact$03afe0b4_   actor_85_interact
     00104B17  GBVM$actor_85_interact$6afddea8_   actor_85_interact
     00104B3B  GBVM$actor_85_interact$3e2d2a65_   actor_85_interact
     00104B87  GBVM_END$actor_85_interact$03afe   actor_85_interact
     00104B87  GBVM_END$actor_85_interact$4e661   actor_85_interact
     00104B88  _actor_88_interact                 actor_88_interact
     00104B8B  GBVM$actor_88_interact$722d72f1_   actor_88_interact
     00104BD7  GBVM$actor_88_interact$f23d69a9_   actor_88_interact
     00104BDE  GBVM$actor_88_interact$e029e194_   actor_88_interact
     00104BE8  GBVM$actor_88_interact$d01147db_   actor_88_interact
     00104BF4  GBVM$actor_88_interact$9d1c333f_   actor_88_interact
     00104BFE  GBVM$actor_88_interact$13b8fad9_   actor_88_interact
     00104C0A  GBVM$actor_88_interact$fd5d132e_   actor_88_interact
     00104C14  GBVM$actor_88_interact$2a1f82c2_   actor_88_interact
     00104C79  GBVM$actor_88_interact$7c3939b1_   actor_88_interact
ASxxxx Linker V03.00/V05.40 + sdld,  page 98.
Hexadecimal  [32-Bits]

Area                                    Addr        Size        Decimal Bytes (Attributes)
--------------------------------        ----        ----        ------- ----- ------------
_CODE_16                            00104000    00004000 =       16384. bytes (REL,CON)

      Value  Global                              Global Defined In Module
      -----  --------------------------------   ------------------------
     00104C7E  GBVM$actor_88_interact$bc16ded4_   actor_88_interact
     00104C83  GBVM$actor_88_interact$71b39c23_   actor_88_interact
     00104C8C  ___func_frame_image                frame_image
     00104C8C  _frame_image                       frame_image
     00104D1C  _scene_11_init                     scene_11_init
     00104D1F  GBVM$scene_11_init$96681091_ac7b   scene_11_init
     00104D27  GBVM$scene_11_init$724e71e5_f2cc   scene_11_init
     00104D2F  GBVM$scene_11_init$autofade$45e7   scene_11_init
     00104D2F  GBVM_END$scene_11_init$724e71e5_   scene_11_init
     00104D3B  ___func_scene_14_actors            scene_14_actors
     00104D3B  _scene_14_actors                   scene_14_actors
     00104E3F  ___func_scene_16_actors            scene_16_actors
     00104E3F  _scene_16_actors                   scene_16_actors
     00104F43  ___func_scene_17_actors            scene_17_actors
     00104F43  _scene_17_actors                   scene_17_actors
     00104FDF  _scene_17_init                     scene_17_init
     00104FE2  GBVM$scene_17_init$93ed50fe_a7e6   scene_17_init
     00104FEB  GBVM$scene_17_init$8d2fd9ac_5d06   scene_17_init
     00104FF5  GBVM$scene_17_init$af5d2918_f718   scene_17_init
     00104FFD  GBVM$scene_17_init$38aba3f1_f92f   scene_17_init
     00105009  GBVM$scene_17_init$a1870bdd_6fb4   scene_17_init
     00105027  GBVM$scene_17_init$7a3f8a52_7bfe   scene_17_init
     00105032  GBVM$scene_17_init$49bfe374_d7fb   scene_17_init
     0010503D  GBVM$scene_17_init$482879fb_f47a   scene_17_init
     0010506F  GBVM$scene_17_init$ec476ca8_28d9   scene_17_init
     0010507A  GBVM$scene_17_init$fee24660_0c85   scene_17_init
     00105084  GBVM$scene_17_init$4d2a17c4_f161   scene_17_init
     0010508E  GBVM$scene_17_init$436f5bde_ad7f   scene_17_init
     0010508E  GBVM_END$scene_17_init$38aba3f1_   scene_17_init
     0010509A  GBVM$scene_17_init$cb37d47d_7cb9   scene_17_init
     001050A2  GBVM$scene_17_init$e1f11d53_06a6   scene_17_init
     001050A2  GBVM_END$scene_17_init$436f5bde_   scene_17_init
     001050AE  GBVM$scene_17_init$4a0ab27d_cbb9   scene_17_init
     001050B6  GBVM$scene_17_init$65ccd319_fa57   scene_17_init
     001050B6  GBVM$scene_17_init$9270ed43_b243   scene_17_init
     001050B6  GBVM_END$scene_17_init$e1f11d53_   scene_17_init
     001050BE  GBVM$scene_17_init$3af4719b_9697   scene_17_init
     001050BE  GBVM_END$scene_17_init$65ccd319_   scene_17_init
     001050BE  GBVM_END$scene_17_init$9270ed43_   scene_17_init
     001050CA  GBVM$scene_17_init$c4edcdd3_b6c8   scene_17_init
     001050D4  GBVM$scene_17_init$autofade$5ed5   scene_17_init
     001050D4  GBVM_END$scene_17_init$3af4719b_   scene_17_init
     001050E0  ___func_scene_18_actors            scene_18_actors
     001050E0  _scene_18_actors                   scene_18_actors
     001051E4  _scene_19_init                     scene_19_init
     001051E7  GBVM$scene_19_init$7525287e_e081   scene_19_init
     001051F0  GBVM$scene_19_init$92bd648f_194f   scene_19_init
     001051F8  GBVM$scene_19_init$9c34fc5a_4844   scene_19_init
     00105204  GBVM$scene_19_init$155a403c_f824   scene_19_init
     00105222  GBVM$scene_19_init$f667ba56_a318   scene_19_init
     0010522D  GBVM$scene_19_init$2ef33a74_ad14   scene_19_init
ASxxxx Linker V03.00/V05.40 + sdld,  page 99.
Hexadecimal  [32-Bits]

Area                                    Addr        Size        Decimal Bytes (Attributes)
--------------------------------        ----        ----        ------- ----- ------------
_CODE_16                            00104000    00004000 =       16384. bytes (REL,CON)

      Value  Global                              Global Defined In Module
      -----  --------------------------------   ------------------------
     00105238  GBVM$scene_19_init$f304b954_8a83   scene_19_init
     0010526A  GBVM$scene_19_init$e39cc5b1_8f2f   scene_19_init
     00105275  GBVM$scene_19_init$695f3556_80d9   scene_19_init
     0010527F  GBVM$scene_19_init$45f8bd8a_3058   scene_19_init
     0010527F  GBVM$scene_19_init$f80fa91c_0576   scene_19_init
     0010527F  GBVM_END$scene_19_init$9c34fc5a_   scene_19_init
     00105287  GBVM$scene_19_init$autofade$1096   scene_19_init
     00105287  GBVM_END$scene_19_init$45f8bd8a_   scene_19_init
     00105287  GBVM_END$scene_19_init$f80fa91c_   scene_19_init
     00105293  ___func_scene_21_actors            scene_21_actors
     00105293  _scene_21_actors                   scene_21_actors
     00105363  _scene_21_init                     scene_21_init
     00105366  GBVM$scene_21_init$1f97e146_980f   scene_21_init
     0010536B  GBVM$scene_21_init$0c745bab_6618   scene_21_init
     00105370  GBVM$scene_21_init$30a91d20_9c4b   scene_21_init
     0010537C  GBVM$scene_21_init$b300f4c0_ee93   scene_21_init
     00105384  GBVM$scene_21_init$76ce6460_5f63   scene_21_init
     00105384  GBVM_END$scene_21_init$30a91d20_   scene_21_init
     0010538E  GBVM$scene_21_init$fe7d4d67_dc7b   scene_21_init
     00105398  GBVM$scene_21_init$bb363dac_98ea   scene_21_init
     0010539D  GBVM$scene_21_init$1a8e0413_9344   scene_21_init
     001053A2  GBVM$scene_21_init$21907377_9190   scene_21_init
     001053AE  GBVM$scene_21_init$b7ea53bf_f9fc   scene_21_init
     001053B6  GBVM$scene_21_init$93686e25_25b8   scene_21_init
     001053B6  GBVM_END$scene_21_init$21907377_   scene_21_init
     001053BB  GBVM$scene_21_init$025f9a58_f298   scene_21_init
     001053C0  GBVM$scene_21_init$253f93ba_de3e   scene_21_init
     001053CC  GBVM$scene_21_init$74398955_f651   scene_21_init
     001053D4  GBVM$scene_21_init$b0d6f4db_8a38   scene_21_init
     001053D4  GBVM_END$scene_21_init$253f93ba_   scene_21_init
     001053D8  GBVM$scene_21_init$15d7eb0d_3190   scene_21_init
     001053E2  GBVM$scene_21_init$6b49f858_d1c4   scene_21_init
     001053EC  GBVM$scene_21_init$a8671dc1_0eea   scene_21_init
     001053F6  GBVM$scene_21_init$27f53c66_7507   scene_21_init
     001053FE  GBVM$scene_21_init$autofade$5186   scene_21_init
     001053FE  GBVM_END$scene_21_init$27f53c66_   scene_21_init
     0010540A  ___func_scene_22_actors            scene_22_actors
     0010540A  _scene_22_actors                   scene_22_actors
     001054DA  ___func_scene_24_actors            scene_24_actors
     001054DA  _scene_24_actors                   scene_24_actors
     001055DE  _scene_24_p_hit1                   scene_24_p_hit1
     001055F1  GBVM$scene_24_p_hit1$81a283e2_4e   scene_24_p_hit1
     001055F9  GBVM$scene_24_p_hit1$a9ab32d8_fd   scene_24_p_hit1
     00105603  GBVM$scene_24_p_hit1$845a1f6f_8d   scene_24_p_hit1
     0010560F  GBVM$scene_24_p_hit1$3728188a_9e   scene_24_p_hit1
     00105619  GBVM$scene_24_p_hit1$7230a921_9c   scene_24_p_hit1
     00105625  GBVM$scene_24_p_hit1$138f7554_de   scene_24_p_hit1
     0010562F  GBVM$scene_24_p_hit1$b2b06026_35   scene_24_p_hit1
     00105663  _scene_26_init                     scene_26_init
     00105666  GBVM$scene_26_init$05790b6c_7c3c   scene_26_init
     0010566E  GBVM$scene_26_init$autofade$5ee0   scene_26_init
ASxxxx Linker V03.00/V05.40 + sdld,  page 100.
Hexadecimal  [32-Bits]

Area                                    Addr        Size        Decimal Bytes (Attributes)
--------------------------------        ----        ----        ------- ----- ------------
_CODE_16                            00104000    00004000 =       16384. bytes (REL,CON)

      Value  Global                              Global Defined In Module
      -----  --------------------------------   ------------------------
     00105679  GBVM$scene_26_init$5cf93588_5268   scene_26_init
     001056EB  GBVM$scene_26_init$3174ee74_8b8c   scene_26_init
     001056F1  GBVM$scene_26_init$2835dad0_cb05   scene_26_init
     0010570A  GBVM$scene_26_init$d4b7793c_dc02   scene_26_init
     0010573D  _scene_29_init                     scene_29_init
     00105740  GBVM$scene_29_init$37eb7670_afc6   scene_29_init
     00105740  GBVM$scene_29_init$aa89d823_6b68   scene_29_init
     0010574C  GBVM$scene_29_init$284b0f27_c2d5   scene_29_init
     00105751  GBVM$scene_29_init$695d228e_eb5c   scene_29_init
     00105751  GBVM_END$scene_29_init$37eb7670_   scene_29_init
     00105751  GBVM_END$scene_29_init$aa89d823_   scene_29_init
     0010575A  GBVM$scene_29_init$5c3bd76d_41fd   scene_29_init
     00105764  GBVM$scene_29_init$c2d305fd_bdab   scene_29_init
     0010576C  GBVM$scene_29_init$f1361de2_904f   scene_29_init
     00105778  GBVM$scene_29_init$496a03c0_d105   scene_29_init
     00105796  GBVM$scene_29_init$f1982067_6f55   scene_29_init
     001057A1  GBVM$scene_29_init$a2ef6a08_2460   scene_29_init
     001057AC  GBVM$scene_29_init$58500f0a_50a0   scene_29_init
     001057DE  GBVM$scene_29_init$a83647c8_af9c   scene_29_init
     001057E9  GBVM$scene_29_init$e7cbb461_2efa   scene_29_init
     001057F3  GBVM$scene_29_init$6083e8af_390e   scene_29_init
     001057FD  GBVM$scene_29_init$autofade$f972   scene_29_init
     001057FD  GBVM_END$scene_29_init$f1361de2_   scene_29_init
     00105809  _scene_30_init                     scene_30_init
     0010580C  GBVM$scene_30_init$d8163cd8_bc68   scene_30_init
     00105815  GBVM$scene_30_init$16d12da6_97c1   scene_30_init
     0010581F  GBVM$scene_30_init$3fe0a003_7238   scene_30_init
     00105827  GBVM$scene_30_init$d27df43f_ab40   scene_30_init
     00105833  GBVM$scene_30_init$6a29b687_dd9d   scene_30_init
     00105851  GBVM$scene_30_init$e85a701f_bd2a   scene_30_init
     0010585C  GBVM$scene_30_init$b4758bff_4813   scene_30_init
     00105867  GBVM$scene_30_init$99b0b103_d031   scene_30_init
     00105899  GBVM$scene_30_init$a4694a30_37c8   scene_30_init
     001058A4  GBVM$scene_30_init$c3b70fc3_32f1   scene_30_init
     001058AE  GBVM$scene_30_init$b8da4917_fe30   scene_30_init
     001058B8  GBVM$scene_30_init$6d09414b_644a   scene_30_init
     001058B8  GBVM$scene_30_init$8d335238_c345   scene_30_init
     001058B8  GBVM_END$scene_30_init$d27df43f_   scene_30_init
     001058C0  GBVM$scene_30_init$autofade$2c05   scene_30_init
     001058C0  GBVM_END$scene_30_init$6d09414b_   scene_30_init
     001058C0  GBVM_END$scene_30_init$8d335238_   scene_30_init
     001058CC  ___func_scene_31_actors            scene_31_actors
     001058CC  _scene_31_actors                   scene_31_actors
     00105968  _scene_31_init                     scene_31_init
     0010596B  GBVM$scene_31_init$b8bf86f5_ca07   scene_31_init
     00105975  GBVM$scene_31_init$80d35d06_1c99   scene_31_init
     0010597F  GBVM$scene_31_init$04661603_fae6   scene_31_init
     00105988  GBVM$scene_31_init$89690333_eb96   scene_31_init
     00105992  GBVM$scene_31_init$46686b6f_9c81   scene_31_init
     0010599A  GBVM$scene_31_init$9c8c7c3a_fb45   scene_31_init
     001059B8  GBVM$scene_31_init$76668f62_ec92   scene_31_init
ASxxxx Linker V03.00/V05.40 + sdld,  page 101.
Hexadecimal  [32-Bits]

Area                                    Addr        Size        Decimal Bytes (Attributes)
--------------------------------        ----        ----        ------- ----- ------------
_CODE_16                            00104000    00004000 =       16384. bytes (REL,CON)

      Value  Global                              Global Defined In Module
      -----  --------------------------------   ------------------------
     001059C3  GBVM$scene_31_init$5b70d895_c7d1   scene_31_init
     001059CE  GBVM$scene_31_init$8848e196_26d7   scene_31_init
     00105A00  GBVM$scene_31_init$14c1c511_e837   scene_31_init
     00105A0B  GBVM$scene_31_init$d8c1f268_4522   scene_31_init
     00105A15  GBVM$scene_31_init$92a4a24c_06b8   scene_31_init
     00105A1F  GBVM$scene_31_init$5b650ede_88b0   scene_31_init
     00105A24  GBVM$scene_31_init$autofade$818f   scene_31_init
     00105A30  ___func_scene_39_actors            scene_39_actors
     00105A30  _scene_39_actors                   scene_39_actors
     00105ACC  _scene_40_init                     scene_40_init
     00105ACF  GBVM$scene_40_init$e3e1ba7c_330b   scene_40_init
     00105AD8  GBVM$scene_40_init$51f8bf21_83e2   scene_40_init
     00105AE0  GBVM$scene_40_init$df450a62_9df3   scene_40_init
     00105AEC  GBVM$scene_40_init$04667ebe_c50d   scene_40_init
     00105B0A  GBVM$scene_40_init$c147aa4f_7945   scene_40_init
     00105B15  GBVM$scene_40_init$a526cd4f_751e   scene_40_init
     00105B20  GBVM$scene_40_init$21be35cd_70fd   scene_40_init
     00105B52  GBVM$scene_40_init$ff556c52_56ef   scene_40_init
     00105B5D  GBVM$scene_40_init$fc05ffa4_c206   scene_40_init
     00105B67  GBVM$scene_40_init$02afcdb5_3dac   scene_40_init
     00105B67  GBVM_END$scene_40_init$df450a62_   scene_40_init
     00105B73  GBVM$scene_40_init$0345bd14_919c   scene_40_init
     00105B7B  GBVM$scene_40_init$a38a96b6_5068   scene_40_init
     00105B7B  GBVM_END$scene_40_init$02afcdb5_   scene_40_init
     00105B87  GBVM$scene_40_init$2f2f16fa_a38f   scene_40_init
     00105B8F  GBVM$scene_40_init$2051af0f_0286   scene_40_init
     00105B8F  GBVM_END$scene_40_init$a38a96b6_   scene_40_init
     00105B9B  GBVM$scene_40_init$081b0e72_7f81   scene_40_init
     00105BA3  GBVM$scene_40_init$3a6a6891_82a4   scene_40_init
     00105BA3  GBVM_END$scene_40_init$2051af0f_   scene_40_init
     00105BAF  GBVM$scene_40_init$c15e8c0f_1e3f   scene_40_init
     00105BB7  GBVM$scene_40_init$4cf75eaf_4c15   scene_40_init
     00105BB7  GBVM$scene_40_init$b1ea09c1_f7cb   scene_40_init
     00105BB7  GBVM_END$scene_40_init$3a6a6891_   scene_40_init
     00105BBF  GBVM$scene_40_init$autofade$e1db   scene_40_init
     00105BBF  GBVM_END$scene_40_init$4cf75eaf_   scene_40_init
     00105BBF  GBVM_END$scene_40_init$b1ea09c1_   scene_40_init
     00105BCB  _scene_41_init                     scene_41_init
     00105BCE  GBVM$scene_41_init$3e045982_208b   scene_41_init
     00105BD7  GBVM$scene_41_init$d7ce21e9_4438   scene_41_init
     00105BE1  GBVM$scene_41_init$6efc2815_50bb   scene_41_init
     00105BE9  GBVM$scene_41_init$a737fed1_0c28   scene_41_init
     00105BF5  GBVM$scene_41_init$55ecbbb9_b3e5   scene_41_init
     00105C13  GBVM$scene_41_init$9cd30cf9_6576   scene_41_init
     00105C1E  GBVM$scene_41_init$03352c1d_49ea   scene_41_init
     00105C29  GBVM$scene_41_init$0f63b248_674c   scene_41_init
     00105C5B  GBVM$scene_41_init$0cdcf346_147a   scene_41_init
     00105C66  GBVM$scene_41_init$e982b7bf_ac78   scene_41_init
     00105C70  GBVM$scene_41_init$cc0af8e4_3033   scene_41_init
     00105C7A  GBVM$scene_41_init$1e920454_e360   scene_41_init
     00105C7A  GBVM$scene_41_init$bca8f3e7_c813   scene_41_init
ASxxxx Linker V03.00/V05.40 + sdld,  page 102.
Hexadecimal  [32-Bits]

Area                                    Addr        Size        Decimal Bytes (Attributes)
--------------------------------        ----        ----        ------- ----- ------------
_CODE_16                            00104000    00004000 =       16384. bytes (REL,CON)

      Value  Global                              Global Defined In Module
      -----  --------------------------------   ------------------------
     00105C7A  GBVM_END$scene_41_init$a737fed1_   scene_41_init
     00105C82  GBVM$scene_41_init$95fc9842_b83b   scene_41_init
     00105C82  GBVM_END$scene_41_init$1e920454_   scene_41_init
     00105C82  GBVM_END$scene_41_init$bca8f3e7_   scene_41_init
     00105C8E  GBVM$scene_41_init$5bec17c4_f930   scene_41_init
     00105C98  GBVM$scene_41_init$autofade$7d29   scene_41_init
     00105C98  GBVM_END$scene_41_init$95fc9842_   scene_41_init
     00105CA4  ___func_scene_42_actors            scene_42_actors
     00105CA4  _scene_42_actors                   scene_42_actors
     00105DA8  ___func_scene_43_actors            scene_43_actors
     00105DA8  _scene_43_actors                   scene_43_actors
     00105E44  _scene_43_init                     scene_43_init
     00105E47  GBVM$scene_43_init$52fd45c8_2935   scene_43_init
     00105E50  GBVM$scene_43_init$fe16d4a4_1b3f   scene_43_init
     00105E5A  GBVM$scene_43_init$4fc4ee43_ce7c   scene_43_init
     00105E62  GBVM$scene_43_init$4b819e9d_3f1f   scene_43_init
     00105E6E  GBVM$scene_43_init$d85fbd04_abed   scene_43_init
     00105E8C  GBVM$scene_43_init$4cb1104d_7ae5   scene_43_init
     00105E97  GBVM$scene_43_init$21804e41_1faa   scene_43_init
     00105EA2  GBVM$scene_43_init$72b0df9e_1069   scene_43_init
     00105ED4  GBVM$scene_43_init$d3d07995_0444   scene_43_init
     00105EDF  GBVM$scene_43_init$acff196c_fa8a   scene_43_init
     00105EE9  GBVM$scene_43_init$98a6e54d_a83c   scene_43_init
     00105EF3  GBVM$scene_43_init$autofade$0d4f   scene_43_init
     00105EF3  GBVM_END$scene_43_init$4b819e9d_   scene_43_init
     00105EFF  _scene_44_init                     scene_44_init
     00105F02  GBVM$scene_44_init$6e22ef38_b2f8   scene_44_init
     00105F0B  GBVM$scene_44_init$8c1c1c6e_8bc9   scene_44_init
     00105F15  GBVM$scene_44_init$33e2773d_8854   scene_44_init
     00105F1D  GBVM$scene_44_init$6c51f58a_e789   scene_44_init
     00105F3B  GBVM$scene_44_init$e49dd6cb_6be3   scene_44_init
     00105F46  GBVM$scene_44_init$cfe85d11_4c11   scene_44_init
     00105F51  GBVM$scene_44_init$fa37de3d_0207   scene_44_init
     00105F83  GBVM$scene_44_init$34cb9ffc_1e53   scene_44_init
     00105F8E  GBVM$scene_44_init$63645a68_ddb0   scene_44_init
     00105F98  GBVM$scene_44_init$09c82b85_05c3   scene_44_init
     00105FA2  GBVM$scene_44_init$b326cc6a_c255   scene_44_init
     00105FA7  GBVM$scene_44_init$autofade$b6a0   scene_44_init
     00105FB3  ___func_scene_6_actors             scene_6_actors
     00105FB3  _scene_6_actors                    scene_6_actors
     001060B7  ___func_sound_menu_out_vgm         sound_menu_out_vgm
     001060B7  _sound_menu_out_vgm                sound_menu_out_vgm
     00106152  ___func_sprite_actor_animated      sprite_actor_animated
     00106152  _sprite_actor_animated_metasprit   sprite_actor_animated
     0010615E  _sprite_actor_animated_metasprit   sprite_actor_animated
     0010616A  _sprite_actor_animated_metasprit   sprite_actor_animated
     00106176  _sprite_actor_animated_metasprit   sprite_actor_animated
     00106182  _sprite_actor_animated_metasprit   sprite_actor_animated
     0010618E  _sprite_actor_animated_metasprit   sprite_actor_animated
     0010619A  _sprite_actor_animated_metasprit   sprite_actor_animated
     001061A6  _sprite_actor_animated_metasprit   sprite_actor_animated
ASxxxx Linker V03.00/V05.40 + sdld,  page 103.
Hexadecimal  [32-Bits]

Area                                    Addr        Size        Decimal Bytes (Attributes)
--------------------------------        ----        ----        ------- ----- ------------
_CODE_16                            00104000    00004000 =       16384. bytes (REL,CON)

      Value  Global                              Global Defined In Module
      -----  --------------------------------   ------------------------
     001061B2  _sprite_actor_animated_metasprit   sprite_actor_animated
     001061CA  _sprite_actor_animated_animation   sprite_actor_animated
     001061DA  _sprite_actor_animated_animation   sprite_actor_animated
     001061DC  _sprite_actor_animated             sprite_actor_animated
     001061EF  ___func_sprite_actor_tileset       sprite_actor_tileset
     001061EF  _sprite_actor_tileset              sprite_actor_tileset
     00106291  ___func_sprite_chefe_vila          sprite_chefe_vila
     00106291  _sprite_chefe_vila_metasprite_0    sprite_chefe_vila
     0010629D  _sprite_chefe_vila_metasprite_1    sprite_chefe_vila
     001062A9  _sprite_chefe_vila_metasprite_2    sprite_chefe_vila
     001062B5  _sprite_chefe_vila_metasprite_3    sprite_chefe_vila
     001062C1  _sprite_chefe_vila_metasprite_4    sprite_chefe_vila
     001062CD  _sprite_chefe_vila_metasprite_5    sprite_chefe_vila
     001062D9  _sprite_chefe_vila_metasprite_6    sprite_chefe_vila
     001062E5  _sprite_chefe_vila_metasprite_7    sprite_chefe_vila
     001062F1  _sprite_chefe_vila_metasprite_8    sprite_chefe_vila
     001062FD  _sprite_chefe_vila_metasprite_9    sprite_chefe_vila
     00106309  _sprite_chefe_vila_metasprite_10   sprite_chefe_vila
     00106315  _sprite_chefe_vila_metasprite_11   sprite_chefe_vila
     00106321  _sprite_chefe_vila_metasprite_12   sprite_chefe_vila
     0010632D  _sprite_chefe_vila_metasprite_13   sprite_chefe_vila
     00106339  _sprite_chefe_vila_metasprite_14   sprite_chefe_vila
     00106345  _sprite_chefe_vila_metasprite_15   sprite_chefe_vila
     00106351  _sprite_chefe_vila_metasprites     sprite_chefe_vila
     00106371  _sprite_chefe_vila_animations      sprite_chefe_vila
     00106381  _sprite_chefe_vila_animations_lo   sprite_chefe_vila
     00106383  _sprite_chefe_vila                 sprite_chefe_vila
     00106396  ___func_sprite_comerciante1_1_ti   sprite_comerciante1_1_tilese
     00106396  _sprite_comerciante1_1_tileset     sprite_comerciante1_1_tilese
     00106418  ___func_sprite_comerciante1_2_ti   sprite_comerciante1_2_tilese
     00106418  _sprite_comerciante1_2_tileset     sprite_comerciante1_2_tilese
     0010649A  ___func_sprite_comerciante2_1_ti   sprite_comerciante2_1_tilese
     0010649A  _sprite_comerciante2_1_tileset     sprite_comerciante2_1_tilese
     0010651C  ___func_sprite_espanhol_og         sprite_espanhol_og
     0010651C  _sprite_espanhol_og_metasprite_0   sprite_espanhol_og
     00106528  _sprite_espanhol_og_metasprite_1   sprite_espanhol_og
     00106534  _sprite_espanhol_og_metasprite_2   sprite_espanhol_og
     00106540  _sprite_espanhol_og_metasprite_3   sprite_espanhol_og
     0010654C  _sprite_espanhol_og_metasprite_4   sprite_espanhol_og
     00106558  _sprite_espanhol_og_metasprite_5   sprite_espanhol_og
     00106564  _sprite_espanhol_og_metasprite_6   sprite_espanhol_og
     00106570  _sprite_espanhol_og_metasprite_7   sprite_espanhol_og
     0010657C  _sprite_espanhol_og_metasprites    sprite_espanhol_og
     00106594  _sprite_espanhol_og_animations     sprite_espanhol_og
     001065A4  _sprite_espanhol_og_animations_l   sprite_espanhol_og
     001065A6  _sprite_espanhol_og                sprite_espanhol_og
     001065B9  ___func_sprite_franciscano_og_ti   sprite_franciscano_og_tilese
     001065B9  _sprite_franciscano_og_tileset     sprite_franciscano_og_tilese
     001066BB  ___func_sprite_ninja               sprite_ninja
     001066BB  _sprite_ninja_metasprite_0         sprite_ninja
     001066C7  _sprite_ninja_metasprite_1         sprite_ninja
ASxxxx Linker V03.00/V05.40 + sdld,  page 104.
Hexadecimal  [32-Bits]

Area                                    Addr        Size        Decimal Bytes (Attributes)
--------------------------------        ----        ----        ------- ----- ------------
_CODE_16                            00104000    00004000 =       16384. bytes (REL,CON)

      Value  Global                              Global Defined In Module
      -----  --------------------------------   ------------------------
     001066D3  _sprite_ninja_metasprite_2         sprite_ninja
     001066DF  _sprite_ninja_metasprite_3         sprite_ninja
     001066EB  _sprite_ninja_metasprite_4         sprite_ninja
     001066F7  _sprite_ninja_metasprite_5         sprite_ninja
     00106703  _sprite_ninja_metasprite_6         sprite_ninja
     0010670F  _sprite_ninja_metasprite_7         sprite_ninja
     0010671B  _sprite_ninja_metasprite_8         sprite_ninja
     00106727  _sprite_ninja_metasprite_9         sprite_ninja
     00106733  _sprite_ninja_metasprite_10        sprite_ninja
     0010673F  _sprite_ninja_metasprite_11        sprite_ninja
     0010674B  _sprite_ninja_metasprite_12        sprite_ninja
     00106757  _sprite_ninja_metasprite_13        sprite_ninja
     00106763  _sprite_ninja_metasprite_14        sprite_ninja
     0010676F  _sprite_ninja_metasprite_15        sprite_ninja
     0010677B  _sprite_ninja_metasprites          sprite_ninja
     0010679B  _sprite_ninja_animations           sprite_ninja
     001067AB  _sprite_ninja_animations_lookup    sprite_ninja
     001067AD  _sprite_ninja                      sprite_ninja
     001067C0  ___func_sprite_pirata1             sprite_pirata1
     001067C0  _sprite_pirata1_metasprite_0       sprite_pirata1
     001067CC  _sprite_pirata1_metasprite_1       sprite_pirata1
     001067D8  _sprite_pirata1_metasprite_2       sprite_pirata1
     001067E4  _sprite_pirata1_metasprite_3       sprite_pirata1
     001067F0  _sprite_pirata1_metasprite_4       sprite_pirata1
     001067FC  _sprite_pirata1_metasprite_5       sprite_pirata1
     00106808  _sprite_pirata1_metasprite_6       sprite_pirata1
     00106814  _sprite_pirata1_metasprite_7       sprite_pirata1
     00106820  _sprite_pirata1_metasprite_8       sprite_pirata1
     0010682C  _sprite_pirata1_metasprite_9       sprite_pirata1
     00106838  _sprite_pirata1_metasprite_10      sprite_pirata1
     00106844  _sprite_pirata1_metasprite_11      sprite_pirata1
     00106850  _sprite_pirata1_metasprite_12      sprite_pirata1
     0010685C  _sprite_pirata1_metasprite_13      sprite_pirata1
     00106868  _sprite_pirata1_metasprite_14      sprite_pirata1
     00106874  _sprite_pirata1_metasprite_15      sprite_pirata1
     00106880  _sprite_pirata1_metasprites        sprite_pirata1
     001068A0  _sprite_pirata1_animations         sprite_pirata1
     001068B0  _sprite_pirata1_animations_looku   sprite_pirata1
     001068B2  _sprite_pirata1                    sprite_pirata1
     001068C5  ___func_sprite_pirata2             sprite_pirata2
     001068C5  _sprite_pirata2_metasprite_0       sprite_pirata2
     001068D1  _sprite_pirata2_metasprite_1       sprite_pirata2
     001068DD  _sprite_pirata2_metasprite_2       sprite_pirata2
     001068E9  _sprite_pirata2_metasprite_3       sprite_pirata2
     001068F5  _sprite_pirata2_metasprite_4       sprite_pirata2
     00106901  _sprite_pirata2_metasprite_5       sprite_pirata2
     0010690D  _sprite_pirata2_metasprite_6       sprite_pirata2
     00106919  _sprite_pirata2_metasprite_7       sprite_pirata2
     00106925  _sprite_pirata2_metasprite_8       sprite_pirata2
     00106931  _sprite_pirata2_metasprite_9       sprite_pirata2
     0010693D  _sprite_pirata2_metasprite_10      sprite_pirata2
ASxxxx Linker V03.00/V05.40 + sdld,  page 105.
Hexadecimal  [32-Bits]

Area                                    Addr        Size        Decimal Bytes (Attributes)
--------------------------------        ----        ----        ------- ----- ------------
_CODE_16                            00104000    00004000 =       16384. bytes (REL,CON)

      Value  Global                              Global Defined In Module
      -----  --------------------------------   ------------------------
     00106949  _sprite_pirata2_metasprite_11      sprite_pirata2
     00106955  _sprite_pirata2_metasprite_12      sprite_pirata2
     00106961  _sprite_pirata2_metasprite_13      sprite_pirata2
     0010696D  _sprite_pirata2_metasprite_14      sprite_pirata2
     00106979  _sprite_pirata2_metasprite_15      sprite_pirata2
     00106985  _sprite_pirata2_metasprites        sprite_pirata2
     001069A5  _sprite_pirata2_animations         sprite_pirata2
     001069B5  _sprite_pirata2_animations_looku   sprite_pirata2
     001069B7  _sprite_pirata2                    sprite_pirata2
     001069CA  ___func_sprite_samurai             sprite_samurai
     001069CA  _sprite_samurai_metasprite_0       sprite_samurai
     001069D6  _sprite_samurai_metasprite_1       sprite_samurai
     001069E2  _sprite_samurai_metasprite_2       sprite_samurai
     001069EE  _sprite_samurai_metasprite_3       sprite_samurai
     001069FA  _sprite_samurai_metasprite_4       sprite_samurai
     00106A06  _sprite_samurai_metasprite_5       sprite_samurai
     00106A12  _sprite_samurai_metasprite_6       sprite_samurai
     00106A1E  _sprite_samurai_metasprite_7       sprite_samurai
     00106A2A  _sprite_samurai_metasprite_8       sprite_samurai
     00106A36  _sprite_samurai_metasprite_9       sprite_samurai
     00106A42  _sprite_samurai_metasprite_10      sprite_samurai
     00106A4E  _sprite_samurai_metasprite_11      sprite_samurai
     00106A5A  _sprite_samurai_metasprite_12      sprite_samurai
     00106A66  _sprite_samurai_metasprite_13      sprite_samurai
     00106A72  _sprite_samurai_metasprite_14      sprite_samurai
     00106A7E  _sprite_samurai_metasprite_15      sprite_samurai
     00106A8A  _sprite_samurai_metasprites        sprite_samurai
     00106AAA  _sprite_samurai_animations         sprite_samurai
     00106ABA  _sprite_samurai_animations_looku   sprite_samurai
     00106ABC  _sprite_samurai                    sprite_samurai
     00106ACF  ___func_sprite_slash_placeholder   sprite_slash_placeholder
     00106ACF  _sprite_slash_placeholder_metasp   sprite_slash_placeholder
     00106ADB  _sprite_slash_placeholder_metasp   sprite_slash_placeholder
     00106AE7  _sprite_slash_placeholder_metasp   sprite_slash_placeholder
     00106AF3  _sprite_slash_placeholder_metasp   sprite_slash_placeholder
     00106AFF  _sprite_slash_placeholder_metasp   sprite_slash_placeholder
     00106B0B  _sprite_slash_placeholder_metasp   sprite_slash_placeholder
     00106B17  _sprite_slash_placeholder_metasp   sprite_slash_placeholder
     00106B23  _sprite_slash_placeholder_metasp   sprite_slash_placeholder
     00106B2F  _sprite_slash_placeholder_metasp   sprite_slash_placeholder
     00106B3F  _sprite_slash_placeholder_animat   sprite_slash_placeholder
     00106B4F  _sprite_slash_placeholder_animat   sprite_slash_placeholder
     00106B51  _sprite_slash_placeholder          sprite_slash_placeholder
     00106B64  ___func_sprite_tradutor            sprite_tradutor
     00106B64  _sprite_tradutor_metasprite_0      sprite_tradutor
     00106B70  _sprite_tradutor_metasprite_1      sprite_tradutor
     00106B7C  _sprite_tradutor_metasprite_2      sprite_tradutor
     00106B88  _sprite_tradutor_metasprite_3      sprite_tradutor
     00106B94  _sprite_tradutor_metasprite_4      sprite_tradutor
     00106BA0  _sprite_tradutor_metasprite_5      sprite_tradutor
     00106BAC  _sprite_tradutor_metasprite_6      sprite_tradutor
ASxxxx Linker V03.00/V05.40 + sdld,  page 106.
Hexadecimal  [32-Bits]

Area                                    Addr        Size        Decimal Bytes (Attributes)
--------------------------------        ----        ----        ------- ----- ------------
_CODE_16                            00104000    00004000 =       16384. bytes (REL,CON)

      Value  Global                              Global Defined In Module
      -----  --------------------------------   ------------------------
     00106BB8  _sprite_tradutor_metasprite_7      sprite_tradutor
     00106BC4  _sprite_tradutor_metasprite_8      sprite_tradutor
     00106BD0  _sprite_tradutor_metasprite_9      sprite_tradutor
     00106BDC  _sprite_tradutor_metasprite_10     sprite_tradutor
     00106BE8  _sprite_tradutor_metasprite_11     sprite_tradutor
     00106BF4  _sprite_tradutor_metasprite_12     sprite_tradutor
     00106C00  _sprite_tradutor_metasprite_13     sprite_tradutor
     00106C0C  _sprite_tradutor_metasprite_14     sprite_tradutor
     00106C18  _sprite_tradutor_metasprite_15     sprite_tradutor
     00106C24  _sprite_tradutor_metasprites       sprite_tradutor
     00106C44  _sprite_tradutor_animations        sprite_tradutor
     00106C54  _sprite_tradutor_animations_look   sprite_tradutor
     00106C56  _sprite_tradutor                   sprite_tradutor
     00106C69  ___func_sprite_tripulante1         sprite_tripulante1
     00106C69  _sprite_tripulante1_metasprite_0   sprite_tripulante1
     00106C75  _sprite_tripulante1_metasprite_1   sprite_tripulante1
     00106C81  _sprite_tripulante1_metasprite_2   sprite_tripulante1
     00106C8D  _sprite_tripulante1_metasprite_3   sprite_tripulante1
     00106C99  _sprite_tripulante1_metasprite_4   sprite_tripulante1
     00106CA5  _sprite_tripulante1_metasprite_5   sprite_tripulante1
     00106CB1  _sprite_tripulante1_metasprite_6   sprite_tripulante1
     00106CBD  _sprite_tripulante1_metasprite_7   sprite_tripulante1
     00106CC9  _sprite_tripulante1_metasprite_8   sprite_tripulante1
     00106CD5  _sprite_tripulante1_metasprite_9   sprite_tripulante1
     00106CE1  _sprite_tripulante1_metasprite_1   sprite_tripulante1
     00106CED  _sprite_tripulante1_metasprite_1   sprite_tripulante1
     00106CF9  _sprite_tripulante1_metasprite_1   sprite_tripulante1
     00106D05  _sprite_tripulante1_metasprite_1   sprite_tripulante1
     00106D11  _sprite_tripulante1_metasprite_1   sprite_tripulante1
     00106D1D  _sprite_tripulante1_metasprite_1   sprite_tripulante1
     00106D29  _sprite_tripulante1_metasprites    sprite_tripulante1
     00106D49  _sprite_tripulante1_animations     sprite_tripulante1
     00106D59  _sprite_tripulante1_animations_l   sprite_tripulante1
     00106D5B  _sprite_tripulante1                sprite_tripulante1
     00106D6E  ___func_sprite_tripulante2         sprite_tripulante2
     00106D6E  _sprite_tripulante2_metasprite_0   sprite_tripulante2
     00106D7A  _sprite_tripulante2_metasprite_1   sprite_tripulante2
     00106D86  _sprite_tripulante2_metasprite_2   sprite_tripulante2
     00106D92  _sprite_tripulante2_metasprite_3   sprite_tripulante2
     00106D9E  _sprite_tripulante2_metasprite_4   sprite_tripulante2
     00106DAA  _sprite_tripulante2_metasprite_5   sprite_tripulante2
     00106DB6  _sprite_tripulante2_metasprite_6   sprite_tripulante2
     00106DC2  _sprite_tripulante2_metasprite_7   sprite_tripulante2
     00106DCE  _sprite_tripulante2_metasprite_8   sprite_tripulante2
     00106DDA  _sprite_tripulante2_metasprite_9   sprite_tripulante2
     00106DE6  _sprite_tripulante2_metasprite_1   sprite_tripulante2
     00106DF2  _sprite_tripulante2_metasprite_1   sprite_tripulante2
     00106DFE  _sprite_tripulante2_metasprite_1   sprite_tripulante2
     00106E0A  _sprite_tripulante2_metasprite_1   sprite_tripulante2
     00106E16  _sprite_tripulante2_metasprite_1   sprite_tripulante2
     00106E22  _sprite_tripulante2_metasprite_1   sprite_tripulante2
ASxxxx Linker V03.00/V05.40 + sdld,  page 107.
Hexadecimal  [32-Bits]

Area                                    Addr        Size        Decimal Bytes (Attributes)
--------------------------------        ----        ----        ------- ----- ------------
_CODE_16                            00104000    00004000 =       16384. bytes (REL,CON)

      Value  Global                              Global Defined In Module
      -----  --------------------------------   ------------------------
     00106E2E  _sprite_tripulante2_metasprites    sprite_tripulante2
     00106E4E  _sprite_tripulante2_animations     sprite_tripulante2
     00106E5E  _sprite_tripulante2_animations_l   sprite_tripulante2
     00106E60  _sprite_tripulante2                sprite_tripulante2
     00106E73  _trigger_10_interact               trigger_10_interact
     00106E76  GBVM$trigger_10_interact$5fbf3ca   trigger_10_interact
     00106E76  GBVM$trigger_10_interact$766aa08   trigger_10_interact
     00106E81  GBVM$trigger_10_interact$71ab189   trigger_10_interact
     00106E9A  GBVM$trigger_10_interact$cf7e638   trigger_10_interact
     00106EAC  GBVM$trigger_10_interact$ccc9de3   trigger_10_interact
     00106EC1  GBVM$trigger_10_interact$77820a0   trigger_10_interact
     00106EC1  GBVM$trigger_10_interact$9db64b4   trigger_10_interact
     00106EC1  GBVM$trigger_10_interact$b0fdad2   trigger_10_interact
     00106ED2  GBVM$trigger_10_interact$db327fb   trigger_10_interact
     00106EDC  GBVM$trigger_10_interact$7247d92   trigger_10_interact
     00106EE8  GBVM$trigger_10_interact$c3c2f79   trigger_10_interact
     00106EF2  GBVM$trigger_10_interact$b5da225   trigger_10_interact
     00106F0D  GBVM_END$trigger_10_interact$5fb   trigger_10_interact
     00106F0D  GBVM_END$trigger_10_interact$778   trigger_10_interact
     00106F0D  GBVM_END$trigger_10_interact$9db   trigger_10_interact
     00106F0D  GBVM_END$trigger_10_interact$b0f   trigger_10_interact
     00106F0D  GBVM_END$trigger_10_interact$ccc   trigger_10_interact
     00106F0E  _trigger_11_interact               trigger_11_interact
     00106F11  GBVM$trigger_11_interact$4245d17   trigger_11_interact
     00106F11  GBVM$trigger_11_interact$4dec7e8   trigger_11_interact
     00106F1C  GBVM$trigger_11_interact$c3a26ee   trigger_11_interact
     00106F35  GBVM$trigger_11_interact$541b524   trigger_11_interact
     00106F47  GBVM$trigger_11_interact$9afe15a   trigger_11_interact
     00106F5C  GBVM$trigger_11_interact$20064cb   trigger_11_interact
     00106F5C  GBVM$trigger_11_interact$6b34684   trigger_11_interact
     00106F5C  GBVM$trigger_11_interact$ec2d3af   trigger_11_interact
     00106F6D  GBVM$trigger_11_interact$0f67870   trigger_11_interact
     00106F77  GBVM$trigger_11_interact$0375d91   trigger_11_interact
     00106F83  GBVM$trigger_11_interact$a847053   trigger_11_interact
     00106F8D  GBVM$trigger_11_interact$a1f5d65   trigger_11_interact
     00106FA8  GBVM_END$trigger_11_interact$200   trigger_11_interact
     00106FA8  GBVM_END$trigger_11_interact$4de   trigger_11_interact
     00106FA8  GBVM_END$trigger_11_interact$6b3   trigger_11_interact
     00106FA8  GBVM_END$trigger_11_interact$9af   trigger_11_interact
     00106FA8  GBVM_END$trigger_11_interact$ec2   trigger_11_interact
     00106FA9  _trigger_12_interact               trigger_12_interact
     00106FAC  GBVM$trigger_12_interact$0150e6a   trigger_12_interact
     00106FAC  GBVM$trigger_12_interact$bd89637   trigger_12_interact
     00106FB7  GBVM$trigger_12_interact$70296e8   trigger_12_interact
     00106FD0  GBVM$trigger_12_interact$08c2ace   trigger_12_interact
     00106FE2  GBVM$trigger_12_interact$fc8a16c   trigger_12_interact
     00106FF7  GBVM$trigger_12_interact$0dc6650   trigger_12_interact
     00106FF7  GBVM$trigger_12_interact$72abede   trigger_12_interact
     00106FF7  GBVM$trigger_12_interact$add3292   trigger_12_interact
     00107008  GBVM$trigger_12_interact$62fa605   trigger_12_interact
     00107012  GBVM$trigger_12_interact$8f941d0   trigger_12_interact
ASxxxx Linker V03.00/V05.40 + sdld,  page 108.
Hexadecimal  [32-Bits]

Area                                    Addr        Size        Decimal Bytes (Attributes)
--------------------------------        ----        ----        ------- ----- ------------
_CODE_16                            00104000    00004000 =       16384. bytes (REL,CON)

      Value  Global                              Global Defined In Module
      -----  --------------------------------   ------------------------
     0010701E  GBVM$trigger_12_interact$2b4a0d9   trigger_12_interact
     00107028  GBVM$trigger_12_interact$d7e2bfa   trigger_12_interact
     00107043  GBVM_END$trigger_12_interact$015   trigger_12_interact
     00107043  GBVM_END$trigger_12_interact$0dc   trigger_12_interact
     00107043  GBVM_END$trigger_12_interact$72a   trigger_12_interact
     00107043  GBVM_END$trigger_12_interact$add   trigger_12_interact
     00107043  GBVM_END$trigger_12_interact$fc8   trigger_12_interact
     00107044  _trigger_13_interact               trigger_13_interact
     00107047  GBVM$trigger_13_interact$1cee60d   trigger_13_interact
     00107047  GBVM$trigger_13_interact$f83cec0   trigger_13_interact
     00107052  GBVM$trigger_13_interact$1cc0f8b   trigger_13_interact
     0010706B  GBVM$trigger_13_interact$864ba1a   trigger_13_interact
     0010707D  GBVM$trigger_13_interact$ea89a42   trigger_13_interact
     00107092  GBVM$trigger_13_interact$025ed80   trigger_13_interact
     00107092  GBVM$trigger_13_interact$86da2f0   trigger_13_interact
     00107092  GBVM$trigger_13_interact$99d0c90   trigger_13_interact
     001070A3  GBVM$trigger_13_interact$6a132a6   trigger_13_interact
     001070AD  GBVM$trigger_13_interact$3d7546d   trigger_13_interact
     001070B9  GBVM$trigger_13_interact$a5fb392   trigger_13_interact
     001070C3  GBVM$trigger_13_interact$10472af   trigger_13_interact
     001070DE  GBVM_END$trigger_13_interact$025   trigger_13_interact
     001070DE  GBVM_END$trigger_13_interact$86d   trigger_13_interact
     001070DE  GBVM_END$trigger_13_interact$99d   trigger_13_interact
     001070DE  GBVM_END$trigger_13_interact$ea8   trigger_13_interact
     001070DE  GBVM_END$trigger_13_interact$f83   trigger_13_interact
     001070DF  _trigger_14_interact               trigger_14_interact
     001070E2  GBVM$trigger_14_interact$6a4c4f7   trigger_14_interact
     001070E2  GBVM$trigger_14_interact$fa28579   trigger_14_interact
     001070ED  GBVM$trigger_14_interact$7a51af0   trigger_14_interact
     00107106  GBVM$trigger_14_interact$5a93b35   trigger_14_interact
     00107118  GBVM$trigger_14_interact$60d1d69   trigger_14_interact
     0010712D  GBVM$trigger_14_interact$628fbd2   trigger_14_interact
     0010712D  GBVM$trigger_14_interact$970cb47   trigger_14_interact
     0010712D  GBVM$trigger_14_interact$f0c406e   trigger_14_interact
     0010713E  GBVM$trigger_14_interact$f21977c   trigger_14_interact
     00107148  GBVM$trigger_14_interact$118a040   trigger_14_interact
     00107154  GBVM$trigger_14_interact$a9ccdcf   trigger_14_interact
     0010715E  GBVM$trigger_14_interact$44dd65f   trigger_14_interact
     00107179  GBVM_END$trigger_14_interact$60d   trigger_14_interact
     00107179  GBVM_END$trigger_14_interact$628   trigger_14_interact
     00107179  GBVM_END$trigger_14_interact$6a4   trigger_14_interact
     00107179  GBVM_END$trigger_14_interact$970   trigger_14_interact
     00107179  GBVM_END$trigger_14_interact$f0c   trigger_14_interact
     0010717A  _trigger_16_interact               trigger_16_interact
     0010718E  GBVM$trigger_16_interact$845d13a   trigger_16_interact
     001071A0  GBVM$trigger_16_interact$de14d60   trigger_16_interact
     001071D5  GBVM$trigger_16_interact$22dff7e   trigger_16_interact
     00107207  GBVM_END$trigger_16_interact$845   trigger_16_interact
     00107219  GBVM$trigger_16_interact$d612d13   trigger_16_interact
     00107221  GBVM$trigger_16_interact$01428d2   trigger_16_interact
     0010722B  _trigger_19_interact               trigger_19_interact
ASxxxx Linker V03.00/V05.40 + sdld,  page 109.
Hexadecimal  [32-Bits]

Area                                    Addr        Size        Decimal Bytes (Attributes)
--------------------------------        ----        ----        ------- ----- ------------
_CODE_16                            00104000    00004000 =       16384. bytes (REL,CON)

      Value  Global                              Global Defined In Module
      -----  --------------------------------   ------------------------
     0010722E  GBVM$trigger_19_interact$ca903de   trigger_19_interact
     00107237  GBVM$trigger_19_interact$6e0194c   trigger_19_interact
     0010726C  GBVM$trigger_19_interact$3af0379   trigger_19_interact
     0010726D  GBVM$trigger_19_interact$8a5bcb9   trigger_19_interact
     00107272  GBVM$trigger_19_interact$efd16d0   trigger_19_interact
     00107277  GBVM$trigger_19_interact$e42f93b   trigger_19_interact
     0010727C  GBVM$trigger_19_interact$68e1fe4   trigger_19_interact
     001072AE  GBVM_END$trigger_19_interact$ca9   trigger_19_interact
     001072AF  _trigger_2_interact                trigger_2_interact
     001072B2  GBVM$trigger_2_interact$a7e5ecfb   trigger_2_interact
     001072B2  GBVM$trigger_2_interact$ee59128a   trigger_2_interact
     001072BD  GBVM$trigger_2_interact$f1ed5cab   trigger_2_interact
     001072D6  GBVM$trigger_2_interact$66c5614b   trigger_2_interact
     001072E8  GBVM$trigger_2_interact$a85aca78   trigger_2_interact
     001072FD  GBVM$trigger_2_interact$2cb00dd0   trigger_2_interact
     001072FD  GBVM$trigger_2_interact$b7d77655   trigger_2_interact
     001072FD  GBVM$trigger_2_interact$f28eaff2   trigger_2_interact
     0010730E  GBVM$trigger_2_interact$637701a2   trigger_2_interact
     00107318  GBVM$trigger_2_interact$14816ab8   trigger_2_interact
     00107324  GBVM$trigger_2_interact$5fefd551   trigger_2_interact
     0010732E  GBVM$trigger_2_interact$40ff049e   trigger_2_interact
     00107349  GBVM_END$trigger_2_interact$2cb0   trigger_2_interact
     00107349  GBVM_END$trigger_2_interact$a85a   trigger_2_interact
     00107349  GBVM_END$trigger_2_interact$b7d7   trigger_2_interact
     00107349  GBVM_END$trigger_2_interact$ee59   trigger_2_interact
     00107349  GBVM_END$trigger_2_interact$f28e   trigger_2_interact
     0010734A  _trigger_27_interact               trigger_27_interact
     0010734D  GBVM$trigger_27_interact$d506df7   trigger_27_interact
     0010734D  GBVM$trigger_27_interact$fca1ca9   trigger_27_interact
     00107358  GBVM$trigger_27_interact$59cf7e2   trigger_27_interact
     00107371  GBVM$trigger_27_interact$523c995   trigger_27_interact
     00107383  GBVM$trigger_27_interact$9980e03   trigger_27_interact
     00107398  GBVM$trigger_27_interact$7ad4344   trigger_27_interact
     00107398  GBVM$trigger_27_interact$d99e4a6   trigger_27_interact
     00107398  GBVM$trigger_27_interact$ee07ed2   trigger_27_interact
     001073A9  GBVM$trigger_27_interact$c87ea64   trigger_27_interact
     001073B3  GBVM$trigger_27_interact$0ed0413   trigger_27_interact
     001073BF  GBVM$trigger_27_interact$0ef84e6   trigger_27_interact
     001073C9  GBVM$trigger_27_interact$a429c32   trigger_27_interact
     001073E4  GBVM_END$trigger_27_interact$7ad   trigger_27_interact
     001073E4  GBVM_END$trigger_27_interact$998   trigger_27_interact
     001073E4  GBVM_END$trigger_27_interact$d50   trigger_27_interact
     001073E4  GBVM_END$trigger_27_interact$d99   trigger_27_interact
     001073E4  GBVM_END$trigger_27_interact$ee0   trigger_27_interact
     001073E5  _trigger_29_interact               trigger_29_interact
     001073E8  GBVM$trigger_29_interact$225e9e1   trigger_29_interact
     001073E8  GBVM$trigger_29_interact$907c2f1   trigger_29_interact
     001073F3  GBVM$trigger_29_interact$4b78e14   trigger_29_interact
     0010740C  GBVM$trigger_29_interact$411aa23   trigger_29_interact
     0010741E  GBVM$trigger_29_interact$cff4aa6   trigger_29_interact
     00107433  GBVM$trigger_29_interact$ac74415   trigger_29_interact
ASxxxx Linker V03.00/V05.40 + sdld,  page 110.
Hexadecimal  [32-Bits]

Area                                    Addr        Size        Decimal Bytes (Attributes)
--------------------------------        ----        ----        ------- ----- ------------
_CODE_16                            00104000    00004000 =       16384. bytes (REL,CON)

      Value  Global                              Global Defined In Module
      -----  --------------------------------   ------------------------
     00107433  GBVM$trigger_29_interact$e118367   trigger_29_interact
     00107433  GBVM$trigger_29_interact$fac0aa7   trigger_29_interact
     00107444  GBVM$trigger_29_interact$1fa0dfe   trigger_29_interact
     0010744E  GBVM$trigger_29_interact$47b245f   trigger_29_interact
     0010745A  GBVM$trigger_29_interact$aca242f   trigger_29_interact
     00107464  GBVM$trigger_29_interact$f28ca74   trigger_29_interact
     0010747F  GBVM_END$trigger_29_interact$907   trigger_29_interact
     0010747F  GBVM_END$trigger_29_interact$ac7   trigger_29_interact
     0010747F  GBVM_END$trigger_29_interact$cff   trigger_29_interact
     0010747F  GBVM_END$trigger_29_interact$e11   trigger_29_interact
     0010747F  GBVM_END$trigger_29_interact$fac   trigger_29_interact
     00107480  _trigger_30_interact               trigger_30_interact
     00107483  GBVM$trigger_30_interact$01731f2   trigger_30_interact
     00107483  GBVM$trigger_30_interact$41f0196   trigger_30_interact
     0010748E  GBVM$trigger_30_interact$67b4518   trigger_30_interact
     001074A7  GBVM$trigger_30_interact$e73aff2   trigger_30_interact
     001074B9  GBVM$trigger_30_interact$06f3647   trigger_30_interact
     001074CE  GBVM$trigger_30_interact$44b7f05   trigger_30_interact
     001074CE  GBVM$trigger_30_interact$567fe55   trigger_30_interact
     001074CE  GBVM$trigger_30_interact$c475926   trigger_30_interact
     001074DF  GBVM$trigger_30_interact$86aa08c   trigger_30_interact
     001074E9  GBVM$trigger_30_interact$2ca00f5   trigger_30_interact
     001074F5  GBVM$trigger_30_interact$f7bd703   trigger_30_interact
     001074FF  GBVM$trigger_30_interact$d762066   trigger_30_interact
     0010751A  GBVM_END$trigger_30_interact$017   trigger_30_interact
     0010751A  GBVM_END$trigger_30_interact$06f   trigger_30_interact
     0010751A  GBVM_END$trigger_30_interact$44b   trigger_30_interact
     0010751A  GBVM_END$trigger_30_interact$567   trigger_30_interact
     0010751A  GBVM_END$trigger_30_interact$c47   trigger_30_interact
     0010751B  _trigger_31_interact               trigger_31_interact
     0010751E  GBVM$trigger_31_interact$59ddd42   trigger_31_interact
     0010751E  GBVM$trigger_31_interact$ab568eb   trigger_31_interact
     00107529  GBVM$trigger_31_interact$04611b5   trigger_31_interact
     00107542  GBVM$trigger_31_interact$102a5f0   trigger_31_interact
     00107554  GBVM$trigger_31_interact$8f1487a   trigger_31_interact
     00107569  GBVM$trigger_31_interact$238795e   trigger_31_interact
     00107569  GBVM$trigger_31_interact$4da980f   trigger_31_interact
     00107569  GBVM$trigger_31_interact$da9eb1c   trigger_31_interact
     0010757A  GBVM$trigger_31_interact$40ea852   trigger_31_interact
     00107584  GBVM$trigger_31_interact$0feb2b2   trigger_31_interact
     00107590  GBVM$trigger_31_interact$ec084a0   trigger_31_interact
     0010759A  GBVM$trigger_31_interact$f1eb34d   trigger_31_interact
     001075B5  GBVM_END$trigger_31_interact$238   trigger_31_interact
     001075B5  GBVM_END$trigger_31_interact$4da   trigger_31_interact
     001075B5  GBVM_END$trigger_31_interact$59d   trigger_31_interact
     001075B5  GBVM_END$trigger_31_interact$8f1   trigger_31_interact
     001075B5  GBVM_END$trigger_31_interact$da9   trigger_31_interact
     001075B6  _trigger_32_interact               trigger_32_interact
     001075B9  GBVM$trigger_32_interact$08a40f5   trigger_32_interact
     001075B9  GBVM$trigger_32_interact$8b9c8a5   trigger_32_interact
     001075C4  GBVM$trigger_32_interact$f2539e7   trigger_32_interact
ASxxxx Linker V03.00/V05.40 + sdld,  page 111.
Hexadecimal  [32-Bits]

Area                                    Addr        Size        Decimal Bytes (Attributes)
--------------------------------        ----        ----        ------- ----- ------------
_CODE_16                            00104000    00004000 =       16384. bytes (REL,CON)

      Value  Global                              Global Defined In Module
      -----  --------------------------------   ------------------------
     001075DD  GBVM$trigger_32_interact$c09ead3   trigger_32_interact
     001075EF  GBVM$trigger_32_interact$e69deac   trigger_32_interact
     00107604  GBVM$trigger_32_interact$0413712   trigger_32_interact
     00107604  GBVM$trigger_32_interact$c2659bf   trigger_32_interact
     00107604  GBVM$trigger_32_interact$e87d088   trigger_32_interact
     00107615  GBVM$trigger_32_interact$19e8fc6   trigger_32_interact
     0010761F  GBVM$trigger_32_interact$3ce4b67   trigger_32_interact
     0010762B  GBVM$trigger_32_interact$0e9d588   trigger_32_interact
     00107635  GBVM$trigger_32_interact$b08be50   trigger_32_interact
     00107650  GBVM_END$trigger_32_interact$041   trigger_32_interact
     00107650  GBVM_END$trigger_32_interact$8b9   trigger_32_interact
     00107650  GBVM_END$trigger_32_interact$c26   trigger_32_interact
     00107650  GBVM_END$trigger_32_interact$e69   trigger_32_interact
     00107650  GBVM_END$trigger_32_interact$e87   trigger_32_interact
     00107651  _trigger_33_interact               trigger_33_interact
     00107654  GBVM$trigger_33_interact$14be0ab   trigger_33_interact
     00107654  GBVM$trigger_33_interact$518c8a2   trigger_33_interact
     0010765F  GBVM$trigger_33_interact$1d52b78   trigger_33_interact
     00107678  GBVM$trigger_33_interact$116477e   trigger_33_interact
     0010768A  GBVM$trigger_33_interact$74345d4   trigger_33_interact
     0010769F  GBVM$trigger_33_interact$4647003   trigger_33_interact
     0010769F  GBVM$trigger_33_interact$4ada7bc   trigger_33_interact
     0010769F  GBVM$trigger_33_interact$946fecf   trigger_33_interact
     001076B0  GBVM$trigger_33_interact$e3c70a5   trigger_33_interact
     001076BA  GBVM$trigger_33_interact$7e82da2   trigger_33_interact
     001076C6  GBVM$trigger_33_interact$0ffb2c3   trigger_33_interact
     001076D0  GBVM$trigger_33_interact$fb8be51   trigger_33_interact
     001076EB  GBVM_END$trigger_33_interact$464   trigger_33_interact
     001076EB  GBVM_END$trigger_33_interact$4ad   trigger_33_interact
     001076EB  GBVM_END$trigger_33_interact$518   trigger_33_interact
     001076EB  GBVM_END$trigger_33_interact$743   trigger_33_interact
     001076EB  GBVM_END$trigger_33_interact$946   trigger_33_interact
     001076EC  _trigger_34_interact               trigger_34_interact
     001076EF  GBVM$trigger_34_interact$473392a   trigger_34_interact
     001076EF  GBVM$trigger_34_interact$603bcb9   trigger_34_interact
     001076FA  GBVM$trigger_34_interact$620d1f3   trigger_34_interact
     00107713  GBVM$trigger_34_interact$ca1a497   trigger_34_interact
     00107725  GBVM$trigger_34_interact$6d792e4   trigger_34_interact
     0010773A  GBVM$trigger_34_interact$56518aa   trigger_34_interact
     0010773A  GBVM$trigger_34_interact$873d81a   trigger_34_interact
     0010773A  GBVM$trigger_34_interact$b509a2e   trigger_34_interact
     0010774B  GBVM$trigger_34_interact$062085a   trigger_34_interact
     00107755  GBVM$trigger_34_interact$486c9b1   trigger_34_interact
     00107761  GBVM$trigger_34_interact$e608e57   trigger_34_interact
     0010776B  GBVM$trigger_34_interact$fb7d588   trigger_34_interact
     00107786  GBVM_END$trigger_34_interact$473   trigger_34_interact
     00107786  GBVM_END$trigger_34_interact$565   trigger_34_interact
     00107786  GBVM_END$trigger_34_interact$6d7   trigger_34_interact
     00107786  GBVM_END$trigger_34_interact$873   trigger_34_interact
     00107786  GBVM_END$trigger_34_interact$b50   trigger_34_interact
     00107787  _trigger_35_interact               trigger_35_interact
ASxxxx Linker V03.00/V05.40 + sdld,  page 112.
Hexadecimal  [32-Bits]

Area                                    Addr        Size        Decimal Bytes (Attributes)
--------------------------------        ----        ----        ------- ----- ------------
_CODE_16                            00104000    00004000 =       16384. bytes (REL,CON)

      Value  Global                              Global Defined In Module
      -----  --------------------------------   ------------------------
     0010778A  GBVM$trigger_35_interact$c3d5f1c   trigger_35_interact
     0010778A  GBVM$trigger_35_interact$e511ee1   trigger_35_interact
     00107795  GBVM$trigger_35_interact$9a883c1   trigger_35_interact
     001077AE  GBVM$trigger_35_interact$0982202   trigger_35_interact
     001077C0  GBVM$trigger_35_interact$5024ca9   trigger_35_interact
     001077D5  GBVM$trigger_35_interact$6c988b0   trigger_35_interact
     001077D5  GBVM$trigger_35_interact$a7ca65e   trigger_35_interact
     001077D5  GBVM$trigger_35_interact$d54694f   trigger_35_interact
     001077E6  GBVM$trigger_35_interact$28a0daf   trigger_35_interact
     001077F0  GBVM$trigger_35_interact$6801b19   trigger_35_interact
     001077FC  GBVM$trigger_35_interact$5abcd4e   trigger_35_interact
     00107806  GBVM$trigger_35_interact$fd35fe3   trigger_35_interact
     00107821  GBVM_END$trigger_35_interact$502   trigger_35_interact
     00107821  GBVM_END$trigger_35_interact$6c9   trigger_35_interact
     00107821  GBVM_END$trigger_35_interact$a7c   trigger_35_interact
     00107821  GBVM_END$trigger_35_interact$d54   trigger_35_interact
     00107821  GBVM_END$trigger_35_interact$e51   trigger_35_interact
     00107822  _trigger_36_interact               trigger_36_interact
     00107825  GBVM$trigger_36_interact$58a5c85   trigger_36_interact
     00107825  GBVM$trigger_36_interact$b50369f   trigger_36_interact
     00107830  GBVM$trigger_36_interact$47e1540   trigger_36_interact
     00107849  GBVM$trigger_36_interact$7ac474e   trigger_36_interact
     0010785B  GBVM$trigger_36_interact$1be1c62   trigger_36_interact
     00107870  GBVM$trigger_36_interact$1f2487b   trigger_36_interact
     00107870  GBVM$trigger_36_interact$46b274f   trigger_36_interact
     00107870  GBVM$trigger_36_interact$a4637fd   trigger_36_interact
     00107881  GBVM$trigger_36_interact$291a49c   trigger_36_interact
     0010788B  GBVM$trigger_36_interact$d5cdc1b   trigger_36_interact
     00107897  GBVM$trigger_36_interact$3e2929b   trigger_36_interact
     001078A1  GBVM$trigger_36_interact$12f4e81   trigger_36_interact
     001078BC  GBVM_END$trigger_36_interact$1be   trigger_36_interact
     001078BC  GBVM_END$trigger_36_interact$1f2   trigger_36_interact
     001078BC  GBVM_END$trigger_36_interact$46b   trigger_36_interact
     001078BC  GBVM_END$trigger_36_interact$58a   trigger_36_interact
     001078BC  GBVM_END$trigger_36_interact$a46   trigger_36_interact
     001078BD  _trigger_37_interact               trigger_37_interact
     001078C0  GBVM$trigger_37_interact$fa37409   trigger_37_interact
     001078C0  GBVM$trigger_37_interact$fe40555   trigger_37_interact
     001078CB  GBVM$trigger_37_interact$4651efd   trigger_37_interact
     001078E4  GBVM$trigger_37_interact$8e82cc4   trigger_37_interact
     001078F6  GBVM$trigger_37_interact$e6c132d   trigger_37_interact
     0010790B  GBVM$trigger_37_interact$4ceef9f   trigger_37_interact
     0010790B  GBVM$trigger_37_interact$d8a6732   trigger_37_interact
     0010790B  GBVM$trigger_37_interact$f14fe56   trigger_37_interact
     0010791C  GBVM$trigger_37_interact$a7292f0   trigger_37_interact
     00107926  GBVM$trigger_37_interact$8b31921   trigger_37_interact
     00107932  GBVM$trigger_37_interact$83ac81c   trigger_37_interact
     0010793C  GBVM$trigger_37_interact$81d5987   trigger_37_interact
     00107957  GBVM_END$trigger_37_interact$4ce   trigger_37_interact
     00107957  GBVM_END$trigger_37_interact$d8a   trigger_37_interact
     00107957  GBVM_END$trigger_37_interact$e6c   trigger_37_interact
ASxxxx Linker V03.00/V05.40 + sdld,  page 113.
Hexadecimal  [32-Bits]

Area                                    Addr        Size        Decimal Bytes (Attributes)
--------------------------------        ----        ----        ------- ----- ------------
_CODE_16                            00104000    00004000 =       16384. bytes (REL,CON)

      Value  Global                              Global Defined In Module
      -----  --------------------------------   ------------------------
     00107957  GBVM_END$trigger_37_interact$f14   trigger_37_interact
     00107957  GBVM_END$trigger_37_interact$fe4   trigger_37_interact
     00107958  _trigger_38_interact               trigger_38_interact
     0010795B  GBVM$trigger_38_interact$50f2eaa   trigger_38_interact
     0010795B  GBVM$trigger_38_interact$bb315a2   trigger_38_interact
     00107966  GBVM$trigger_38_interact$3aa2304   trigger_38_interact
     0010797F  GBVM$trigger_38_interact$cc6d582   trigger_38_interact
     00107991  GBVM$trigger_38_interact$1f3d890   trigger_38_interact
     001079A6  GBVM$trigger_38_interact$65a8100   trigger_38_interact
     001079A6  GBVM$trigger_38_interact$81907b2   trigger_38_interact
     001079A6  GBVM$trigger_38_interact$d10212e   trigger_38_interact
     001079B7  GBVM$trigger_38_interact$b9c6000   trigger_38_interact
     001079C1  GBVM$trigger_38_interact$125e063   trigger_38_interact
     001079CD  GBVM$trigger_38_interact$ad8c51c   trigger_38_interact
     001079D7  GBVM$trigger_38_interact$9f0ebea   trigger_38_interact
     001079F2  GBVM_END$trigger_38_interact$1f3   trigger_38_interact
     001079F2  GBVM_END$trigger_38_interact$50f   trigger_38_interact
     001079F2  GBVM_END$trigger_38_interact$65a   trigger_38_interact
     001079F2  GBVM_END$trigger_38_interact$819   trigger_38_interact
     001079F2  GBVM_END$trigger_38_interact$d10   trigger_38_interact
     001079F3  _trigger_39_interact               trigger_39_interact
     001079F6  GBVM$trigger_39_interact$2e0c3e6   trigger_39_interact
     001079F6  GBVM$trigger_39_interact$6a962ec   trigger_39_interact
     00107A01  GBVM$trigger_39_interact$60f8626   trigger_39_interact
     00107A1A  GBVM$trigger_39_interact$58ca301   trigger_39_interact
     00107A2C  GBVM$trigger_39_interact$62f44c0   trigger_39_interact
     00107A41  GBVM$trigger_39_interact$3e2facb   trigger_39_interact
     00107A41  GBVM$trigger_39_interact$4e8d3d8   trigger_39_interact
     00107A41  GBVM$trigger_39_interact$b783341   trigger_39_interact
     00107A52  GBVM$trigger_39_interact$a766d48   trigger_39_interact
     00107A5C  GBVM$trigger_39_interact$01d334d   trigger_39_interact
     00107A68  GBVM$trigger_39_interact$ae85e18   trigger_39_interact
     00107A72  GBVM$trigger_39_interact$c3fd9f8   trigger_39_interact
     00107A8D  GBVM_END$trigger_39_interact$2e0   trigger_39_interact
     00107A8D  GBVM_END$trigger_39_interact$3e2   trigger_39_interact
     00107A8D  GBVM_END$trigger_39_interact$4e8   trigger_39_interact
     00107A8D  GBVM_END$trigger_39_interact$62f   trigger_39_interact
     00107A8D  GBVM_END$trigger_39_interact$b78   trigger_39_interact
     00107A8E  _trigger_4_interact                trigger_4_interact
     00107A91  GBVM$trigger_4_interact$731642cc   trigger_4_interact
     00107A91  GBVM$trigger_4_interact$bb22a54a   trigger_4_interact
     00107A9C  GBVM$trigger_4_interact$ac9a7850   trigger_4_interact
     00107AB5  GBVM$trigger_4_interact$8ddd3c03   trigger_4_interact
     00107AC7  GBVM$trigger_4_interact$2047996b   trigger_4_interact
     00107ADC  GBVM$trigger_4_interact$565246db   trigger_4_interact
     00107ADC  GBVM$trigger_4_interact$8cc2cdf5   trigger_4_interact
     00107ADC  GBVM$trigger_4_interact$bc65266b   trigger_4_interact
     00107AED  GBVM$trigger_4_interact$efa99401   trigger_4_interact
     00107AF7  GBVM$trigger_4_interact$e1d488f0   trigger_4_interact
     00107B03  GBVM$trigger_4_interact$da97d02a   trigger_4_interact
     00107B0D  GBVM$trigger_4_interact$ce8b62dc   trigger_4_interact
ASxxxx Linker V03.00/V05.40 + sdld,  page 114.
Hexadecimal  [32-Bits]

Area                                    Addr        Size        Decimal Bytes (Attributes)
--------------------------------        ----        ----        ------- ----- ------------
_CODE_16                            00104000    00004000 =       16384. bytes (REL,CON)

      Value  Global                              Global Defined In Module
      -----  --------------------------------   ------------------------
     00107B28  GBVM_END$trigger_4_interact$2047   trigger_4_interact
     00107B28  GBVM_END$trigger_4_interact$5652   trigger_4_interact
     00107B28  GBVM_END$trigger_4_interact$8cc2   trigger_4_interact
     00107B28  GBVM_END$trigger_4_interact$bb22   trigger_4_interact
     00107B28  GBVM_END$trigger_4_interact$bc65   trigger_4_interact
     00107B29  _trigger_40_interact               trigger_40_interact
     00107B2C  GBVM$trigger_40_interact$0dbce8a   trigger_40_interact
     00107B2C  GBVM$trigger_40_interact$4d47072   trigger_40_interact
     00107B37  GBVM$trigger_40_interact$eb8e4bb   trigger_40_interact
     00107B50  GBVM$trigger_40_interact$0c7b393   trigger_40_interact
     00107B62  GBVM$trigger_40_interact$6ef181a   trigger_40_interact
     00107B77  GBVM$trigger_40_interact$a069dec   trigger_40_interact
     00107B77  GBVM$trigger_40_interact$c76b754   trigger_40_interact
     00107B77  GBVM$trigger_40_interact$e01e2e5   trigger_40_interact
     00107B88  GBVM$trigger_40_interact$1d92ac7   trigger_40_interact
     00107B92  GBVM$trigger_40_interact$f9c567b   trigger_40_interact
     00107B9E  GBVM$trigger_40_interact$e00785e   trigger_40_interact
     00107BA8  GBVM$trigger_40_interact$7b7d91d   trigger_40_interact
     00107BC3  GBVM_END$trigger_40_interact$4d4   trigger_40_interact
     00107BC3  GBVM_END$trigger_40_interact$6ef   trigger_40_interact
     00107BC3  GBVM_END$trigger_40_interact$a06   trigger_40_interact
     00107BC3  GBVM_END$trigger_40_interact$c76   trigger_40_interact
     00107BC3  GBVM_END$trigger_40_interact$e01   trigger_40_interact
     00107BC4  _trigger_5_interact                trigger_5_interact
     00107BC7  GBVM$trigger_5_interact$3e68f0d3   trigger_5_interact
     00107BC7  GBVM$trigger_5_interact$e2f269fe   trigger_5_interact
     00107BD2  GBVM$trigger_5_interact$d2e0800d   trigger_5_interact
     00107BEB  GBVM$trigger_5_interact$ba1557d0   trigger_5_interact
     00107BFD  GBVM$trigger_5_interact$19bd5dbe   trigger_5_interact
     00107C12  GBVM$trigger_5_interact$70f8d841   trigger_5_interact
     00107C12  GBVM$trigger_5_interact$bfb8e661   trigger_5_interact
     00107C12  GBVM$trigger_5_interact$f564b5aa   trigger_5_interact
     00107C23  GBVM$trigger_5_interact$53f7d9a0   trigger_5_interact
     00107C2D  GBVM$trigger_5_interact$de6f58a5   trigger_5_interact
     00107C39  GBVM$trigger_5_interact$762bb294   trigger_5_interact
     00107C43  GBVM$trigger_5_interact$e3019e88   trigger_5_interact
     00107C5E  GBVM_END$trigger_5_interact$19bd   trigger_5_interact
     00107C5E  GBVM_END$trigger_5_interact$70f8   trigger_5_interact
     00107C5E  GBVM_END$trigger_5_interact$bfb8   trigger_5_interact
     00107C5E  GBVM_END$trigger_5_interact$e2f2   trigger_5_interact
     00107C5E  GBVM_END$trigger_5_interact$f564   trigger_5_interact
     00107C5F  _trigger_6_interact                trigger_6_interact
     00107C62  GBVM$trigger_6_interact$90532562   trigger_6_interact
     00107C62  GBVM$trigger_6_interact$9e90777d   trigger_6_interact
     00107C6D  GBVM$trigger_6_interact$f64fe2f3   trigger_6_interact
     00107C86  GBVM$trigger_6_interact$8cb8e81b   trigger_6_interact
     00107C98  GBVM$trigger_6_interact$e0f628a8   trigger_6_interact
     00107CAD  GBVM$trigger_6_interact$183fce2b   trigger_6_interact
     00107CAD  GBVM$trigger_6_interact$89e0f328   trigger_6_interact
     00107CAD  GBVM$trigger_6_interact$a36e0f6f   trigger_6_interact
     00107CBE  GBVM$trigger_6_interact$71a16cb0   trigger_6_interact
ASxxxx Linker V03.00/V05.40 + sdld,  page 115.
Hexadecimal  [32-Bits]

Area                                    Addr        Size        Decimal Bytes (Attributes)
--------------------------------        ----        ----        ------- ----- ------------
_CODE_16                            00104000    00004000 =       16384. bytes (REL,CON)

      Value  Global                              Global Defined In Module
      -----  --------------------------------   ------------------------
     00107CC8  GBVM$trigger_6_interact$30d42744   trigger_6_interact
     00107CD4  GBVM$trigger_6_interact$8efa7e76   trigger_6_interact
     00107CDE  GBVM$trigger_6_interact$1fd9b94b   trigger_6_interact
     00107CF9  GBVM_END$trigger_6_interact$183f   trigger_6_interact
     00107CF9  GBVM_END$trigger_6_interact$89e0   trigger_6_interact
     00107CF9  GBVM_END$trigger_6_interact$9e90   trigger_6_interact
     00107CF9  GBVM_END$trigger_6_interact$a36e   trigger_6_interact
     00107CF9  GBVM_END$trigger_6_interact$e0f6   trigger_6_interact
     00107CFA  _trigger_63_interact               trigger_63_interact
     00107D0E  GBVM$trigger_63_interact$fc7edfd   trigger_63_interact
     00107D20  GBVM$trigger_63_interact$e0ad573   trigger_63_interact
     00107D55  GBVM$trigger_63_interact$e6b6316   trigger_63_interact
     00107D87  GBVM_END$trigger_63_interact$fc7   trigger_63_interact
     00107D99  GBVM$trigger_63_interact$a1150ec   trigger_63_interact
     00107DA1  GBVM$trigger_63_interact$27cbf6b   trigger_63_interact
     00107DAB  _trigger_67_interact               trigger_67_interact
     00107DAE  GBVM$trigger_67_interact$6bf83c7   trigger_67_interact
     00107DB7  GBVM$trigger_67_interact$616e11e   trigger_67_interact
     00107DEC  GBVM$trigger_67_interact$b82b15c   trigger_67_interact
     00107DED  GBVM$trigger_67_interact$46c1bd6   trigger_67_interact
     00107DF2  GBVM$trigger_67_interact$55a40c8   trigger_67_interact
     00107DF7  GBVM$trigger_67_interact$61f7130   trigger_67_interact
     00107DFC  GBVM$trigger_67_interact$26026b5   trigger_67_interact
     00107E2E  GBVM_END$trigger_67_interact$6bf   trigger_67_interact
     00107E2F  _trigger_7_interact                trigger_7_interact
     00107E32  GBVM$trigger_7_interact$13443201   trigger_7_interact
     00107E32  GBVM$trigger_7_interact$d32e03a9   trigger_7_interact
     00107E3D  GBVM$trigger_7_interact$0538a8ff   trigger_7_interact
     00107E56  GBVM$trigger_7_interact$93dbc218   trigger_7_interact
     00107E68  GBVM$trigger_7_interact$b55f0169   trigger_7_interact
     00107E7D  GBVM$trigger_7_interact$98bc138a   trigger_7_interact
     00107E7D  GBVM$trigger_7_interact$f7f94513   trigger_7_interact
     00107E7D  GBVM$trigger_7_interact$f8b7c9a3   trigger_7_interact
     00107E8E  GBVM$trigger_7_interact$e6adfa86   trigger_7_interact
     00107E98  GBVM$trigger_7_interact$f854addf   trigger_7_interact
     00107EA4  GBVM$trigger_7_interact$9223533c   trigger_7_interact
     00107EAE  GBVM$trigger_7_interact$1a304068   trigger_7_interact
     00107EC9  GBVM_END$trigger_7_interact$1344   trigger_7_interact
     00107EC9  GBVM_END$trigger_7_interact$98bc   trigger_7_interact
     00107EC9  GBVM_END$trigger_7_interact$b55f   trigger_7_interact
     00107EC9  GBVM_END$trigger_7_interact$f7f9   trigger_7_interact
     00107EC9  GBVM_END$trigger_7_interact$f8b7   trigger_7_interact
     00107ECA  _trigger_8_interact                trigger_8_interact
     00107ECD  GBVM$trigger_8_interact$6974370d   trigger_8_interact
     00107ECD  GBVM$trigger_8_interact$6ae018b4   trigger_8_interact
     00107ED8  GBVM$trigger_8_interact$bab1abba   trigger_8_interact
     00107EF1  GBVM$trigger_8_interact$4e171a9b   trigger_8_interact
     00107F03  GBVM$trigger_8_interact$fe5ff105   trigger_8_interact
     00107F18  GBVM$trigger_8_interact$0c51b4af   trigger_8_interact
     00107F18  GBVM$trigger_8_interact$3e02593a   trigger_8_interact
     00107F18  GBVM$trigger_8_interact$7fb2a3dd   trigger_8_interact
ASxxxx Linker V03.00/V05.40 + sdld,  page 116.
Hexadecimal  [32-Bits]

Area                                    Addr        Size        Decimal Bytes (Attributes)
--------------------------------        ----        ----        ------- ----- ------------
_CODE_16                            00104000    00004000 =       16384. bytes (REL,CON)

      Value  Global                              Global Defined In Module
      -----  --------------------------------   ------------------------
     00107F29  GBVM$trigger_8_interact$3c032044   trigger_8_interact
     00107F33  GBVM$trigger_8_interact$66a5cc83   trigger_8_interact
     00107F3F  GBVM$trigger_8_interact$91d1c501   trigger_8_interact
     00107F49  GBVM$trigger_8_interact$ed376338   trigger_8_interact
     00107F64  GBVM_END$trigger_8_interact$0c51   trigger_8_interact
     00107F64  GBVM_END$trigger_8_interact$3e02   trigger_8_interact
     00107F64  GBVM_END$trigger_8_interact$6974   trigger_8_interact
     00107F64  GBVM_END$trigger_8_interact$7fb2   trigger_8_interact
     00107F64  GBVM_END$trigger_8_interact$fe5f   trigger_8_interact
     00107F65  _trigger_9_interact                trigger_9_interact
     00107F68  GBVM$trigger_9_interact$74d6f211   trigger_9_interact
     00107F68  GBVM$trigger_9_interact$7663f751   trigger_9_interact
     00107F73  GBVM$trigger_9_interact$e47e283a   trigger_9_interact
     00107F8C  GBVM$trigger_9_interact$158a4ac7   trigger_9_interact
     00107F9E  GBVM$trigger_9_interact$9139a757   trigger_9_interact
     00107FB3  GBVM$trigger_9_interact$7871ea90   trigger_9_interact
     00107FB3  GBVM$trigger_9_interact$ab6f5d92   trigger_9_interact
     00107FB3  GBVM$trigger_9_interact$e7d98b93   trigger_9_interact
     00107FC4  GBVM$trigger_9_interact$a3745efb   trigger_9_interact
     00107FCE  GBVM$trigger_9_interact$71628b2c   trigger_9_interact
     00107FDA  GBVM$trigger_9_interact$d6fac23a   trigger_9_interact
     00107FE4  GBVM$trigger_9_interact$9ff61255   trigger_9_interact
     00107FFF  GBVM_END$trigger_9_interact$74d6   trigger_9_interact
     00107FFF  GBVM_END$trigger_9_interact$7871   trigger_9_interact
     00107FFF  GBVM_END$trigger_9_interact$9139   trigger_9_interact
     00107FFF  GBVM_END$trigger_9_interact$ab6f   trigger_9_interact
     00107FFF  GBVM_END$trigger_9_interact$e7d9   trigger_9_interact

ASxxxx Linker V03.00/V05.40 + sdld,  page 117.
Hexadecimal  [32-Bits]

Area                                    Addr        Size        Decimal Bytes (Attributes)
--------------------------------        ----        ----        ------- ----- ------------
_HEADER_SIO0                        00000000    00000004 =           4. bytes (ABS,CON)

      Value  Global                              Global Defined In Module
      -----  --------------------------------   ------------------------
ASxxxx Linker V03.00/V05.40 + sdld,  page 118.
Hexadecimal  [32-Bits]

Area                                    Addr        Size        Decimal Bytes (Attributes)
--------------------------------        ----        ----        ------- ----- ------------
_HEADER_TIMER0                      00000000    00000004 =           4. bytes (ABS,CON)

      Value  Global                              Global Defined In Module
      -----  --------------------------------   ------------------------
ASxxxx Linker V03.00/V05.40 + sdld,  page 119.
Hexadecimal  [32-Bits]

Area                                    Addr        Size        Decimal Bytes (Attributes)
--------------------------------        ----        ----        ------- ----- ------------
_CODE_1                             00014000    00004000 =       16384. bytes (REL,CON)

      Value  Global                              Global Defined In Module
      -----  --------------------------------   ------------------------
     00014000  _ui_swap_tiles                     
     0001404A  _ui_print_make_mask_lr             
     00014066  _ui_print_make_mask_rl             
     00014082  _ui_init                           ui
     00014149  _ui_load_tiles                     ui
     000141A0  _ui_draw_frame                     ui
     00014210  _ui_print_reset                    ui
     00014244  _ui_set_start_tile                 ui
     00014270  _ui_print_render                   ui
     00014451  _ui_draw_text_buffer_char          ui
     0001489E  _ui_run_menu                       ui
     00014A18  _ui_run_modal                      ui
     00014AD2  ___func_VM_SGB                     vm_sgb
     00014AD2  ___func_bg_barco_a_sair_do_porto   bg_barco_a_sair_do_porto_til
     00014AD2  _bg_barco_a_sair_do_porto_tilese   bg_barco_a_sair_do_porto_til
     00016154  ___func_bg_boatdeath_tileset       bg_boatdeath_tileset
     00016154  _bg_boatdeath_tileset              bg_boatdeath_tileset
     000177D6  ___func_palette_0                  palette_0
     000177D6  _palette_0                         palette_0
     000177D9  _trigger_49_interact               trigger_49_interact
     000177ED  GBVM$trigger_49_interact$5f873f2   trigger_49_interact
     00017831  GBVM$trigger_49_interact$eacb4ba   trigger_49_interact
     00017838  _shmup_init                        shmup
     000178D5  _shmup_update                      shmup
ASxxxx Linker V03.00/V05.40 + sdld,  page 120.
Hexadecimal  [32-Bits]

Area                                    Addr        Size        Decimal Bytes (Attributes)
--------------------------------        ----        ----        ------- ----- ------------
_CODE_15                            000F4000    00003FFE =       16382. bytes (REL,CON)

      Value  Global                              Global Defined In Module
      -----  --------------------------------   ------------------------
     000F4000  ___func_VM_MATH                    vm_math
     000F4000  _vm_sin_scale                      vm_math
     000F409C  _vm_cos_scale                      vm_math
     000F413A  ___func_VM_MUSIC                   vm_music
     000F413A  _vm_music_play                     vm_music
     000F4187  _vm_music_stop                     vm_music
     000F41A9  _vm_music_mute                     vm_music
     000F41E7  _vm_music_routine                  vm_music
     000F420E  _vm_music_setpos                   vm_music
     000F4214  _vm_sound_mastervol                vm_music
     000F421A  _vm_sfx_play                       vm_music
     000F428D  ___func_VM_PALETTE                 vm_palette
     000F428D  _vm_load_palette                   vm_palette
     000F43E1  _actor_104_interact                actor_104_interact
     000F43E4  GBVM$actor_104_interact$d6173188   actor_104_interact
     000F4430  GBVM$actor_104_interact$bf59c9d6   actor_104_interact
     000F4437  GBVM$actor_104_interact$d06d091f   actor_104_interact
     000F4441  GBVM$actor_104_interact$68b360af   actor_104_interact
     000F444D  GBVM$actor_104_interact$12e75469   actor_104_interact
     000F4457  GBVM$actor_104_interact$1c1dab1c   actor_104_interact
     000F4463  GBVM$actor_104_interact$ca1d328b   actor_104_interact
     000F446D  GBVM$actor_104_interact$b2e9a96b   actor_104_interact
     000F44D5  GBVM$actor_104_interact$1384d219   actor_104_interact
     000F44DA  GBVM$actor_104_interact$1bae547a   actor_104_interact
     000F44DF  GBVM$actor_104_interact$23ad18ea   actor_104_interact
     000F44E8  _actor_105_interact                actor_105_interact
     000F44EB  GBVM$actor_105_interact$15c96374   actor_105_interact
     000F4537  GBVM$actor_105_interact$aa58aab2   actor_105_interact
     000F453E  GBVM$actor_105_interact$602e8527   actor_105_interact
     000F4548  GBVM$actor_105_interact$064c48d6   actor_105_interact
     000F4554  GBVM$actor_105_interact$43d49057   actor_105_interact
     000F455E  GBVM$actor_105_interact$f43247af   actor_105_interact
     000F456A  GBVM$actor_105_interact$fc3222fe   actor_105_interact
     000F4574  GBVM$actor_105_interact$f02ffe47   actor_105_interact
     000F45E1  GBVM$actor_105_interact$e1b1585f   actor_105_interact
     000F45E6  GBVM$actor_105_interact$30abba68   actor_105_interact
     000F45EB  GBVM$actor_105_interact$085b37cd   actor_105_interact
     000F45F4  _actor_19_update                   actor_19_update
     000F45F6  GBVM$actor_19_update$8f5566d6_f9   actor_19_update
     000F45FF  GBVM$actor_19_update$5d67395f_a4   actor_19_update
     000F45FF  GBVM$actor_19_update$df73ee8d_07   actor_19_update
     000F460B  GBVM$actor_19_update$fe18e1d9_a3   actor_19_update
     000F4614  GBVM$actor_19_update$01e5b88e_cb   actor_19_update
     000F462D  GBVM$actor_19_update$71d06af3_c8   actor_19_update
     000F46EA  GBVM$actor_19_update$ce3cae3e_3a   actor_19_update
     000F46EF  GBVM$actor_19_update$4d01fa5e_67   actor_19_update
     000F46F7  GBVM$actor_19_update$3f86f6a3_be   actor_19_update
     000F46FC  GBVM$actor_19_update$8c0681eb_ef   actor_19_update
     000F46FC  GBVM_END$actor_19_update$fe18e1d   actor_19_update
     000F4701  GBVM_END$actor_19_update$df73ee8   actor_19_update
ASxxxx Linker V03.00/V05.40 + sdld,  page 121.
Hexadecimal  [32-Bits]

Area                                    Addr        Size        Decimal Bytes (Attributes)
--------------------------------        ----        ----        ------- ----- ------------
_CODE_15                            000F4000    00003FFE =       16382. bytes (REL,CON)

      Value  Global                              Global Defined In Module
      -----  --------------------------------   ------------------------
     000F4704  GBVM$actor_19_update$a44eb302_ce   actor_19_update
     000F4704  GBVM$actor_19_update$c943dc68_13   actor_19_update
     000F470D  GBVM$actor_19_update$aa42330d_2e   actor_19_update
     000F474B  GBVM_END$actor_19_update$8f5566d   actor_19_update
     000F4750  _actor_22_update                   actor_22_update
     000F4752  GBVM$actor_22_update$1c7de2ff_3c   actor_22_update
     000F475B  GBVM$actor_22_update$26ad033e_64   actor_22_update
     000F475B  GBVM$actor_22_update$832bbe01_bd   actor_22_update
     000F4767  GBVM$actor_22_update$5b481435_dc   actor_22_update
     000F4770  GBVM$actor_22_update$02c1b721_01   actor_22_update
     000F4789  GBVM$actor_22_update$37a0f6e2_94   actor_22_update
     000F482B  GBVM$actor_22_update$52a22896_ad   actor_22_update
     000F4830  GBVM$actor_22_update$d795f383_cd   actor_22_update
     000F4862  GBVM$actor_22_update$66dc2de7_6e   actor_22_update
     000F4862  GBVM_END$actor_22_update$5b48143   actor_22_update
     000F4867  GBVM_END$actor_22_update$832bbe0   actor_22_update
     000F486A  GBVM$actor_22_update$e62c37bf_31   actor_22_update
     000F486A  GBVM$actor_22_update$ee64a52f_8a   actor_22_update
     000F4873  GBVM$actor_22_update$358fb918_82   actor_22_update
     000F48B1  GBVM_END$actor_22_update$1c7de2f   actor_22_update
     000F48B6  _actor_24_update                   actor_24_update
     000F48B8  GBVM$actor_24_update$1596f388_34   actor_24_update
     000F48C4  GBVM$actor_24_update$badac722_07   actor_24_update
     000F48D0  GBVM$actor_24_update$9aaa1f08_45   actor_24_update
     000F48DC  GBVM$actor_24_update$8cec8784_dd   actor_24_update
     000F4960  GBVM$actor_24_update$432d562a_30   actor_24_update
     000F4961  GBVM$actor_24_update$a20cc071_2c   actor_24_update
     000F4965  GBVM$actor_24_update$1dd0aaa0_4f   actor_24_update
     000F4997  GBVM_END$actor_24_update$1596f38   actor_24_update
     000F4997  GBVM_END$actor_24_update$9aaa1f0   actor_24_update
     000F4997  GBVM_END$actor_24_update$badac72   actor_24_update
     000F499C  _actor_30_update                   actor_30_update
     000F499E  GBVM$actor_30_update$eaaa1fd3_83   actor_30_update
     000F49A7  GBVM$actor_30_update$032a28e4_31   actor_30_update
     000F49A7  GBVM$actor_30_update$3b6ce3ad_66   actor_30_update
     000F49B3  GBVM$actor_30_update$e5365478_14   actor_30_update
     000F49BC  GBVM$actor_30_update$14279a1a_ac   actor_30_update
     000F49D5  GBVM$actor_30_update$1569ed66_b0   actor_30_update
     000F4A19  GBVM$actor_30_update$b882cc3e_de   actor_30_update
     000F4A1A  GBVM$actor_30_update$43160125_dc   actor_30_update
     000F4A1E  GBVM$actor_30_update$45b36320_7a   actor_30_update
     000F4A23  GBVM$actor_30_update$4cb8e555_6a   actor_30_update
     000F4A55  GBVM$actor_30_update$d303ada9_a4   actor_30_update
     000F4A55  GBVM_END$actor_30_update$e536547   actor_30_update
     000F4A5A  GBVM_END$actor_30_update$3b6ce3a   actor_30_update
     000F4A5D  GBVM$actor_30_update$48269236_35   actor_30_update
     000F4A5D  GBVM$actor_30_update$9b51b7a3_6b   actor_30_update
     000F4A66  GBVM$actor_30_update$e60baf88_a7   actor_30_update
     000F4AA4  GBVM_END$actor_30_update$eaaa1fd   actor_30_update
     000F4AA9  _actor_32_interact                 actor_32_interact
     000F4AAC  GBVM$actor_32_interact$161ddd8b_   actor_32_interact
ASxxxx Linker V03.00/V05.40 + sdld,  page 122.
Hexadecimal  [32-Bits]

Area                                    Addr        Size        Decimal Bytes (Attributes)
--------------------------------        ----        ----        ------- ----- ------------
_CODE_15                            000F4000    00003FFE =       16382. bytes (REL,CON)

      Value  Global                              Global Defined In Module
      -----  --------------------------------   ------------------------
     000F4ABE  GBVM$actor_32_interact$f90195f5_   actor_32_interact
     000F4AC6  GBVM$actor_32_interact$63c82a91_   actor_32_interact
     000F4ACB  GBVM$actor_32_interact$4190c44a_   actor_32_interact
     000F4ACB  GBVM_END$actor_32_interact$161dd   actor_32_interact
     000F4AD4  GBVM$actor_32_interact$5edcf078_   actor_32_interact
     000F4AD4  GBVM$actor_32_interact$9756b6ba_   actor_32_interact
     000F4AE4  GBVM$actor_32_interact$7978d252_   actor_32_interact
     000F4AE4  GBVM$actor_32_interact$bcc6214c_   actor_32_interact
     000F4B06  GBVM$actor_32_interact$73d4e032_   actor_32_interact
     000F4B06  GBVM$actor_32_interact$986276b5_   actor_32_interact
     000F4B12  GBVM$actor_32_interact$8b054b0a_   actor_32_interact
     000F4B1D  GBVM$actor_32_interact$3cc1b007_   actor_32_interact
     000F4B5B  GBVM$actor_32_interact$03bc9759_   actor_32_interact
     000F4B60  GBVM$actor_32_interact$728ba8c3_   actor_32_interact
     000F4B60  GBVM_END$actor_32_interact$73d4e   actor_32_interact
     000F4B63  GBVM$actor_32_interact$71cadc22_   actor_32_interact
     000F4B63  GBVM_END$actor_32_interact$9756b   actor_32_interact
     000F4B6F  GBVM$actor_32_interact$335475d7_   actor_32_interact
     000F4B6F  GBVM$actor_32_interact$44deeffa_   actor_32_interact
     000F4B7A  GBVM$actor_32_interact$7c7a22f3_   actor_32_interact
     000F4B7A  GBVM_END$actor_32_interact$71cad   actor_32_interact
     000F4B82  GBVM$actor_32_interact$4b0957b2_   actor_32_interact
     000F4B82  GBVM$actor_32_interact$f98cabb6_   actor_32_interact
     000F4BA6  GBVM$actor_32_interact$c4c0b251_   actor_32_interact
     000F4BCE  GBVM_END$actor_32_interact$4190c   actor_32_interact
     000F4BCF  _actor_34_interact                 actor_34_interact
     000F4BD2  GBVM$actor_34_interact$f8ebb09e_   actor_34_interact
     000F4BE4  GBVM$actor_34_interact$8018f10d_   actor_34_interact
     000F4BEC  GBVM$actor_34_interact$0e26db1b_   actor_34_interact
     000F4BF1  GBVM$actor_34_interact$2418de02_   actor_34_interact
     000F4BF1  GBVM_END$actor_34_interact$f8ebb   actor_34_interact
     000F4BFA  GBVM$actor_34_interact$918ca954_   actor_34_interact
     000F4BFA  GBVM$actor_34_interact$f45e3c8e_   actor_34_interact
     000F4C0A  GBVM$actor_34_interact$2d233ea1_   actor_34_interact
     000F4C0A  GBVM$actor_34_interact$8f01d33c_   actor_34_interact
     000F4C2C  GBVM$actor_34_interact$6fc5ba04_   actor_34_interact
     000F4C2C  GBVM$actor_34_interact$ce22a27c_   actor_34_interact
     000F4C38  GBVM$actor_34_interact$77114bff_   actor_34_interact
     000F4C43  GBVM$actor_34_interact$2de4434d_   actor_34_interact
     000F4C81  GBVM$actor_34_interact$251440d3_   actor_34_interact
     000F4C86  GBVM$actor_34_interact$b8222141_   actor_34_interact
     000F4C86  GBVM_END$actor_34_interact$6fc5b   actor_34_interact
     000F4C89  GBVM$actor_34_interact$e4ce7a49_   actor_34_interact
     000F4C89  GBVM_END$actor_34_interact$918ca   actor_34_interact
     000F4C95  GBVM$actor_34_interact$afec28c1_   actor_34_interact
     000F4C95  GBVM$actor_34_interact$cae5698e_   actor_34_interact
     000F4CA0  GBVM$actor_34_interact$00106a94_   actor_34_interact
     000F4CA0  GBVM_END$actor_34_interact$e4ce7   actor_34_interact
     000F4CA8  GBVM$actor_34_interact$58606c67_   actor_34_interact
     000F4CA8  GBVM$actor_34_interact$dd268d39_   actor_34_interact
     000F4CF2  GBVM_END$actor_34_interact$2418d   actor_34_interact
ASxxxx Linker V03.00/V05.40 + sdld,  page 123.
Hexadecimal  [32-Bits]

Area                                    Addr        Size        Decimal Bytes (Attributes)
--------------------------------        ----        ----        ------- ----- ------------
_CODE_15                            000F4000    00003FFE =       16382. bytes (REL,CON)

      Value  Global                              Global Defined In Module
      -----  --------------------------------   ------------------------
     000F4CF3  _actor_68_interact                 actor_68_interact
     000F4CF6  GBVM$actor_68_interact$1c52cec8_   actor_68_interact
     000F4D42  GBVM$actor_68_interact$fec4a9f4_   actor_68_interact
     000F4D49  GBVM$actor_68_interact$a2f7ab4f_   actor_68_interact
     000F4D53  GBVM$actor_68_interact$733172de_   actor_68_interact
     000F4D5F  GBVM$actor_68_interact$4e006d95_   actor_68_interact
     000F4D69  GBVM$actor_68_interact$8ce433f7_   actor_68_interact
     000F4D75  GBVM$actor_68_interact$f6d6de26_   actor_68_interact
     000F4D7F  GBVM$actor_68_interact$14cb20de_   actor_68_interact
     000F4DEC  GBVM$actor_68_interact$fea16717_   actor_68_interact
     000F4DF1  GBVM$actor_68_interact$6e4a1e5f_   actor_68_interact
     000F4DF6  GBVM$actor_68_interact$10b0c277_   actor_68_interact
     000F4DFF  _actor_74_interact                 actor_74_interact
     000F4E02  GBVM$actor_74_interact$c2546462_   actor_74_interact
     000F4E14  GBVM$actor_74_interact$60a4da81_   actor_74_interact
     000F4E1C  GBVM$actor_74_interact$a6166bdb_   actor_74_interact
     000F4E21  GBVM$actor_74_interact$47b80429_   actor_74_interact
     000F4E21  GBVM_END$actor_74_interact$c2546   actor_74_interact
     000F4E2A  GBVM$actor_74_interact$11ba672c_   actor_74_interact
     000F4E2A  GBVM$actor_74_interact$30b36c3e_   actor_74_interact
     000F4E3A  GBVM$actor_74_interact$b24ac7df_   actor_74_interact
     000F4E3A  GBVM$actor_74_interact$c60d99bb_   actor_74_interact
     000F4E5C  GBVM$actor_74_interact$7a1f25a5_   actor_74_interact
     000F4E5C  GBVM$actor_74_interact$b53f78aa_   actor_74_interact
     000F4E68  GBVM$actor_74_interact$c7daed33_   actor_74_interact
     000F4E73  GBVM$actor_74_interact$7134e98f_   actor_74_interact
     000F4EB1  GBVM$actor_74_interact$af264011_   actor_74_interact
     000F4EB6  GBVM$actor_74_interact$9d1e3d50_   actor_74_interact
     000F4EB6  GBVM_END$actor_74_interact$b53f7   actor_74_interact
     000F4EB9  GBVM$actor_74_interact$9a378c37_   actor_74_interact
     000F4EB9  GBVM_END$actor_74_interact$11ba6   actor_74_interact
     000F4EC5  GBVM$actor_74_interact$235c0a6e_   actor_74_interact
     000F4EC5  GBVM$actor_74_interact$50e86925_   actor_74_interact
     000F4ED0  GBVM$actor_74_interact$58274573_   actor_74_interact
     000F4ED0  GBVM_END$actor_74_interact$9a378   actor_74_interact
     000F4ED8  GBVM$actor_74_interact$14ddac8a_   actor_74_interact
     000F4ED8  GBVM$actor_74_interact$c1b649c7_   actor_74_interact
     000F4EFC  GBVM$actor_74_interact$63c5f224_   actor_74_interact
     000F4F24  GBVM_END$actor_74_interact$47b80   actor_74_interact
     000F4F25  _actor_75_interact                 actor_75_interact
     000F4F28  GBVM$actor_75_interact$96648618_   actor_75_interact
     000F4F3A  GBVM$actor_75_interact$0bef276f_   actor_75_interact
     000F4F42  GBVM$actor_75_interact$8a27b08d_   actor_75_interact
     000F4F47  GBVM$actor_75_interact$af00b98f_   actor_75_interact
     000F4F47  GBVM_END$actor_75_interact$96648   actor_75_interact
     000F4F50  GBVM$actor_75_interact$26e37105_   actor_75_interact
     000F4F50  GBVM$actor_75_interact$4595efc2_   actor_75_interact
     000F4F60  GBVM$actor_75_interact$19f562e6_   actor_75_interact
     000F4F60  GBVM$actor_75_interact$b7572ffd_   actor_75_interact
     000F4F82  GBVM$actor_75_interact$2fd84da1_   actor_75_interact
     000F4F82  GBVM$actor_75_interact$f8fbfc34_   actor_75_interact
ASxxxx Linker V03.00/V05.40 + sdld,  page 124.
Hexadecimal  [32-Bits]

Area                                    Addr        Size        Decimal Bytes (Attributes)
--------------------------------        ----        ----        ------- ----- ------------
_CODE_15                            000F4000    00003FFE =       16382. bytes (REL,CON)

      Value  Global                              Global Defined In Module
      -----  --------------------------------   ------------------------
     000F4F8E  GBVM$actor_75_interact$52ae0c03_   actor_75_interact
     000F4F99  GBVM$actor_75_interact$610aaed8_   actor_75_interact
     000F4FD7  GBVM$actor_75_interact$dd76077e_   actor_75_interact
     000F4FDC  GBVM$actor_75_interact$fc2e1b2a_   actor_75_interact
     000F4FDC  GBVM_END$actor_75_interact$f8fbf   actor_75_interact
     000F4FDF  GBVM$actor_75_interact$e3041734_   actor_75_interact
     000F4FDF  GBVM_END$actor_75_interact$26e37   actor_75_interact
     000F4FEB  GBVM$actor_75_interact$510fa907_   actor_75_interact
     000F4FEB  GBVM$actor_75_interact$73739000_   actor_75_interact
     000F4FF6  GBVM$actor_75_interact$f57ece6e_   actor_75_interact
     000F4FF6  GBVM_END$actor_75_interact$e3041   actor_75_interact
     000F4FFE  GBVM$actor_75_interact$02e44aa8_   actor_75_interact
     000F4FFE  GBVM$actor_75_interact$4a4bc917_   actor_75_interact
     000F5048  GBVM_END$actor_75_interact$af00b   actor_75_interact
     000F5049  _actor_86_interact                 actor_86_interact
     000F504C  GBVM$actor_86_interact$8a5426a2_   actor_86_interact
     000F5098  GBVM$actor_86_interact$4246efbb_   actor_86_interact
     000F509F  GBVM$actor_86_interact$1fa89573_   actor_86_interact
     000F50A9  GBVM$actor_86_interact$f2e1b82d_   actor_86_interact
     000F50B5  GBVM$actor_86_interact$f820bb7c_   actor_86_interact
     000F50BF  GBVM$actor_86_interact$5d6f55b7_   actor_86_interact
     000F50CB  GBVM$actor_86_interact$edffa1f8_   actor_86_interact
     000F50D5  GBVM$actor_86_interact$d7fd909d_   actor_86_interact
     000F513D  GBVM$actor_86_interact$322a008e_   actor_86_interact
     000F5142  GBVM$actor_86_interact$e1991ca9_   actor_86_interact
     000F5147  GBVM$actor_86_interact$03a60743_   actor_86_interact
     000F5150  _actor_89_interact                 actor_89_interact
     000F5153  GBVM$actor_89_interact$43d74708_   actor_89_interact
     000F519F  GBVM$actor_89_interact$6c611623_   actor_89_interact
     000F51A6  GBVM$actor_89_interact$48ed6628_   actor_89_interact
     000F51B0  GBVM$actor_89_interact$4aedbb89_   actor_89_interact
     000F51BC  GBVM$actor_89_interact$e1c05072_   actor_89_interact
     000F51C6  GBVM$actor_89_interact$37f6de60_   actor_89_interact
     000F51D2  GBVM$actor_89_interact$09619d16_   actor_89_interact
     000F51DC  GBVM$actor_89_interact$6323a779_   actor_89_interact
     000F5275  GBVM$actor_89_interact$499b5f91_   actor_89_interact
     000F527A  GBVM$actor_89_interact$1092e947_   actor_89_interact
     000F5283  _actor_96_interact                 actor_96_interact
     000F5286  GBVM$actor_96_interact$3f9b3b74_   actor_96_interact
     000F5298  GBVM$actor_96_interact$25d017fd_   actor_96_interact
     000F52A0  GBVM$actor_96_interact$33d68ed5_   actor_96_interact
     000F52A5  GBVM$actor_96_interact$47b5509c_   actor_96_interact
     000F52A5  GBVM_END$actor_96_interact$3f9b3   actor_96_interact
     000F52AE  GBVM$actor_96_interact$4fc03d2a_   actor_96_interact
     000F52AE  GBVM$actor_96_interact$53dff26b_   actor_96_interact
     000F52BE  GBVM$actor_96_interact$1f059a5e_   actor_96_interact
     000F52BE  GBVM$actor_96_interact$ca44008f_   actor_96_interact
     000F52E0  GBVM$actor_96_interact$07d05393_   actor_96_interact
     000F52E0  GBVM$actor_96_interact$3eeba572_   actor_96_interact
     000F52EC  GBVM$actor_96_interact$6a82555e_   actor_96_interact
     000F52F7  GBVM$actor_96_interact$454297f2_   actor_96_interact
ASxxxx Linker V03.00/V05.40 + sdld,  page 125.
Hexadecimal  [32-Bits]

Area                                    Addr        Size        Decimal Bytes (Attributes)
--------------------------------        ----        ----        ------- ----- ------------
_CODE_15                            000F4000    00003FFE =       16382. bytes (REL,CON)

      Value  Global                              Global Defined In Module
      -----  --------------------------------   ------------------------
     000F5335  GBVM$actor_96_interact$5309ee8c_   actor_96_interact
     000F533A  GBVM$actor_96_interact$dd30fcd2_   actor_96_interact
     000F533A  GBVM_END$actor_96_interact$07d05   actor_96_interact
     000F533D  GBVM$actor_96_interact$fa23f7de_   actor_96_interact
     000F533D  GBVM_END$actor_96_interact$4fc03   actor_96_interact
     000F5349  GBVM$actor_96_interact$603d4a4a_   actor_96_interact
     000F5349  GBVM$actor_96_interact$84cd91ec_   actor_96_interact
     000F5354  GBVM$actor_96_interact$0a1cc9c6_   actor_96_interact
     000F5354  GBVM_END$actor_96_interact$fa23f   actor_96_interact
     000F535C  GBVM$actor_96_interact$2ea384fc_   actor_96_interact
     000F535C  GBVM$actor_96_interact$f878ee91_   actor_96_interact
     000F5380  GBVM$actor_96_interact$81f90760_   actor_96_interact
     000F53A8  GBVM_END$actor_96_interact$47b55   actor_96_interact
     000F53A9  _actor_97_interact                 actor_97_interact
     000F53AC  GBVM$actor_97_interact$941d1b3e_   actor_97_interact
     000F53BE  GBVM$actor_97_interact$d3d6c967_   actor_97_interact
     000F53C6  GBVM$actor_97_interact$0e050b8f_   actor_97_interact
     000F53CB  GBVM$actor_97_interact$2311d290_   actor_97_interact
     000F53CB  GBVM_END$actor_97_interact$941d1   actor_97_interact
     000F53D4  GBVM$actor_97_interact$3b6cf481_   actor_97_interact
     000F53D4  GBVM$actor_97_interact$f9ac19e6_   actor_97_interact
     000F53E4  GBVM$actor_97_interact$91ca8dba_   actor_97_interact
     000F53E4  GBVM$actor_97_interact$cf3a07a7_   actor_97_interact
     000F5406  GBVM$actor_97_interact$1c6458c7_   actor_97_interact
     000F5406  GBVM$actor_97_interact$62fdf5ca_   actor_97_interact
     000F5412  GBVM$actor_97_interact$84b06a71_   actor_97_interact
     000F541D  GBVM$actor_97_interact$f857105b_   actor_97_interact
     000F545B  GBVM$actor_97_interact$66460cc4_   actor_97_interact
     000F5460  GBVM$actor_97_interact$c9be1080_   actor_97_interact
     000F5460  GBVM_END$actor_97_interact$62fdf   actor_97_interact
     000F5463  GBVM$actor_97_interact$722878ef_   actor_97_interact
     000F5463  GBVM_END$actor_97_interact$f9ac1   actor_97_interact
     000F546F  GBVM$actor_97_interact$a417a241_   actor_97_interact
     000F546F  GBVM$actor_97_interact$ce5ad451_   actor_97_interact
     000F547A  GBVM$actor_97_interact$6d35b972_   actor_97_interact
     000F547A  GBVM_END$actor_97_interact$72287   actor_97_interact
     000F5482  GBVM$actor_97_interact$3398824e_   actor_97_interact
     000F5482  GBVM$actor_97_interact$7e385d5b_   actor_97_interact
     000F54CC  GBVM_END$actor_97_interact$2311d   actor_97_interact
     000F54CD  _scene_16_init                     scene_16_init
     000F54D0  GBVM$scene_16_init$b163a085_30d5   scene_16_init
     000F54D9  GBVM$scene_16_init$a02d3c07_5b6a   scene_16_init
     000F54E3  GBVM$scene_16_init$9ef79fe5_3aa4   scene_16_init
     000F54EB  GBVM$scene_16_init$bf39b33b_1710   scene_16_init
     000F54F7  GBVM$scene_16_init$9231000a_23d9   scene_16_init
     000F5503  GBVM$scene_16_init$1d66c71c_85b0   scene_16_init
     000F5521  GBVM$scene_16_init$1ff4e25a_ab84   scene_16_init
     000F552C  GBVM$scene_16_init$0d1bc44f_48fb   scene_16_init
     000F5537  GBVM$scene_16_init$4a733755_1ae1   scene_16_init
     000F5569  GBVM$scene_16_init$e8546596_3aa2   scene_16_init
     000F5574  GBVM$scene_16_init$410da439_148e   scene_16_init
ASxxxx Linker V03.00/V05.40 + sdld,  page 126.
Hexadecimal  [32-Bits]

Area                                    Addr        Size        Decimal Bytes (Attributes)
--------------------------------        ----        ----        ------- ----- ------------
_CODE_15                            000F4000    00003FFE =       16382. bytes (REL,CON)

      Value  Global                              Global Defined In Module
      -----  --------------------------------   ------------------------
     000F557E  GBVM$scene_16_init$24ecd631_7299   scene_16_init
     000F5588  GBVM$scene_16_init$fdf02626_710d   scene_16_init
     000F5588  GBVM_END$scene_16_init$9231000a_   scene_16_init
     000F5588  GBVM_END$scene_16_init$bf39b33b_   scene_16_init
     000F559D  GBVM$scene_16_init$b40968ce_f939   scene_16_init
     000F55A5  GBVM$scene_16_init$73c896cf_014e   scene_16_init
     000F55A5  GBVM_END$scene_16_init$fdf02626_   scene_16_init
     000F55BA  GBVM$scene_16_init$a2eedea5_ae92   scene_16_init
     000F55C2  GBVM$scene_16_init$151bc7ca_32ce   scene_16_init
     000F55C2  GBVM$scene_16_init$5a22a66b_9c5b   scene_16_init
     000F55C2  GBVM_END$scene_16_init$73c896cf_   scene_16_init
     000F55CA  GBVM$scene_16_init$b01ce04c_8507   scene_16_init
     000F55CA  GBVM_END$scene_16_init$151bc7ca_   scene_16_init
     000F55CA  GBVM_END$scene_16_init$5a22a66b_   scene_16_init
     000F55D6  GBVM$scene_16_init$8f6270bb_118f   scene_16_init
     000F55E0  GBVM$scene_16_init$autofade$eb9d   scene_16_init
     000F55E0  GBVM_END$scene_16_init$b01ce04c_   scene_16_init
     000F55EC  ___func_scene_20_collisions        scene_20_collisions
     000F55EC  _scene_20_collisions               scene_20_collisions
     000F5754  ___func_scene_21_collisions        scene_21_collisions
     000F5754  _scene_21_collisions               scene_21_collisions
     000F58BC  ___func_scene_22_collisions        scene_22_collisions
     000F58BC  _scene_22_collisions               scene_22_collisions
     000F5A24  _scene_22_init                     scene_22_init
     000F5A27  GBVM$scene_22_init$3b40abc1_7410   scene_22_init
     000F5A31  GBVM$scene_22_init$7496d411_c6fb   scene_22_init
     000F5A3B  GBVM$scene_22_init$1e2d8170_9643   scene_22_init
     000F5A44  GBVM$scene_22_init$75888c94_67c5   scene_22_init
     000F5A4E  GBVM$scene_22_init$fa1ba75b_e03a   scene_22_init
     000F5A56  GBVM$scene_22_init$63345216_5870   scene_22_init
     000F5A74  GBVM$scene_22_init$062a58e6_6e7a   scene_22_init
     000F5A7F  GBVM$scene_22_init$8431cebe_9379   scene_22_init
     000F5A8A  GBVM$scene_22_init$6d3ef277_3fd6   scene_22_init
     000F5ABC  GBVM$scene_22_init$7d244aa4_1333   scene_22_init
     000F5AC7  GBVM$scene_22_init$30f86974_0ddf   scene_22_init
     000F5AD1  GBVM$scene_22_init$5879dc34_db86   scene_22_init
     000F5ADB  GBVM$scene_22_init$autofade$2d7c   scene_22_init
     000F5AE6  GBVM$scene_22_init$1ac34cba_52b9   scene_22_init
     000F5AFB  GBVM$scene_22_init$e89d474f_d676   scene_22_init
     000F5B00  GBVM$scene_22_init$ec36a862_0e07   scene_22_init
     000F5B36  GBVM$scene_22_init$96d6e291_7360   scene_22_init
     000F5B60  GBVM$scene_22_init$09e979e4_c95b   scene_22_init
     000F5B60  GBVM_END$scene_22_init$1ac34cba_   scene_22_init
     000F5B66  ___func_scene_23_collisions        scene_23_collisions
     000F5B66  _scene_23_collisions               scene_23_collisions
     000F5CCE  ___func_scene_26_collisions        scene_26_collisions
     000F5CCE  _scene_26_collisions               scene_26_collisions
     000F5E36  ___func_scene_28_collisions        scene_28_collisions
     000F5E36  _scene_28_collisions               scene_28_collisions
     000F5F9E  ___func_scene_29_collisions        scene_29_collisions
     000F5F9E  _scene_29_collisions               scene_29_collisions
ASxxxx Linker V03.00/V05.40 + sdld,  page 127.
Hexadecimal  [32-Bits]

Area                                    Addr        Size        Decimal Bytes (Attributes)
--------------------------------        ----        ----        ------- ----- ------------
_CODE_15                            000F4000    00003FFE =       16382. bytes (REL,CON)

      Value  Global                              Global Defined In Module
      -----  --------------------------------   ------------------------
     000F6106  ___func_scene_3_collisions         scene_3_collisions
     000F6106  _scene_3_collisions                scene_3_collisions
     000F626E  ___func_scene_31_collisions        scene_31_collisions
     000F626E  _scene_31_collisions               scene_31_collisions
     000F63D6  ___func_scene_32_collisions        scene_32_collisions
     000F63D6  _scene_32_collisions               scene_32_collisions
     000F653E  ___func_scene_33_collisions        scene_33_collisions
     000F653E  _scene_33_collisions               scene_33_collisions
     000F66A6  ___func_scene_34_collisions        scene_34_collisions
     000F66A6  _scene_34_collisions               scene_34_collisions
     000F680E  ___func_scene_35_collisions        scene_35_collisions
     000F680E  _scene_35_collisions               scene_35_collisions
     000F6976  ___func_scene_36_collisions        scene_36_collisions
     000F6976  _scene_36_collisions               scene_36_collisions
     000F6ADE  ___func_scene_37_collisions        scene_37_collisions
     000F6ADE  _scene_37_collisions               scene_37_collisions
     000F6C46  ___func_scene_38_collisions        scene_38_collisions
     000F6C46  _scene_38_collisions               scene_38_collisions
     000F6DAE  ___func_scene_39_collisions        scene_39_collisions
     000F6DAE  _scene_39_collisions               scene_39_collisions
     000F6F16  _scene_42_init                     scene_42_init
     000F6F19  GBVM$scene_42_init$b60da4ad_0450   scene_42_init
     000F6F22  GBVM$scene_42_init$ecce4877_4980   scene_42_init
     000F6F2C  GBVM$scene_42_init$77cb674b_0684   scene_42_init
     000F6F34  GBVM$scene_42_init$931e90d8_e2c7   scene_42_init
     000F6F40  GBVM$scene_42_init$4679992e_a6b3   scene_42_init
     000F6F4C  GBVM$scene_42_init$907f3302_4fad   scene_42_init
     000F6F6A  GBVM$scene_42_init$5b63f76d_4429   scene_42_init
     000F6F75  GBVM$scene_42_init$85b11324_7938   scene_42_init
     000F6F80  GBVM$scene_42_init$4b373df3_3dad   scene_42_init
     000F6FB2  GBVM$scene_42_init$00472467_d624   scene_42_init
     000F6FBD  GBVM$scene_42_init$8da1d5f0_af9e   scene_42_init
     000F6FC7  GBVM$scene_42_init$b967418e_46e5   scene_42_init
     000F6FD1  GBVM$scene_42_init$6c31a386_208d   scene_42_init
     000F6FD1  GBVM_END$scene_42_init$4679992e_   scene_42_init
     000F6FD1  GBVM_END$scene_42_init$931e90d8_   scene_42_init
     000F6FE6  GBVM$scene_42_init$c4f98455_5e70   scene_42_init
     000F6FEE  GBVM$scene_42_init$01e3664d_034e   scene_42_init
     000F6FEE  GBVM_END$scene_42_init$6c31a386_   scene_42_init
     000F7003  GBVM$scene_42_init$77698f4f_162f   scene_42_init
     000F700B  GBVM$scene_42_init$5a041d51_935a   scene_42_init
     000F700B  GBVM$scene_42_init$99c21bbc_297b   scene_42_init
     000F700B  GBVM_END$scene_42_init$01e3664d_   scene_42_init
     000F7013  GBVM$scene_42_init$7c522f11_93cf   scene_42_init
     000F7013  GBVM_END$scene_42_init$5a041d51_   scene_42_init
     000F7013  GBVM_END$scene_42_init$99c21bbc_   scene_42_init
     000F701F  GBVM$scene_42_init$ca26be18_b323   scene_42_init
     000F7029  GBVM$scene_42_init$autofade$4f38   scene_42_init
     000F7029  GBVM_END$scene_42_init$7c522f11_   scene_42_init
     000F7035  ___func_scene_43_collisions        scene_43_collisions
     000F7035  _scene_43_collisions               scene_43_collisions
ASxxxx Linker V03.00/V05.40 + sdld,  page 128.
Hexadecimal  [32-Bits]

Area                                    Addr        Size        Decimal Bytes (Attributes)
--------------------------------        ----        ----        ------- ----- ------------
_CODE_15                            000F4000    00003FFE =       16382. bytes (REL,CON)

      Value  Global                              Global Defined In Module
      -----  --------------------------------   ------------------------
     000F719D  ___func_scene_44_collisions        scene_44_collisions
     000F719D  _scene_44_collisions               scene_44_collisions
     000F7305  ___func_scene_5_collisions         scene_5_collisions
     000F7305  _scene_5_collisions                scene_5_collisions
     000F746D  ___func_scene_8_collisions         scene_8_collisions
     000F746D  _scene_8_collisions                scene_8_collisions
     000F75D5  ___func_scene_9_collisions         scene_9_collisions
     000F75D5  _scene_9_collisions                scene_9_collisions
     000F773D  _script_3                          script_3
     000F773F  GBVM$script_3$2cc091f9_f976_4049   script_3
     000F774A  GBVM$script_3$0ac6af7d_bf90_4e57   script_3
     000F775F  GBVM$script_3$f57bd3d6_410f_420f   script_3
     000F7774  GBVM$script_3$08b89cfe_1bf5_42e9   script_3
     000F777F  GBVM$script_3$3d2f76a4_b35d_460b   script_3
     000F778F  GBVM$script_3$af855c7d_2500_4d0a   script_3
     000F778F  GBVM_END$script_3$f57bd3d6_410f_   script_3
     000F7797  GBVM$script_3$8432ed3f_30f8_4a37   script_3
     000F7797  GBVM_END$script_3$0ac6af7d_bf90_   script_3
     000F77A1  GBVM$script_3$f965b85d_1074_4a8f   script_3
     000F77AD  GBVM$script_3$5585c78a_1a1e_4b3d   script_3
     000F77B7  GBVM$script_3$f8326f27_0776_4d44   script_3
     000F77C3  GBVM$script_3$5ff162ae_04d5_4149   script_3
     000F77CD  GBVM$script_3$9b20f15d_a56b_4b40   script_3
     000F77D9  GBVM$script_3$be67defe_c319_429d   script_3
     000F77E3  GBVM$script_3$dbcb3c94_769a_4fe6   script_3
     000F77EF  GBVM$script_3$a00fc9dd_2b8b_4bb1   script_3
     000F77F9  GBVM$script_3$c0506e9f_cea7_4fc2   script_3
     000F7805  GBVM$script_3$9c5af21b_b1cf_4f25   script_3
     000F780F  GBVM$script_3$a0167c65_e228_4f16   script_3
     000F781B  GBVM$script_3$cf2d0ff9_0c01_405f   script_3
     000F7825  GBVM$script_3$dac20e2b_c5ed_45ba   script_3
     000F7831  GBVM$script_3$7c3d8635_c883_4515   script_3
     000F783B  GBVM$script_3$b3d529dc_15bd_46db   script_3
     000F7850  GBVM$script_3$d7be356c_463c_4002   script_3
     000F7858  GBVM$script_3$fe192ee8_679c_435b   script_3
     000F7863  GBVM_END$script_3$b3d529dc_15bd_   script_3
     000F7867  _script_6                          script_6
     000F7869  GBVM$script_6$c64960b4_4451_4add   script_6
     000F7874  GBVM$script_6$7756e837_f7f7_47c7   script_6
     000F787A  GBVM$script_6$c371253d_6189_4c44   script_6
     000F7884  GBVM$script_6$7600ff37_f98e_4be1   script_6
     000F7890  GBVM$script_6$6db413fe_bf81_4928   script_6
     000F789A  GBVM$script_6$2daa1a23_adf7_42a3   script_6
     000F78A6  GBVM$script_6$4d2bf5d1_050b_45fd   script_6
     000F78B0  GBVM$script_6$56c4f64c_e89d_45d0   script_6
     000F78BC  GBVM$script_6$4e044c51_b538_4e3c   script_6
     000F78C6  GBVM$script_6$23ead2e1_b4ed_41ba   script_6
     000F78D2  GBVM$script_6$1a5b7ebf_22dd_4429   script_6
     000F78DC  GBVM$script_6$585c68ae_0294_4e29   script_6
     000F78E8  GBVM$script_6$94b62279_8072_4572   script_6
     000F78F2  GBVM$script_6$cff00105_c5df_45bc   script_6
ASxxxx Linker V03.00/V05.40 + sdld,  page 129.
Hexadecimal  [32-Bits]

Area                                    Addr        Size        Decimal Bytes (Attributes)
--------------------------------        ----        ----        ------- ----- ------------
_CODE_15                            000F4000    00003FFE =       16382. bytes (REL,CON)

      Value  Global                              Global Defined In Module
      -----  --------------------------------   ------------------------
     000F78FE  GBVM$script_6$c5f60717_2019_486c   script_6
     000F7908  GBVM$script_6$70c54d7d_642e_42bc   script_6
     000F7914  GBVM$script_6$3a679842_b028_4617   script_6
     000F791E  GBVM$script_6$09f0de6d_6d7d_442a   script_6
     000F792E  GBVM$script_6$25b68f28_1abe_4aae   script_6
     000F7943  GBVM$script_6$5a98ede3_d9cf_49b3   script_6
     000F7975  GBVM_END$script_6$25b68f28_1abe_   script_6
     000F7979  ___func_sprite_actor_animated_ti   sprite_actor_animated_tilese
     000F7979  _sprite_actor_animated_tileset     sprite_actor_animated_tilese
     000F7ABB  ___func_sprite_boat_life_bar_til   sprite_boat_life_bar_tileset
     000F7ABB  _sprite_boat_life_bar_tileset      sprite_boat_life_bar_tileset
     000F7BFD  ___func_sprite_boat_life_reverse   sprite_boat_life_reverse_til
     000F7BFD  _sprite_boat_life_reverse_tilese   sprite_boat_life_reverse_til
     000F7D3F  ___func_sprite_main_character      sprite_main_character
     000F7D3F  _sprite_main_character_metasprit   sprite_main_character
     000F7D4B  _sprite_main_character_metasprit   sprite_main_character
     000F7D57  _sprite_main_character_metasprit   sprite_main_character
     000F7D63  _sprite_main_character_metasprit   sprite_main_character
     000F7D6F  _sprite_main_character_metasprit   sprite_main_character
     000F7D7B  _sprite_main_character_metasprit   sprite_main_character
     000F7D87  _sprite_main_character_metasprit   sprite_main_character
     000F7D93  _sprite_main_character_metasprit   sprite_main_character
     000F7D9F  _sprite_main_character_metasprit   sprite_main_character
     000F7DAB  _sprite_main_character_metasprit   sprite_main_character
     000F7DB7  _sprite_main_character_metasprit   sprite_main_character
     000F7DC3  _sprite_main_character_metasprit   sprite_main_character
     000F7DCF  _sprite_main_character_metasprit   sprite_main_character
     000F7DDB  _sprite_main_character_metasprit   sprite_main_character
     000F7DE7  _sprite_main_character_metasprit   sprite_main_character
     000F7DF3  _sprite_main_character_metasprit   sprite_main_character
     000F7DFF  _sprite_main_character_metasprit   sprite_main_character
     000F7E0B  _sprite_main_character_metasprit   sprite_main_character
     000F7E17  _sprite_main_character_metasprit   sprite_main_character
     000F7E23  _sprite_main_character_metasprit   sprite_main_character
     000F7E2F  _sprite_main_character_metasprit   sprite_main_character
     000F7E57  _sprite_main_character_animation   sprite_main_character
     000F7E77  _sprite_main_character_animation   sprite_main_character
     000F7E7B  _sprite_main_character             sprite_main_character
     000F7E8E  _trigger_71_interact               trigger_71_interact
     000F7E91  GBVM$trigger_71_interact$83b5528   trigger_71_interact
     000F7FBA  GBVM$trigger_71_interact$55309ee   trigger_71_interact
     000F7FED  _logo_init                         logo
     000F7FFD  _logo_update                       logo
ASxxxx Linker V03.00/V05.40 + sdld,  page 130.
Hexadecimal  [32-Bits]

Area                                    Addr        Size        Decimal Bytes (Attributes)
--------------------------------        ----        ----        ------- ----- ------------
_CODE_7                             00074000    00003FFE =       16382. bytes (REL,CON)

      Value  Global                              Global Defined In Module
      -----  --------------------------------   ------------------------
     00074000  ___func_VM_RTC                     vm_rtc
     00074000  _vm_rtc_latch                      vm_rtc
     00074008  _vm_rtc_get                        vm_rtc
     0007406F  _vm_rtc_set                        vm_rtc
     000740CD  _vm_rtc_start                      vm_rtc
     000740F0  _actor_46_interact                 actor_46_interact
     000740F3  GBVM$actor_46_interact$6bba4cd8_   actor_46_interact
     000740F3  GBVM$actor_46_interact$7f78e7dd_   actor_46_interact
     0007410B  GBVM$actor_46_interact$1648aea9_   actor_46_interact
     000741B5  GBVM$actor_46_interact$ae7a40d6_   actor_46_interact
     0007424A  GBVM$actor_46_interact$307641bf_   actor_46_interact
     0007432A  GBVM$actor_46_interact$49f3e06d_   actor_46_interact
     00074333  GBVM$actor_46_interact$1997fcc9_   actor_46_interact
     0007433C  GBVM$actor_46_interact$9e6d0f26_   actor_46_interact
     00074345  GBVM$actor_46_interact$d5c3cbbc_   actor_46_interact
     00074488  GBVM$actor_46_interact$c53270d5_   actor_46_interact
     00074529  GBVM$actor_46_interact$f4e59eb1_   actor_46_interact
     00074534  GBVM_END$actor_46_interact$9e6d0   actor_46_interact
     00074537  GBVM$actor_46_interact$fa5fcdb7_   actor_46_interact
     000745D8  GBVM$actor_46_interact$6e3da199_   actor_46_interact
     000745E3  GBVM_END$actor_46_interact$1997f   actor_46_interact
     000745E6  GBVM$actor_46_interact$819ffb7b_   actor_46_interact
     00074687  GBVM$actor_46_interact$0c2c490f_   actor_46_interact
     00074692  GBVM$actor_46_interact$4a4af30a_   actor_46_interact
     00074692  GBVM_END$actor_46_interact$49f3e   actor_46_interact
     000746A0  GBVM$actor_46_interact$a1581d60_   actor_46_interact
     000746A9  GBVM$actor_46_interact$d45ad62d_   actor_46_interact
     000746B2  GBVM$actor_46_interact$0af160d1_   actor_46_interact
     000746BB  GBVM$actor_46_interact$cbe1ee36_   actor_46_interact
     00074732  GBVM$actor_46_interact$2771d4d5_   actor_46_interact
     0007473D  GBVM_END$actor_46_interact$0af16   actor_46_interact
     00074740  GBVM$actor_46_interact$b2669497_   actor_46_interact
     0007474B  GBVM_END$actor_46_interact$d45ad   actor_46_interact
     0007474E  GBVM$actor_46_interact$6e33ac66_   actor_46_interact
     00074759  GBVM_END$actor_46_interact$a1581   actor_46_interact
     0007475F  GBVM$actor_46_interact$c4934d8b_   actor_46_interact
     0007479E  GBVM$actor_46_interact$a0d0ec6e_   actor_46_interact
     0007479E  GBVM_END$actor_46_interact$6bba4   actor_46_interact
     000747B3  GBVM$actor_46_interact$30c0748c_   actor_46_interact
     00074810  GBVM$actor_46_interact$6c8cf77b_   actor_46_interact
     00074811  GBVM$actor_46_interact$dfb41021_   actor_46_interact
     00074843  GBVM_END$actor_46_interact$a0d0e   actor_46_interact
     00074844  ___func_bg_cutscene_entrance_til   bg_cutscene_entrance_tileset
     00074844  _bg_cutscene_entrance_tileset      bg_cutscene_entrance_tileset
     00075386  ___func_bg_cutscene_ingame_tiles   bg_cutscene_ingame_tileset
     00075386  _bg_cutscene_ingame_tileset        bg_cutscene_ingame_tileset
     00075EC8  ___func_bg_cutscene_lanternas2_t   bg_cutscene_lanternas2_tiles
     00075EC8  _bg_cutscene_lanternas2_tileset    bg_cutscene_lanternas2_tiles
     000769CA  ___func_bg_inventory_chief_tiles   bg_inventory_chief_tileset
     000769CA  _bg_inventory_chief_tileset        bg_inventory_chief_tileset
ASxxxx Linker V03.00/V05.40 + sdld,  page 131.
Hexadecimal  [32-Bits]

Area                                    Addr        Size        Decimal Bytes (Attributes)
--------------------------------        ----        ----        ------- ----- ------------
_CODE_7                             00074000    00003FFE =       16382. bytes (REL,CON)

      Value  Global                              Global Defined In Module
      -----  --------------------------------   ------------------------
     000774EC  ___func_bg_skeleton_back_tileset   bg_skeleton_back_tileset
     000774EC  _bg_skeleton_back_tileset          bg_skeleton_back_tileset

ASxxxx Linker V03.00/V05.40 + sdld,  page 132.
Hexadecimal  [32-Bits]

Area                                    Addr        Size        Decimal Bytes (Attributes)
--------------------------------        ----        ----        ------- ----- ------------
_CODE_14                            000E4000    00003FFE =       16382. bytes (REL,CON)

      Value  Global                              Global Defined In Module
      -----  --------------------------------   ------------------------
     000E4000  _actor_12_interact                 actor_12_interact
     000E4003  GBVM$actor_12_interact$c812c3bc_   actor_12_interact
     000E400C  GBVM$actor_12_interact$fe1947b5_   actor_12_interact
     000E4046  GBVM$actor_12_interact$e1994743_   actor_12_interact
     000E4051  GBVM$actor_12_interact$9239054b_   actor_12_interact
     000E40C0  GBVM$actor_12_interact$09f502e8_   actor_12_interact
     000E4134  GBVM$actor_12_interact$bec92de9_   actor_12_interact
     000E4173  GBVM$actor_12_interact$0e307161_   actor_12_interact
     000E417E  GBVM$actor_12_interact$fadf6fdf_   actor_12_interact
     000E41C7  GBVM$actor_12_interact$8fe97f4e_   actor_12_interact
     000E41CC  GBVM$actor_12_interact$01d9acc6_   actor_12_interact
     000E41D7  GBVM$actor_12_interact$1a399211_   actor_12_interact
     000E41D7  GBVM_END$actor_12_interact$c812c   actor_12_interact
     000E41E1  _actor_13_interact                 actor_13_interact
     000E41E4  GBVM$actor_13_interact$020add86_   actor_13_interact
     000E41ED  GBVM$actor_13_interact$c91bac7a_   actor_13_interact
     000E422C  GBVM$actor_13_interact$d5c7deac_   actor_13_interact
     000E4237  GBVM$actor_13_interact$884d6267_   actor_13_interact
     000E427F  GBVM$actor_13_interact$e914e414_   actor_13_interact
     000E428A  GBVM$actor_13_interact$744e6574_   actor_13_interact
     000E4323  GBVM$actor_13_interact$a54c153d_   actor_13_interact
     000E438B  GBVM$actor_13_interact$f02a1f37_   actor_13_interact
     000E4390  GBVM$actor_13_interact$c1362cf0_   actor_13_interact
     000E439B  GBVM_END$actor_13_interact$020ad   actor_13_interact
     000E439C  _actor_14_interact                 actor_14_interact
     000E439F  GBVM$actor_14_interact$80209a59_   actor_14_interact
     000E43A8  GBVM$actor_14_interact$6f388553_   actor_14_interact
     000E43FA  GBVM$actor_14_interact$702793a2_   actor_14_interact
     000E4405  GBVM$actor_14_interact$40395ec6_   actor_14_interact
     000E4492  GBVM$actor_14_interact$3a658bb1_   actor_14_interact
     000E449D  GBVM$actor_14_interact$a77bcefd_   actor_14_interact
     000E44E7  GBVM$actor_14_interact$d61eefd5_   actor_14_interact
     000E4553  GBVM$actor_14_interact$01167788_   actor_14_interact
     000E4558  GBVM$actor_14_interact$2f864371_   actor_14_interact
     000E4563  GBVM_END$actor_14_interact$80209   actor_14_interact
     000E4564  _actor_15_interact                 actor_15_interact
     000E4567  GBVM$actor_15_interact$dcf4eee1_   actor_15_interact
     000E4570  GBVM$actor_15_interact$7a1f1d95_   actor_15_interact
     000E45AC  GBVM$actor_15_interact$8bfe3ae5_   actor_15_interact
     000E45B7  GBVM$actor_15_interact$3dd5d661_   actor_15_interact
     000E45FE  GBVM$actor_15_interact$9f1a2bd2_   actor_15_interact
     000E4609  GBVM$actor_15_interact$87949e78_   actor_15_interact
     000E4681  GBVM$actor_15_interact$a3a11148_   actor_15_interact
     000E46C0  GBVM$actor_15_interact$58f19b30_   actor_15_interact
     000E46C5  GBVM$actor_15_interact$5fb18be7_   actor_15_interact
     000E46D0  GBVM$actor_15_interact$65d78938_   actor_15_interact
     000E46D0  GBVM_END$actor_15_interact$dcf4e   actor_15_interact
     000E46DA  _actor_29_interact                 actor_29_interact
     000E46DD  GBVM$actor_29_interact$07fcd289_   actor_29_interact
     000E46E8  GBVM$actor_29_interact$cd923bcd_   actor_29_interact
ASxxxx Linker V03.00/V05.40 + sdld,  page 133.
Hexadecimal  [32-Bits]

Area                                    Addr        Size        Decimal Bytes (Attributes)
--------------------------------        ----        ----        ------- ----- ------------
_CODE_14                            000E4000    00003FFE =       16382. bytes (REL,CON)

      Value  Global                              Global Defined In Module
      -----  --------------------------------   ------------------------
     000E472A  GBVM$actor_29_interact$854a1456_   actor_29_interact
     000E4735  GBVM$actor_29_interact$24b28cd9_   actor_29_interact
     000E482C  GBVM$actor_29_interact$2d93f193_   actor_29_interact
     000E4837  GBVM$actor_29_interact$265f6b48_   actor_29_interact
     000E484C  GBVM$actor_29_interact$eda81681_   actor_29_interact
     000E488A  GBVM_END$actor_29_interact$265f6   actor_29_interact
     000E488B  _actor_39_update                   actor_39_update
     000E488D  GBVM$actor_39_update$645f42b7_f1   actor_39_update
     000E4899  GBVM$actor_39_update$a2e217f8_79   actor_39_update
     000E48A4  GBVM$actor_39_update$ed0d940a_8b   actor_39_update
     000E48AC  GBVM$actor_39_update$1e1fea64_3b   actor_39_update
     000E48AC  GBVM_END$actor_39_update$645f42b   actor_39_update
     000E48B8  GBVM$actor_39_update$cd8bf81a_d9   actor_39_update
     000E48C2  GBVM$actor_39_update$29d650b8_58   actor_39_update
     000E48E0  GBVM$actor_39_update$966e608b_f2   actor_39_update
     000E48FE  GBVM$actor_39_update$406a7cba_7d   actor_39_update
     000E48FE  GBVM$actor_39_update$69d34e03_29   actor_39_update
     000E4913  GBVM$actor_39_update$1dd9b42a_d6   actor_39_update
     000E4913  GBVM$actor_39_update$3dc29bbf_20   actor_39_update
     000E491B  GBVM$actor_39_update$87f8822d_b7   actor_39_update
     000E491B  GBVM_END$actor_39_update$1dd9b42   actor_39_update
     000E491B  GBVM_END$actor_39_update$3dc29bb   actor_39_update
     000E496E  GBVM$actor_39_update$a85de5ae_ad   actor_39_update
     000E4977  GBVM$actor_39_update$57c08257_b9   actor_39_update
     000E4983  GBVM$actor_39_update$6c3d8d07_61   actor_39_update
     000E4983  GBVM$actor_39_update$de92d7e1_57   actor_39_update
     000E4983  GBVM_END$actor_39_update$406a7cb   actor_39_update
     000E4983  GBVM_END$actor_39_update$69d34e0   actor_39_update
     000E4998  GBVM$actor_39_update$93158f62_5f   actor_39_update
     000E4998  GBVM$actor_39_update$9e005668_ed   actor_39_update
     000E49A0  GBVM$actor_39_update$06182e00_de   actor_39_update
     000E49A0  GBVM_END$actor_39_update$93158f6   actor_39_update
     000E49A0  GBVM_END$actor_39_update$9e00566   actor_39_update
     000E49F3  GBVM$actor_39_update$547f89cc_d5   actor_39_update
     000E49FC  GBVM$actor_39_update$14260e19_b6   actor_39_update
     000E4A08  GBVM_END$actor_39_update$1e1fea6   actor_39_update
     000E4A08  GBVM_END$actor_39_update$6c3d8d0   actor_39_update
     000E4A08  GBVM_END$actor_39_update$de92d7e   actor_39_update
     000E4A0D  _actor_47_interact                 actor_47_interact
     000E4A10  GBVM$actor_47_interact$2944ee35_   actor_47_interact
     000E4A1B  GBVM$actor_47_interact$c94ed1df_   actor_47_interact
     000E4A5D  GBVM$actor_47_interact$a655bbd2_   actor_47_interact
     000E4A68  GBVM$actor_47_interact$9b52536b_   actor_47_interact
     000E4B5F  GBVM$actor_47_interact$801d80c1_   actor_47_interact
     000E4B6A  GBVM$actor_47_interact$0d511646_   actor_47_interact
     000E4B7F  GBVM$actor_47_interact$c0fd951d_   actor_47_interact
     000E4BBD  GBVM_END$actor_47_interact$0d511   actor_47_interact
     000E4BBE  _actor_49_interact                 actor_49_interact
     000E4BC1  GBVM$actor_49_interact$f8e7f9e6_   actor_49_interact
     000E4BCC  GBVM$actor_49_interact$bc4299c3_   actor_49_interact
     000E4BF6  GBVM$actor_49_interact$bd569d1b_   actor_49_interact
ASxxxx Linker V03.00/V05.40 + sdld,  page 134.
Hexadecimal  [32-Bits]

Area                                    Addr        Size        Decimal Bytes (Attributes)
--------------------------------        ----        ----        ------- ----- ------------
_CODE_14                            000E4000    00003FFE =       16382. bytes (REL,CON)

      Value  Global                              Global Defined In Module
      -----  --------------------------------   ------------------------
     000E4C01  GBVM$actor_49_interact$bf0640f8_   actor_49_interact
     000E4D31  GBVM$actor_49_interact$1b8a2cf0_   actor_49_interact
     000E4D3C  GBVM$actor_49_interact$a45cbc5c_   actor_49_interact
     000E4D51  GBVM$actor_49_interact$8e1b93ef_   actor_49_interact
     000E4D8F  GBVM_END$actor_49_interact$a45cb   actor_49_interact
     000E4D90  _actor_59_interact                 actor_59_interact
     000E4D93  GBVM$actor_59_interact$a8173920_   actor_59_interact
     000E4D9E  GBVM$actor_59_interact$94fe220e_   actor_59_interact
     000E4DC8  GBVM$actor_59_interact$c1877d64_   actor_59_interact
     000E4DD3  GBVM$actor_59_interact$38086379_   actor_59_interact
     000E4F03  GBVM$actor_59_interact$47eb4ae7_   actor_59_interact
     000E4F0E  GBVM$actor_59_interact$4a1676cc_   actor_59_interact
     000E4F23  GBVM$actor_59_interact$840b7efa_   actor_59_interact
     000E4F61  GBVM_END$actor_59_interact$4a167   actor_59_interact
     000E4F62  ___func_bg_barco_a_sair_do_porto   bg_barco_a_sair_do_porto_til
     000E4F62  _bg_barco_a_sair_do_porto_tilema   bg_barco_a_sair_do_porto_til
     000E50CA  ___func_bg_becodeath_tilemap       bg_becodeath_tilemap
     000E50CA  _bg_becodeath_tilemap              bg_becodeath_tilemap
     000E5232  ___func_bg_boatdeath_tilemap       bg_boatdeath_tilemap
     000E5232  _bg_boatdeath_tilemap              bg_boatdeath_tilemap
     000E539A  ___func_bg_chief_entrance_tilema   bg_chief_entrance_tilemap
     000E539A  _bg_chief_entrance_tilemap         bg_chief_entrance_tilemap
     000E5502  ___func_bg_crows_nest_tilemap      bg_crows_nest_tilemap
     000E5502  _bg_crows_nest_tilemap             bg_crows_nest_tilemap
     000E566A  ___func_bg_cutscene_badending_ti   bg_cutscene_badending_tilema
     000E566A  _bg_cutscene_badending_tilemap     bg_cutscene_badending_tilema
     000E57D2  ___func_bg_cutscene_entrance_til   bg_cutscene_entrance_tilemap
     000E57D2  _bg_cutscene_entrance_tilemap      bg_cutscene_entrance_tilemap
     000E593A  ___func_bg_cutscene_fan_final_ti   bg_cutscene_fan_final_tilema
     000E593A  _bg_cutscene_fan_final_tilemap     bg_cutscene_fan_final_tilema
     000E5AA2  ___func_bg_cutscene_ingame_tilem   bg_cutscene_ingame_tilemap
     000E5AA2  _bg_cutscene_ingame_tilemap        bg_cutscene_ingame_tilemap
     000E5C0A  ___func_bg_cutscene_lanternas2_t   bg_cutscene_lanternas2_tilem
     000E5C0A  _bg_cutscene_lanternas2_tilemap    bg_cutscene_lanternas2_tilem
     000E5D72  ___func_bg_diningroom_tilemap      bg_diningroom_tilemap
     000E5D72  _bg_diningroom_tilemap             bg_diningroom_tilemap
     000E5EDA  ___func_bg_inventory_chief_tilem   bg_inventory_chief_tilemap
     000E5EDA  _bg_inventory_chief_tilemap        bg_inventory_chief_tilemap
     000E6042  ___func_bg_inventory_samurai_til   bg_inventory_samurai_tilemap
     000E6042  _bg_inventory_samurai_tilemap      bg_inventory_samurai_tilemap
     000E61AA  ___func_bg_logo_tilemap            bg_logo_tilemap
     000E61AA  _bg_logo_tilemap                   bg_logo_tilemap
     000E6312  ___func_bg_main_menu_tilemap       bg_main_menu_tilemap
     000E6312  _bg_main_menu_tilemap              bg_main_menu_tilemap
     000E647A  ___func_bg_pausa_fixed_tilemap     bg_pausa_fixed_tilemap
     000E647A  _bg_pausa_fixed_tilemap            bg_pausa_fixed_tilemap
     000E65E2  ___func_bg_piratedeath_tilemap     bg_piratedeath_tilemap
     000E65E2  _bg_piratedeath_tilemap            bg_piratedeath_tilemap
     000E674A  ___func_bg_placeholder_tilemap     bg_placeholder_tilemap
     000E674A  _bg_placeholder_tilemap            bg_placeholder_tilemap
     000E68B2  ___func_bg_portuguese_boat_cutsc   bg_portuguese_boat_cutscene_
ASxxxx Linker V03.00/V05.40 + sdld,  page 135.
Hexadecimal  [32-Bits]

Area                                    Addr        Size        Decimal Bytes (Attributes)
--------------------------------        ----        ----        ------- ----- ------------
_CODE_14                            000E4000    00003FFE =       16382. bytes (REL,CON)

      Value  Global                              Global Defined In Module
      -----  --------------------------------   ------------------------
     000E68B2  _bg_portuguese_boat_cutscene_til   bg_portuguese_boat_cutscene_
     000E6A1A  ___func_bg_title_screen_tilemap    bg_title_screen_tilemap
     000E6A1A  _bg_title_screen_tilemap           bg_title_screen_tilemap
     000E6B82  ___func_scene_0_collisions         scene_0_collisions
     000E6B82  _scene_0_collisions                scene_0_collisions
     000E6CEA  ___func_scene_1_collisions         scene_1_collisions
     000E6CEA  _scene_1_collisions                scene_1_collisions
     000E6E52  ___func_scene_10_collisions        scene_10_collisions
     000E6E52  _scene_10_collisions               scene_10_collisions
     000E6FBA  ___func_scene_11_collisions        scene_11_collisions
     000E6FBA  _scene_11_collisions               scene_11_collisions
     000E7122  ___func_scene_12_actors            scene_12_actors
     000E7122  _scene_12_actors                   scene_12_actors
     000E71F2  ___func_scene_13_collisions        scene_13_collisions
     000E71F2  _scene_13_collisions               scene_13_collisions
     000E735A  ___func_scene_15_collisions        scene_15_collisions
     000E735A  _scene_15_collisions               scene_15_collisions
     000E74C2  ___func_scene_2_collisions         scene_2_collisions
     000E74C2  _scene_2_collisions                scene_2_collisions
     000E762A  _scene_33_init                     scene_33_init
     000E762D  GBVM$scene_33_init$9b189c42_69e6   scene_33_init
     000E7631  GBVM$scene_33_init$9765993b_43af   scene_33_init
     000E763B  GBVM$scene_33_init$autofade$bf2b   scene_33_init
     000E7646  GBVM$scene_33_init$2618a8fd_9bb6   scene_33_init
     000E7652  GBVM$scene_33_init$6a137c05_b836   scene_33_init
     000E7764  GBVM$scene_33_init$5f7351a9_eafc   scene_33_init
     000E7797  ___func_sprite_espanhol_og_tiles   sprite_espanhol_og_tileset
     000E7797  _sprite_espanhol_og_tileset        sprite_espanhol_og_tileset
     000E7919  ___func_sprite_pirata1_tileset     sprite_pirata1_tileset
     000E7919  _sprite_pirata1_tileset            sprite_pirata1_tileset
     000E7ADB  ___func_sprite_slash_placeholder   sprite_slash_placeholder_til
     000E7ADB  _sprite_slash_placeholder_tilese   sprite_slash_placeholder_til
     000E7C5D  _trigger_47_interact               trigger_47_interact
     000E7C60  GBVM$trigger_47_interact$e2ea30f   trigger_47_interact
     000E7C6C  GBVM$trigger_47_interact$8193c29   trigger_47_interact
     000E7C78  GBVM$trigger_47_interact$fc4baa5   trigger_47_interact
     000E7C83  GBVM$trigger_47_interact$c485b6c   trigger_47_interact
     000E7CCB  GBVM$trigger_47_interact$7c10471   trigger_47_interact
     000E7DC9  GBVM$trigger_47_interact$32aaf6e   trigger_47_interact
     000E7E37  GBVM$trigger_47_interact$70ff693   trigger_47_interact
     000E7E3C  GBVM_END$trigger_47_interact$819   trigger_47_interact
     000E7E3C  GBVM_END$trigger_47_interact$e2e   trigger_47_interact
     000E7E3D  _trigger_48_interact               trigger_48_interact
     000E7E40  GBVM$trigger_48_interact$665eec3   trigger_48_interact
     000E7E4C  GBVM$trigger_48_interact$1d0101f   trigger_48_interact
     000E7E58  GBVM$trigger_48_interact$364a80b   trigger_48_interact
     000E7E63  GBVM$trigger_48_interact$20e6568   trigger_48_interact
     000E7E99  GBVM$trigger_48_interact$fc78608   trigger_48_interact
     000E7F9C  GBVM$trigger_48_interact$8a528da   trigger_48_interact
     000E7FF8  GBVM$trigger_48_interact$78ad785   trigger_48_interact
     000E7FFD  GBVM_END$trigger_48_interact$1d0   trigger_48_interact
ASxxxx Linker V03.00/V05.40 + sdld,  page 136.
Hexadecimal  [32-Bits]

Area                                    Addr        Size        Decimal Bytes (Attributes)
--------------------------------        ----        ----        ------- ----- ------------
_CODE_14                            000E4000    00003FFE =       16382. bytes (REL,CON)

      Value  Global                              Global Defined In Module
      -----  --------------------------------   ------------------------
     000E7FFD  GBVM_END$trigger_48_interact$665   trigger_48_interact
ASxxxx Linker V03.00/V05.40 + sdld,  page 137.
Hexadecimal  [32-Bits]

Area                                    Addr        Size        Decimal Bytes (Attributes)
--------------------------------        ----        ----        ------- ----- ------------
_CODE_9                             00094000    00004000 =       16384. bytes (REL,CON)

      Value  Global                              Global Defined In Module
      -----  --------------------------------   ------------------------
     00094000  _actor_58_interact                 actor_58_interact
     00094003  GBVM$actor_58_interact$d658ae84_   actor_58_interact
     000943FA  GBVM$actor_58_interact$5e1cea7d_   actor_58_interact
     0009442D  ___func_bg_credits_tileset         bg_credits_tileset
     0009442D  _bg_credits_tileset                bg_credits_tileset
     00094E9F  ___func_bg_inventory_samurai_til   bg_inventory_samurai_tileset
     00094E9F  _bg_inventory_samurai_tileset      bg_inventory_samurai_tileset
     000958F1  ___func_bg_portuguese_boat_befor   bg_portuguese_boat_before_ti
     000958F1  _bg_portuguese_boat_before_tiles   bg_portuguese_boat_before_ti
     00096243  ___func_bg_portugueseboat_tilese   bg_portugueseboat_tileset
     00096243  _bg_portugueseboat_tileset         bg_portugueseboat_tileset
     00096C15  ___func_bg_vila_2_tileset          bg_vila_2_tileset
     00096C15  _bg_vila_2_tileset                 bg_vila_2_tileset
     00097FDE  _song_tenso_2_Data                 song_tenso_2_Data
     00097FF3  _scene_0_init                      scene_0_init
     00097FF4  GBVM$scene_0_init$autofade$c7116   scene_0_init

ASxxxx Linker V03.00/V05.40 + sdld,  page 138.
Hexadecimal  [32-Bits]

Area                                    Addr        Size        Decimal Bytes (Attributes)
--------------------------------        ----        ----        ------- ----- ------------
_CODE_4                             00044000    00003FFF =       16383. bytes (REL,CON)

      Value  Global                              Global Defined In Module
      -----  --------------------------------   ------------------------
     00044000  ___func_bg_credits_tilemap         bg_credits_tilemap
     00044000  _bg_credits_tilemap                bg_credits_tilemap
     00044550  ___func_bg_title_screen_tileset    bg_title_screen_tileset
     00044550  _bg_title_screen_tileset           bg_title_screen_tileset
     00045BD2  ___func_font_gbs_mono              font_gbs_mono
     00046982  _font_gbs_mono                     font_gbs_mono
     0004698A  ___func_scene_10_sprites           scene_10_sprites
     0004698A  _scene_10_sprites                  scene_10_sprites
     0004698D  _platform_init                     platform
     00046B07  _platform_update                   platform

ASxxxx Linker V03.00/V05.40 + sdld,  page 139.
Hexadecimal  [32-Bits]

Area                                    Addr        Size        Decimal Bytes (Attributes)
--------------------------------        ----        ----        ------- ----- ------------
_CODE_2                             00024000    00003FFE =       16382. bytes (REL,CON)

      Value  Global                              Global Defined In Module
      -----  --------------------------------   ------------------------
     00024000  ___func_bg_cutscene_badending_ti   bg_cutscene_badending_tilese
     00024000  _bg_cutscene_badending_tileset     bg_cutscene_badending_tilese
     00025682  ___func_bg_cutscene_fan_final_ti   bg_cutscene_fan_final_tilese
     00025682  _bg_cutscene_fan_final_tileset     bg_cutscene_fan_final_tilese
     00027F2B  _song_hewillgetyou_Data            song_hewillgetyou_Data
     00027F40  ___func_palette_1                  palette_1
     00027F40  _palette_1                         palette_1
     00027F43  _scene_39_init                     scene_39_init
     00027F46  GBVM$scene_39_init$7c88adff_90e5   scene_39_init
     00027F4F  GBVM$scene_39_init$faebedf0_f421   scene_39_init
     00027F59  GBVM$scene_39_init$96b64a36_4bb7   scene_39_init
     00027F61  GBVM$scene_39_init$dcbc5c45_e2fb   scene_39_init
     00027F6D  GBVM$scene_39_init$4e16dc46_e09d   scene_39_init
     00027F8B  GBVM$scene_39_init$41288dfd_064a   scene_39_init
     00027F96  GBVM$scene_39_init$c53a7ffe_6ebe   scene_39_init
     00027FA1  GBVM$scene_39_init$0d008ebc_47de   scene_39_init
     00027FD3  GBVM$scene_39_init$c61006fb_fb01   scene_39_init
     00027FDE  GBVM$scene_39_init$b41d4dca_5f0d   scene_39_init
     00027FE8  GBVM$scene_39_init$8025b1d4_3050   scene_39_init
     00027FF2  GBVM$scene_39_init$autofade$e217   scene_39_init
     00027FF2  GBVM_END$scene_39_init$dcbc5c45_   scene_39_init
ASxxxx Linker V03.00/V05.40 + sdld,  page 140.
Hexadecimal  [32-Bits]

Area                                    Addr        Size        Decimal Bytes (Attributes)
--------------------------------        ----        ----        ------- ----- ------------
_CODE_6                             00064000    00003FFF =       16383. bytes (REL,CON)

      Value  Global                              Global Defined In Module
      -----  --------------------------------   ------------------------
     00064000  ___func_bg_diningroom_tileset      bg_diningroom_tileset
     00064000  _bg_diningroom_tileset             bg_diningroom_tileset
     00064492  ___func_bg_pausa_fixed_tileset     bg_pausa_fixed_tileset
     00064492  _bg_pausa_fixed_tileset            bg_pausa_fixed_tileset
     00065014  ___func_bg_skeleton_back_tilemap   bg_skeleton_back_tilemap
     00065014  _bg_skeleton_back_tilemap          bg_skeleton_back_tilemap
     0006678D  _song_main_menu_Data               song_main_menu_Data
     000667A2  ___func_scene_18_sprites           scene_18_sprites
     000667A2  _scene_18_sprites                  scene_18_sprites
     000667AB  ___func_scene_27_collisions        scene_27_collisions
     000667AB  _scene_27_collisions               scene_27_collisions
     000673D5  ___func_scene_7_collisions         scene_7_collisions
     000673D5  _scene_7_collisions                scene_7_collisions

ASxxxx Linker V03.00/V05.40 + sdld,  page 141.
Hexadecimal  [32-Bits]

Area                                    Addr        Size        Decimal Bytes (Attributes)
--------------------------------        ----        ----        ------- ----- ------------
_CODE_8                             00084000    00003FFF =       16383. bytes (REL,CON)

      Value  Global                              Global Defined In Module
      -----  --------------------------------   ------------------------
     00084A77  _song_di_logo_ou_neutralidad_Dat   song_di_logo_ou_neutralidad_
     00085503  _song_explorar_vila_Data           song_explorar_vila_Data
     00085F8F  _song_final_Data                   song_final_Data
     00086A1B  _song_m_sica_tensa_Data            song_m_sica_tensa_Data
     000874A7  _song_navega_o_Data                song_navega_o_Data
     00087F33  _song_song_template_Data           song_song_template_Data
     00087F48  ___func_scene_13_sprites           scene_13_sprites
     00087F48  _scene_13_sprites                  scene_13_sprites
     00087F4B  _scene_32_init                     scene_32_init
     00087F4E  GBVM$scene_32_init$2457c483_cd09   scene_32_init
     00087F57  GBVM$scene_32_init$aef8ece1_9e99   scene_32_init
     00087F61  GBVM$scene_32_init$2e06edf5_e64b   scene_32_init
     00087F69  GBVM$scene_32_init$f0fab391_183f   scene_32_init
     00087F87  GBVM$scene_32_init$d566f656_f18e   scene_32_init
     00087F92  GBVM$scene_32_init$dcc34204_db17   scene_32_init
     00087F9D  GBVM$scene_32_init$61a1c50e_df51   scene_32_init
     00087FCF  GBVM$scene_32_init$0531d2f0_ae03   scene_32_init
     00087FDA  GBVM$scene_32_init$cf978232_59f1   scene_32_init
     00087FE4  GBVM$scene_32_init$2082ea36_7599   scene_32_init
     00087FEE  GBVM$scene_32_init$a2e7c688_4d59   scene_32_init
     00087FF3  GBVM$scene_32_init$autofade$6448   scene_32_init
ASxxxx Linker V03.00/V05.40 + sdld,  page 142.
Hexadecimal  [32-Bits]

Area                                    Addr        Size        Decimal Bytes (Attributes)
--------------------------------        ----        ----        ------- ----- ------------
_HEADER_LCD0                        00000000    00000003 =           3. bytes (ABS,CON)

      Value  Global                              Global Defined In Module
      -----  --------------------------------   ------------------------
ASxxxx Linker V03.00/V05.40 + sdld,  page 143.

Files Linked                              [ module(s) ]

C:\Users\BAYEK\AppData\Local\Temp/_gbstools/gbdk/lib/gb/crt0.o
                                          [ Runtime ]
C:/Users/BAYEK/AppData/Local/Temp/_gbsbuild/obj/absolute.rel
                                          [ absolute ]
C:/Users/BAYEK/AppData/Local/Temp/_gbsbuild/obj/actor.rel
                                          [ actor ]
C:/Users/BAYEK/AppData/Local/Temp/_gbsbuild/obj/bankdata.rel
                                          [ bankdata ]
C:/Users/BAYEK/AppData/Local/Temp/_gbsbuild/obj/bootstrap.rel
                                          [  ]
C:/Users/BAYEK/AppData/Local/Temp/_gbsbuild/obj/camera.rel
                                          [ camera ]
C:/Users/BAYEK/AppData/Local/Temp/_gbsbuild/obj/core.rel
                                          [ core ]
C:/Users/BAYEK/AppData/Local/Temp/_gbsbuild/obj/crash_handler.rel
                                          [  ]
C:/Users/BAYEK/AppData/Local/Temp/_gbsbuild/obj/data_manager.rel
                                          [ data_manager ]
C:/Users/BAYEK/AppData/Local/Temp/_gbsbuild/obj/events.rel
                                          [ events ]
C:/Users/BAYEK/AppData/Local/Temp/_gbsbuild/obj/fade_manager.rel
                                          [ fade_manager ]
C:/Users/BAYEK/AppData/Local/Temp/_gbsbuild/obj/flasher_s.rel
                                          [  ]
C:/Users/BAYEK/AppData/Local/Temp/_gbsbuild/obj/flasher.rel
                                          [ flasher ]
C:/Users/BAYEK/AppData/Local/Temp/_gbsbuild/obj/game_time.rel
                                          [ game_time ]
C:/Users/BAYEK/AppData/Local/Temp/_gbsbuild/obj/gbprinter.rel
                                          [ gbprinter ]
C:/Users/BAYEK/AppData/Local/Temp/_gbsbuild/obj/input.rel
                                          [ input ]
C:/Users/BAYEK/AppData/Local/Temp/_gbsbuild/obj/interrupt_sio.rel
                                          [  ]
C:/Users/BAYEK/AppData/Local/Temp/_gbsbuild/obj/interrupt_timer.rel
                                          [  ]
C:/Users/BAYEK/AppData/Local/Temp/_gbsbuild/obj/interrupts.rel
                                          [ interrupts ]
C:/Users/BAYEK/AppData/Local/Temp/_gbsbuild/obj/load_save.rel
                                          [ load_save ]
C:/Users/BAYEK/AppData/Local/Temp/_gbsbuild/obj/math_atan2.rel
                                          [ math_atan2 ]
C:/Users/BAYEK/AppData/Local/Temp/_gbsbuild/obj/math.rel
                                          [ math ]
C:/Users/BAYEK/AppData/Local/Temp/_gbsbuild/obj/music_manager.rel
                                          [ music_manager ]
C:/Users/BAYEK/AppData/Local/Temp/_gbsbuild/obj/palette.rel
                                          [ palette ]
C:/Users/BAYEK/AppData/Local/Temp/_gbsbuild/obj/parallax.rel
                                          [ parallax ]
C:/Users/BAYEK/AppData/Local/Temp/_gbsbuild/obj/projectiles.rel
                                          [ projectiles ]
C:/Users/BAYEK/AppData/Local/Temp/_gbsbuild/obj/scroll_a.rel
                                          [  ]
C:/Users/BAYEK/AppData/Local/Temp/_gbsbuild/obj/scroll.rel
                                          [ scroll ]
C:/Users/BAYEK/AppData/Local/Temp/_gbsbuild/obj/set_tile_submap.rel
                                          [  ]
C:/Users/BAYEK/AppData/Local/Temp/_gbsbuild/obj/sfx_player.rel
                                          [ sfx_player ]
C:/Users/BAYEK/AppData/Local/Temp/_gbsbuild/obj/sgb_border.rel
                                          [ sgb_border ]
C:/Users/BAYEK/AppData/Local/Temp/_gbsbuild/obj/sio.rel
                                          [ sio ]
C:/Users/BAYEK/AppData/Local/Temp/_gbsbuild/obj/states_caller.rel
                                          [  ]
C:/Users/BAYEK/AppData/Local/Temp/_gbsbuild/obj/system.rel
                                          [ system ]
C:/Users/BAYEK/AppData/Local/Temp/_gbsbuild/obj/trigger.rel
                                          [ trigger ]
C:/Users/BAYEK/AppData/Local/Temp/_gbsbuild/obj/ui_a.rel
                                          [  ]
C:/Users/BAYEK/AppData/Local/Temp/_gbsbuild/obj/ui.rel
                                          [ ui ]
C:/Users/BAYEK/AppData/Local/Temp/_gbsbuild/obj/vm_actor.rel
                                          [ vm_actor ]
C:/Users/BAYEK/AppData/Local/Temp/_gbsbuild/obj/vm_camera.rel
                                          [ vm_camera ]
C:/Users/BAYEK/AppData/Local/Temp/_gbsbuild/obj/vm_gameboy.rel
                                          [ vm_gameboy ]
C:/Users/BAYEK/AppData/Local/Temp/_gbsbuild/obj/vm_gbprinter.rel
                                          [ vm_gbprinter ]
C:/Users/BAYEK/AppData/Local/Temp/_gbsbuild/obj/vm_instructions.rel
                                          [ vm_instructions ]
C:/Users/BAYEK/AppData/Local/Temp/_gbsbuild/obj/vm_load_save.rel
                                          [ vm_load_save ]
C:/Users/BAYEK/AppData/Local/Temp/_gbsbuild/obj/vm_math.rel
                                          [ vm_math ]
C:/Users/BAYEK/AppData/Local/Temp/_gbsbuild/obj/vm_music.rel
                                          [ vm_music ]
C:/Users/BAYEK/AppData/Local/Temp/_gbsbuild/obj/vm_palette.rel
                                          [ vm_palette ]
C:/Users/BAYEK/AppData/Local/Temp/_gbsbuild/obj/vm_projectiles.rel
                                          [ vm_projectiles ]
C:/Users/BAYEK/AppData/Local/Temp/_gbsbuild/obj/vm_rtc.rel
                                          [ vm_rtc ]
C:/Users/BAYEK/AppData/Local/Temp/_gbsbuild/obj/vm_scene.rel
                                          [ vm_scene ]
C:/Users/BAYEK/AppData/Local/Temp/_gbsbuild/obj/vm_sgb.rel
                                          [ vm_sgb ]
C:/Users/BAYEK/AppData/Local/Temp/_gbsbuild/obj/vm_sio.rel
                                          [ vm_sio ]
C:/Users/BAYEK/AppData/Local/Temp/_gbsbuild/obj/vm_ui_a.rel
                                          [ vm_ui_a ]
C:/Users/BAYEK/AppData/Local/Temp/_gbsbuild/obj/vm_ui.rel
                                          [ vm_ui ]
C:/Users/BAYEK/AppData/Local/Temp/_gbsbuild/obj/vm.rel
                                          [ vm ]
C:/Users/BAYEK/AppData/Local/Temp/_gbsbuild/obj/actor_1_interact.rel
                                          [ actor_1_interact ]
C:/Users/BAYEK/AppData/Local/Temp/_gbsbuild/obj/actor_1_update.rel
                                          [ actor_1_update ]
C:/Users/BAYEK/AppData/Local/Temp/_gbsbuild/obj/actor_10_interact.rel
                                          [ actor_10_interact ]
C:/Users/BAYEK/AppData/Local/Temp/_gbsbuild/obj/actor_10_update.rel
                                          [ actor_10_update ]
C:/Users/BAYEK/AppData/Local/Temp/_gbsbuild/obj/actor_100_interact.rel
                                          [ actor_100_interact ]
C:/Users/BAYEK/AppData/Local/Temp/_gbsbuild/obj/actor_101_interact.rel
                                          [ actor_101_interact ]
C:/Users/BAYEK/AppData/Local/Temp/_gbsbuild/obj/actor_102_interact.rel
                                          [ actor_102_interact ]
C:/Users/BAYEK/AppData/Local/Temp/_gbsbuild/obj/actor_103_interact.rel
                                          [ actor_103_interact ]
C:/Users/BAYEK/AppData/Local/Temp/_gbsbuild/obj/actor_104_interact.rel
                                          [ actor_104_interact ]
C:/Users/BAYEK/AppData/Local/Temp/_gbsbuild/obj/actor_105_interact.rel
                                          [ actor_105_interact ]
C:/Users/BAYEK/AppData/Local/Temp/_gbsbuild/obj/actor_106_update.rel
                                          [ actor_106_update ]
C:/Users/BAYEK/AppData/Local/Temp/_gbsbuild/obj/actor_12_interact.rel
                                          [ actor_12_interact ]
C:/Users/BAYEK/AppData/Local/Temp/_gbsbuild/obj/actor_13_interact.rel
                                          [ actor_13_interact ]
C:/Users/BAYEK/AppData/Local/Temp/_gbsbuild/obj/actor_13_update.rel
                                          [ actor_13_update ]
C:/Users/BAYEK/AppData/Local/Temp/_gbsbuild/obj/actor_14_interact.rel
                                          [ actor_14_interact ]
C:/Users/BAYEK/AppData/Local/Temp/_gbsbuild/obj/actor_14_update.rel
                                          [ actor_14_update ]
C:/Users/BAYEK/AppData/Local/Temp/_gbsbuild/obj/actor_15_interact.rel
                                          [ actor_15_interact ]
C:/Users/BAYEK/AppData/Local/Temp/_gbsbuild/obj/actor_15_update.rel
                                          [ actor_15_update ]
C:/Users/BAYEK/AppData/Local/Temp/_gbsbuild/obj/actor_18_update.rel
                                          [ actor_18_update ]
C:/Users/BAYEK/AppData/Local/Temp/_gbsbuild/obj/actor_19_interact.rel
                                          [ actor_19_interact ]
C:/Users/BAYEK/AppData/Local/Temp/_gbsbuild/obj/actor_19_update.rel
                                          [ actor_19_update ]
C:/Users/BAYEK/AppData/Local/Temp/_gbsbuild/obj/actor_2_interact.rel
                                          [ actor_2_interact ]
C:/Users/BAYEK/AppData/Local/Temp/_gbsbuild/obj/actor_2_update.rel
                                          [ actor_2_update ]
C:/Users/BAYEK/AppData/Local/Temp/_gbsbuild/obj/actor_20_interact.rel
                                          [ actor_20_interact ]
C:/Users/BAYEK/AppData/Local/Temp/_gbsbuild/obj/actor_20_update.rel
                                          [ actor_20_update ]
C:/Users/BAYEK/AppData/Local/Temp/_gbsbuild/obj/actor_21_update.rel
                                          [ actor_21_update ]
C:/Users/BAYEK/AppData/Local/Temp/_gbsbuild/obj/actor_22_interact.rel
                                          [ actor_22_interact ]
C:/Users/BAYEK/AppData/Local/Temp/_gbsbuild/obj/actor_22_update.rel
                                          [ actor_22_update ]
C:/Users/BAYEK/AppData/Local/Temp/_gbsbuild/obj/actor_23_update.rel
                                          [ actor_23_update ]
C:/Users/BAYEK/AppData/Local/Temp/_gbsbuild/obj/actor_24_update.rel
                                          [ actor_24_update ]
C:/Users/BAYEK/AppData/Local/Temp/_gbsbuild/obj/actor_25_update.rel
                                          [ actor_25_update ]
C:/Users/BAYEK/AppData/Local/Temp/_gbsbuild/obj/actor_26_interact.rel
                                          [ actor_26_interact ]
C:/Users/BAYEK/AppData/Local/Temp/_gbsbuild/obj/actor_29_interact.rel
                                          [ actor_29_interact ]
C:/Users/BAYEK/AppData/Local/Temp/_gbsbuild/obj/actor_3_interact.rel
                                          [ actor_3_interact ]
C:/Users/BAYEK/AppData/Local/Temp/_gbsbuild/obj/actor_3_update.rel
                                          [ actor_3_update ]
C:/Users/BAYEK/AppData/Local/Temp/_gbsbuild/obj/actor_30_interact.rel
                                          [ actor_30_interact ]
C:/Users/BAYEK/AppData/Local/Temp/_gbsbuild/obj/actor_30_update.rel
                                          [ actor_30_update ]
C:/Users/BAYEK/AppData/Local/Temp/_gbsbuild/obj/actor_31_interact.rel
                                          [ actor_31_interact ]
C:/Users/BAYEK/AppData/Local/Temp/_gbsbuild/obj/actor_32_interact.rel
                                          [ actor_32_interact ]
C:/Users/BAYEK/AppData/Local/Temp/_gbsbuild/obj/actor_33_update.rel
                                          [ actor_33_update ]
C:/Users/BAYEK/AppData/Local/Temp/_gbsbuild/obj/actor_34_interact.rel
                                          [ actor_34_interact ]
C:/Users/BAYEK/AppData/Local/Temp/_gbsbuild/obj/actor_35_update.rel
                                          [ actor_35_update ]
C:/Users/BAYEK/AppData/Local/Temp/_gbsbuild/obj/actor_37_interact.rel
                                          [ actor_37_interact ]
C:/Users/BAYEK/AppData/Local/Temp/_gbsbuild/obj/actor_37_update.rel
                                          [ actor_37_update ]
C:/Users/BAYEK/AppData/Local/Temp/_gbsbuild/obj/actor_38_update.rel
                                          [ actor_38_update ]
C:/Users/BAYEK/AppData/Local/Temp/_gbsbuild/obj/actor_39_update.rel
                                          [ actor_39_update ]
C:/Users/BAYEK/AppData/Local/Temp/_gbsbuild/obj/actor_4_update.rel
                                          [ actor_4_update ]
C:/Users/BAYEK/AppData/Local/Temp/_gbsbuild/obj/actor_40_interact.rel
                                          [ actor_40_interact ]
C:/Users/BAYEK/AppData/Local/Temp/_gbsbuild/obj/actor_41_interact.rel
                                          [ actor_41_interact ]
C:/Users/BAYEK/AppData/Local/Temp/_gbsbuild/obj/actor_42_interact.rel
                                          [ actor_42_interact ]
C:/Users/BAYEK/AppData/Local/Temp/_gbsbuild/obj/actor_43_update.rel
                                          [ actor_43_update ]
C:/Users/BAYEK/AppData/Local/Temp/_gbsbuild/obj/actor_45_update.rel
                                          [ actor_45_update ]
C:/Users/BAYEK/AppData/Local/Temp/_gbsbuild/obj/actor_46_interact.rel
                                          [ actor_46_interact ]
C:/Users/BAYEK/AppData/Local/Temp/_gbsbuild/obj/actor_47_interact.rel
                                          [ actor_47_interact ]
C:/Users/BAYEK/AppData/Local/Temp/_gbsbuild/obj/actor_48_interact.rel
                                          [ actor_48_interact ]
C:/Users/BAYEK/AppData/Local/Temp/_gbsbuild/obj/actor_49_interact.rel
                                          [ actor_49_interact ]
C:/Users/BAYEK/AppData/Local/Temp/_gbsbuild/obj/actor_5_interact.rel
                                          [ actor_5_interact ]
C:/Users/BAYEK/AppData/Local/Temp/_gbsbuild/obj/actor_5_update.rel
                                          [ actor_5_update ]
C:/Users/BAYEK/AppData/Local/Temp/_gbsbuild/obj/actor_50_interact.rel
                                          [ actor_50_interact ]
C:/Users/BAYEK/AppData/Local/Temp/_gbsbuild/obj/actor_51_interact.rel
                                          [ actor_51_interact ]
C:/Users/BAYEK/AppData/Local/Temp/_gbsbuild/obj/actor_52_interact.rel
                                          [ actor_52_interact ]
C:/Users/BAYEK/AppData/Local/Temp/_gbsbuild/obj/actor_53_update.rel
                                          [ actor_53_update ]
C:/Users/BAYEK/AppData/Local/Temp/_gbsbuild/obj/actor_54_update.rel
                                          [ actor_54_update ]
C:/Users/BAYEK/AppData/Local/Temp/_gbsbuild/obj/actor_55_update.rel
                                          [ actor_55_update ]
C:/Users/BAYEK/AppData/Local/Temp/_gbsbuild/obj/actor_56_update.rel
                                          [ actor_56_update ]
C:/Users/BAYEK/AppData/Local/Temp/_gbsbuild/obj/actor_57_update.rel
                                          [ actor_57_update ]
C:/Users/BAYEK/AppData/Local/Temp/_gbsbuild/obj/actor_58_interact.rel
                                          [ actor_58_interact ]
C:/Users/BAYEK/AppData/Local/Temp/_gbsbuild/obj/actor_59_interact.rel
                                          [ actor_59_interact ]
C:/Users/BAYEK/AppData/Local/Temp/_gbsbuild/obj/actor_6_interact.rel
                                          [ actor_6_interact ]
C:/Users/BAYEK/AppData/Local/Temp/_gbsbuild/obj/actor_6_update.rel
                                          [ actor_6_update ]
C:/Users/BAYEK/AppData/Local/Temp/_gbsbuild/obj/actor_60_interact.rel
                                          [ actor_60_interact ]
C:/Users/BAYEK/AppData/Local/Temp/_gbsbuild/obj/actor_60_update.rel
                                          [ actor_60_update ]
C:/Users/BAYEK/AppData/Local/Temp/_gbsbuild/obj/actor_61_interact.rel
                                          [ actor_61_interact ]
C:/Users/BAYEK/AppData/Local/Temp/_gbsbuild/obj/actor_62_interact.rel
                                          [ actor_62_interact ]
C:/Users/BAYEK/AppData/Local/Temp/_gbsbuild/obj/actor_63_interact.rel
                                          [ actor_63_interact ]
C:/Users/BAYEK/AppData/Local/Temp/_gbsbuild/obj/actor_64_interact.rel
                                          [ actor_64_interact ]
C:/Users/BAYEK/AppData/Local/Temp/_gbsbuild/obj/actor_65_interact.rel
                                          [ actor_65_interact ]
C:/Users/BAYEK/AppData/Local/Temp/_gbsbuild/obj/actor_66_interact.rel
                                          [ actor_66_interact ]
C:/Users/BAYEK/AppData/Local/Temp/_gbsbuild/obj/actor_67_interact.rel
                                          [ actor_67_interact ]
C:/Users/BAYEK/AppData/Local/Temp/_gbsbuild/obj/actor_68_interact.rel
                                          [ actor_68_interact ]
C:/Users/BAYEK/AppData/Local/Temp/_gbsbuild/obj/actor_69_update.rel
                                          [ actor_69_update ]
C:/Users/BAYEK/AppData/Local/Temp/_gbsbuild/obj/actor_7_interact.rel
                                          [ actor_7_interact ]
C:/Users/BAYEK/AppData/Local/Temp/_gbsbuild/obj/actor_7_update.rel
                                          [ actor_7_update ]
C:/Users/BAYEK/AppData/Local/Temp/_gbsbuild/obj/actor_70_interact.rel
                                          [ actor_70_interact ]
C:/Users/BAYEK/AppData/Local/Temp/_gbsbuild/obj/actor_71_interact.rel
                                          [ actor_71_interact ]
C:/Users/BAYEK/AppData/Local/Temp/_gbsbuild/obj/actor_73_interact.rel
                                          [ actor_73_interact ]
C:/Users/BAYEK/AppData/Local/Temp/_gbsbuild/obj/actor_74_interact.rel
                                          [ actor_74_interact ]
C:/Users/BAYEK/AppData/Local/Temp/_gbsbuild/obj/actor_75_interact.rel
                                          [ actor_75_interact ]
C:/Users/BAYEK/AppData/Local/Temp/_gbsbuild/obj/actor_76_interact.rel
                                          [ actor_76_interact ]
C:/Users/BAYEK/AppData/Local/Temp/_gbsbuild/obj/actor_76_update.rel
                                          [ actor_76_update ]
C:/Users/BAYEK/AppData/Local/Temp/_gbsbuild/obj/actor_77_update.rel
                                          [ actor_77_update ]
C:/Users/BAYEK/AppData/Local/Temp/_gbsbuild/obj/actor_78_interact.rel
                                          [ actor_78_interact ]
C:/Users/BAYEK/AppData/Local/Temp/_gbsbuild/obj/actor_79_interact.rel
                                          [ actor_79_interact ]
C:/Users/BAYEK/AppData/Local/Temp/_gbsbuild/obj/actor_8_interact.rel
                                          [ actor_8_interact ]
C:/Users/BAYEK/AppData/Local/Temp/_gbsbuild/obj/actor_8_update.rel
                                          [ actor_8_update ]
C:/Users/BAYEK/AppData/Local/Temp/_gbsbuild/obj/actor_80_interact.rel
                                          [ actor_80_interact ]
C:/Users/BAYEK/AppData/Local/Temp/_gbsbuild/obj/actor_81_update.rel
                                          [ actor_81_update ]
C:/Users/BAYEK/AppData/Local/Temp/_gbsbuild/obj/actor_82_update.rel
                                          [ actor_82_update ]
C:/Users/BAYEK/AppData/Local/Temp/_gbsbuild/obj/actor_83_update.rel
                                          [ actor_83_update ]
C:/Users/BAYEK/AppData/Local/Temp/_gbsbuild/obj/actor_84_interact.rel
                                          [ actor_84_interact ]
C:/Users/BAYEK/AppData/Local/Temp/_gbsbuild/obj/actor_85_interact.rel
                                          [ actor_85_interact ]
C:/Users/BAYEK/AppData/Local/Temp/_gbsbuild/obj/actor_86_interact.rel
                                          [ actor_86_interact ]
C:/Users/BAYEK/AppData/Local/Temp/_gbsbuild/obj/actor_87_interact.rel
                                          [ actor_87_interact ]
C:/Users/BAYEK/AppData/Local/Temp/_gbsbuild/obj/actor_88_interact.rel
                                          [ actor_88_interact ]
C:/Users/BAYEK/AppData/Local/Temp/_gbsbuild/obj/actor_89_interact.rel
                                          [ actor_89_interact ]
C:/Users/BAYEK/AppData/Local/Temp/_gbsbuild/obj/actor_9_update.rel
                                          [ actor_9_update ]
C:/Users/BAYEK/AppData/Local/Temp/_gbsbuild/obj/actor_90_update.rel
                                          [ actor_90_update ]
C:/Users/BAYEK/AppData/Local/Temp/_gbsbuild/obj/actor_91_interact.rel
                                          [ actor_91_interact ]
C:/Users/BAYEK/AppData/Local/Temp/_gbsbuild/obj/actor_92_interact.rel
                                          [ actor_92_interact ]
C:/Users/BAYEK/AppData/Local/Temp/_gbsbuild/obj/actor_94_update.rel
                                          [ actor_94_update ]
C:/Users/BAYEK/AppData/Local/Temp/_gbsbuild/obj/actor_95_interact.rel
                                          [ actor_95_interact ]
C:/Users/BAYEK/AppData/Local/Temp/_gbsbuild/obj/actor_96_interact.rel
                                          [ actor_96_interact ]
C:/Users/BAYEK/AppData/Local/Temp/_gbsbuild/obj/actor_97_interact.rel
                                          [ actor_97_interact ]
C:/Users/BAYEK/AppData/Local/Temp/_gbsbuild/obj/actor_99_interact.rel
                                          [ actor_99_interact ]
C:/Users/BAYEK/AppData/Local/Temp/_gbsbuild/obj/bg_barco_a_sair_do_porto_tilemap.rel
                                          [ bg_barco_a_sair_do_porto_tilemap ]
C:/Users/BAYEK/AppData/Local/Temp/_gbsbuild/obj/bg_barco_a_sair_do_porto_tileset.rel
                                          [ bg_barco_a_sair_do_porto_tileset ]
C:/Users/BAYEK/AppData/Local/Temp/_gbsbuild/obj/bg_barco_a_sair_do_porto.rel
                                          [ bg_barco_a_sair_do_porto ]
C:/Users/BAYEK/AppData/Local/Temp/_gbsbuild/obj/bg_beco_tilemap.rel
                                          [ bg_beco_tilemap ]
C:/Users/BAYEK/AppData/Local/Temp/_gbsbuild/obj/bg_beco_tileset.rel
                                          [ bg_beco_tileset ]
C:/Users/BAYEK/AppData/Local/Temp/_gbsbuild/obj/bg_beco.rel
                                          [ bg_beco ]
C:/Users/BAYEK/AppData/Local/Temp/_gbsbuild/obj/bg_becodeath_tilemap.rel
                                          [ bg_becodeath_tilemap ]
C:/Users/BAYEK/AppData/Local/Temp/_gbsbuild/obj/bg_becodeath_tileset.rel
                                          [ bg_becodeath_tileset ]
C:/Users/BAYEK/AppData/Local/Temp/_gbsbuild/obj/bg_becodeath.rel
                                          [ bg_becodeath ]
C:/Users/BAYEK/AppData/Local/Temp/_gbsbuild/obj/bg_boatdeath_tilemap.rel
                                          [ bg_boatdeath_tilemap ]
C:/Users/BAYEK/AppData/Local/Temp/_gbsbuild/obj/bg_boatdeath_tileset.rel
                                          [ bg_boatdeath_tileset ]
C:/Users/BAYEK/AppData/Local/Temp/_gbsbuild/obj/bg_boatdeath.rel
                                          [ bg_boatdeath ]
C:/Users/BAYEK/AppData/Local/Temp/_gbsbuild/obj/bg_chief_entrance_tilemap.rel
                                          [ bg_chief_entrance_tilemap ]
C:/Users/BAYEK/AppData/Local/Temp/_gbsbuild/obj/bg_chief_entrance_tileset.rel
                                          [ bg_chief_entrance_tileset ]
C:/Users/BAYEK/AppData/Local/Temp/_gbsbuild/obj/bg_chief_entrance.rel
                                          [ bg_chief_entrance ]
C:/Users/BAYEK/AppData/Local/Temp/_gbsbuild/obj/bg_credits_tilemap.rel
                                          [ bg_credits_tilemap ]
C:/Users/BAYEK/AppData/Local/Temp/_gbsbuild/obj/bg_credits_tileset.rel
                                          [ bg_credits_tileset ]
C:/Users/BAYEK/AppData/Local/Temp/_gbsbuild/obj/bg_credits.rel
                                          [ bg_credits ]
C:/Users/BAYEK/AppData/Local/Temp/_gbsbuild/obj/bg_crows_nest_tilemap.rel
                                          [ bg_crows_nest_tilemap ]
C:/Users/BAYEK/AppData/Local/Temp/_gbsbuild/obj/bg_crows_nest_tileset.rel
                                          [ bg_crows_nest_tileset ]
C:/Users/BAYEK/AppData/Local/Temp/_gbsbuild/obj/bg_crows_nest.rel
                                          [ bg_crows_nest ]
C:/Users/BAYEK/AppData/Local/Temp/_gbsbuild/obj/bg_cutscene_badending_tilemap.rel
                                          [ bg_cutscene_badending_tilemap ]
C:/Users/BAYEK/AppData/Local/Temp/_gbsbuild/obj/bg_cutscene_badending_tileset.rel
                                          [ bg_cutscene_badending_tileset ]
C:/Users/BAYEK/AppData/Local/Temp/_gbsbuild/obj/bg_cutscene_badending.rel
                                          [ bg_cutscene_badending ]
C:/Users/BAYEK/AppData/Local/Temp/_gbsbuild/obj/bg_cutscene_entrance_tilemap.rel
                                          [ bg_cutscene_entrance_tilemap ]
C:/Users/BAYEK/AppData/Local/Temp/_gbsbuild/obj/bg_cutscene_entrance_tileset.rel
                                          [ bg_cutscene_entrance_tileset ]
C:/Users/BAYEK/AppData/Local/Temp/_gbsbuild/obj/bg_cutscene_entrance.rel
                                          [ bg_cutscene_entrance ]
C:/Users/BAYEK/AppData/Local/Temp/_gbsbuild/obj/bg_cutscene_fan_final_tilemap.rel
                                          [ bg_cutscene_fan_final_tilemap ]
C:/Users/BAYEK/AppData/Local/Temp/_gbsbuild/obj/bg_cutscene_fan_final_tileset.rel
                                          [ bg_cutscene_fan_final_tileset ]
C:/Users/BAYEK/AppData/Local/Temp/_gbsbuild/obj/bg_cutscene_fan_final.rel
                                          [ bg_cutscene_fan_final ]
C:/Users/BAYEK/AppData/Local/Temp/_gbsbuild/obj/bg_cutscene_ingame_tilemap.rel
                                          [ bg_cutscene_ingame_tilemap ]
C:/Users/BAYEK/AppData/Local/Temp/_gbsbuild/obj/bg_cutscene_ingame_tileset.rel
                                          [ bg_cutscene_ingame_tileset ]
C:/Users/BAYEK/AppData/Local/Temp/_gbsbuild/obj/bg_cutscene_ingame.rel
                                          [ bg_cutscene_ingame ]
C:/Users/BAYEK/AppData/Local/Temp/_gbsbuild/obj/bg_cutscene_lanternas2_tilemap.rel
                                          [ bg_cutscene_lanternas2_tilemap ]
C:/Users/BAYEK/AppData/Local/Temp/_gbsbuild/obj/bg_cutscene_lanternas2_tileset.rel
                                          [ bg_cutscene_lanternas2_tileset ]
C:/Users/BAYEK/AppData/Local/Temp/_gbsbuild/obj/bg_cutscene_lanternas2.rel
                                          [ bg_cutscene_lanternas2 ]
C:/Users/BAYEK/AppData/Local/Temp/_gbsbuild/obj/bg_diningroom_tilemap.rel
                                          [ bg_diningroom_tilemap ]
C:/Users/BAYEK/AppData/Local/Temp/_gbsbuild/obj/bg_diningroom_tileset.rel
                                          [ bg_diningroom_tileset ]
C:/Users/BAYEK/AppData/Local/Temp/_gbsbuild/obj/bg_diningroom.rel
                                          [ bg_diningroom ]
C:/Users/BAYEK/AppData/Local/Temp/_gbsbuild/obj/bg_docas_tilemap.rel
                                          [ bg_docas_tilemap ]
C:/Users/BAYEK/AppData/Local/Temp/_gbsbuild/obj/bg_docas_tileset.rel
                                          [ bg_docas_tileset ]
C:/Users/BAYEK/AppData/Local/Temp/_gbsbuild/obj/bg_docas.rel
                                          [ bg_docas ]
C:/Users/BAYEK/AppData/Local/Temp/_gbsbuild/obj/bg_inventory_chief_tilemap.rel
                                          [ bg_inventory_chief_tilemap ]
C:/Users/BAYEK/AppData/Local/Temp/_gbsbuild/obj/bg_inventory_chief_tileset.rel
                                          [ bg_inventory_chief_tileset ]
C:/Users/BAYEK/AppData/Local/Temp/_gbsbuild/obj/bg_inventory_chief.rel
                                          [ bg_inventory_chief ]
C:/Users/BAYEK/AppData/Local/Temp/_gbsbuild/obj/bg_inventory_samurai_tilemap.rel
                                          [ bg_inventory_samurai_tilemap ]
C:/Users/BAYEK/AppData/Local/Temp/_gbsbuild/obj/bg_inventory_samurai_tileset.rel
                                          [ bg_inventory_samurai_tileset ]
C:/Users/BAYEK/AppData/Local/Temp/_gbsbuild/obj/bg_inventory_samurai.rel
                                          [ bg_inventory_samurai ]
C:/Users/BAYEK/AppData/Local/Temp/_gbsbuild/obj/bg_logo_tilemap.rel
                                          [ bg_logo_tilemap ]
C:/Users/BAYEK/AppData/Local/Temp/_gbsbuild/obj/bg_logo_tileset.rel
                                          [ bg_logo_tileset ]
C:/Users/BAYEK/AppData/Local/Temp/_gbsbuild/obj/bg_logo.rel
                                          [ bg_logo ]
C:/Users/BAYEK/AppData/Local/Temp/_gbsbuild/obj/bg_main_menu_tilemap.rel
                                          [ bg_main_menu_tilemap ]
C:/Users/BAYEK/AppData/Local/Temp/_gbsbuild/obj/bg_main_menu_tileset.rel
                                          [ bg_main_menu_tileset ]
C:/Users/BAYEK/AppData/Local/Temp/_gbsbuild/obj/bg_main_menu.rel
                                          [ bg_main_menu ]
C:/Users/BAYEK/AppData/Local/Temp/_gbsbuild/obj/bg_pausa_fixed_tilemap.rel
                                          [ bg_pausa_fixed_tilemap ]
C:/Users/BAYEK/AppData/Local/Temp/_gbsbuild/obj/bg_pausa_fixed_tileset.rel
                                          [ bg_pausa_fixed_tileset ]
C:/Users/BAYEK/AppData/Local/Temp/_gbsbuild/obj/bg_pausa_fixed.rel
                                          [ bg_pausa_fixed ]
C:/Users/BAYEK/AppData/Local/Temp/_gbsbuild/obj/bg_pirateboat3_tilemap.rel
                                          [ bg_pirateboat3_tilemap ]
C:/Users/BAYEK/AppData/Local/Temp/_gbsbuild/obj/bg_pirateboat3_tileset.rel
                                          [ bg_pirateboat3_tileset ]
C:/Users/BAYEK/AppData/Local/Temp/_gbsbuild/obj/bg_pirateboat3.rel
                                          [ bg_pirateboat3 ]
C:/Users/BAYEK/AppData/Local/Temp/_gbsbuild/obj/bg_piratedeath_tilemap.rel
                                          [ bg_piratedeath_tilemap ]
C:/Users/BAYEK/AppData/Local/Temp/_gbsbuild/obj/bg_piratedeath_tileset.rel
                                          [ bg_piratedeath_tileset ]
C:/Users/BAYEK/AppData/Local/Temp/_gbsbuild/obj/bg_piratedeath.rel
                                          [ bg_piratedeath ]
C:/Users/BAYEK/AppData/Local/Temp/_gbsbuild/obj/bg_placeholder_tilemap.rel
                                          [ bg_placeholder_tilemap ]
C:/Users/BAYEK/AppData/Local/Temp/_gbsbuild/obj/bg_placeholder_tileset.rel
                                          [ bg_placeholder_tileset ]
C:/Users/BAYEK/AppData/Local/Temp/_gbsbuild/obj/bg_placeholder.rel
                                          [ bg_placeholder ]
C:/Users/BAYEK/AppData/Local/Temp/_gbsbuild/obj/bg_portuguese_boat_before_tilemap.rel
                                          [ bg_portuguese_boat_before_tilema ]
C:/Users/BAYEK/AppData/Local/Temp/_gbsbuild/obj/bg_portuguese_boat_before_tileset.rel
                                          [ bg_portuguese_boat_before_tilese ]
C:/Users/BAYEK/AppData/Local/Temp/_gbsbuild/obj/bg_portuguese_boat_before.rel
                                          [ bg_portuguese_boat_before ]
C:/Users/BAYEK/AppData/Local/Temp/_gbsbuild/obj/bg_portuguese_boat_cutscene_tilemap.rel
                                          [ bg_portuguese_boat_cutscene_tile ]
C:/Users/BAYEK/AppData/Local/Temp/_gbsbuild/obj/bg_portuguese_boat_cutscene_tileset.rel
                                          [ bg_portuguese_boat_cutscene_tile ]
C:/Users/BAYEK/AppData/Local/Temp/_gbsbuild/obj/bg_portuguese_boat_cutscene.rel
                                          [ bg_portuguese_boat_cutscene ]
C:/Users/BAYEK/AppData/Local/Temp/_gbsbuild/obj/bg_portugueseboat_tilemap.rel
                                          [ bg_portugueseboat_tilemap ]
C:/Users/BAYEK/AppData/Local/Temp/_gbsbuild/obj/bg_portugueseboat_tileset.rel
                                          [ bg_portugueseboat_tileset ]
C:/Users/BAYEK/AppData/Local/Temp/_gbsbuild/obj/bg_portugueseboat.rel
                                          [ bg_portugueseboat ]
C:/Users/BAYEK/AppData/Local/Temp/_gbsbuild/obj/bg_skeleton_back_tilemap.rel
                                          [ bg_skeleton_back_tilemap ]
C:/Users/BAYEK/AppData/Local/Temp/_gbsbuild/obj/bg_skeleton_back_tileset.rel
                                          [ bg_skeleton_back_tileset ]
C:/Users/BAYEK/AppData/Local/Temp/_gbsbuild/obj/bg_skeleton_back.rel
                                          [ bg_skeleton_back ]
C:/Users/BAYEK/AppData/Local/Temp/_gbsbuild/obj/bg_title_screen_tilemap.rel
                                          [ bg_title_screen_tilemap ]
C:/Users/BAYEK/AppData/Local/Temp/_gbsbuild/obj/bg_title_screen_tileset.rel
                                          [ bg_title_screen_tileset ]
C:/Users/BAYEK/AppData/Local/Temp/_gbsbuild/obj/bg_title_screen.rel
                                          [ bg_title_screen ]
C:/Users/BAYEK/AppData/Local/Temp/_gbsbuild/obj/bg_vila_1_tilemap.rel
                                          [ bg_vila_1_tilemap ]
C:/Users/BAYEK/AppData/Local/Temp/_gbsbuild/obj/bg_vila_1_tileset.rel
                                          [ bg_vila_1_tileset ]
C:/Users/BAYEK/AppData/Local/Temp/_gbsbuild/obj/bg_vila_1.rel
                                          [ bg_vila_1 ]
C:/Users/BAYEK/AppData/Local/Temp/_gbsbuild/obj/bg_vila_2_tilemap.rel
                                          [ bg_vila_2_tilemap ]
C:/Users/BAYEK/AppData/Local/Temp/_gbsbuild/obj/bg_vila_2_tileset.rel
                                          [ bg_vila_2_tileset ]
C:/Users/BAYEK/AppData/Local/Temp/_gbsbuild/obj/bg_vila_2.rel
                                          [ bg_vila_2 ]
C:/Users/BAYEK/AppData/Local/Temp/_gbsbuild/obj/cursor_image.rel
                                          [ cursor_image ]
C:/Users/BAYEK/AppData/Local/Temp/_gbsbuild/obj/emote_anger.rel
                                          [ emote_anger ]
C:/Users/BAYEK/AppData/Local/Temp/_gbsbuild/obj/emote_music.rel
                                          [ emote_music ]
C:/Users/BAYEK/AppData/Local/Temp/_gbsbuild/obj/emote_pause.rel
                                          [ emote_pause ]
C:/Users/BAYEK/AppData/Local/Temp/_gbsbuild/obj/emote_question.rel
                                          [ emote_question ]
C:/Users/BAYEK/AppData/Local/Temp/_gbsbuild/obj/emote_shock.rel
                                          [ emote_shock ]
C:/Users/BAYEK/AppData/Local/Temp/_gbsbuild/obj/font_gbs_mono.rel
                                          [ font_gbs_mono ]
C:/Users/BAYEK/AppData/Local/Temp/_gbsbuild/obj/frame_image.rel
                                          [ frame_image ]
C:/Users/BAYEK/AppData/Local/Temp/_gbsbuild/obj/game_signature.rel
                                          [ game_signature ]
C:/Users/BAYEK/AppData/Local/Temp/_gbsbuild/obj/song_di_logo_ou_neutralidad_Data.rel
                                          [ song_di_logo_ou_neutralidad_Data ]
C:/Users/BAYEK/AppData/Local/Temp/_gbsbuild/obj/song_explorar_vila_Data.rel
                                          [ song_explorar_vila_Data ]
C:/Users/BAYEK/AppData/Local/Temp/_gbsbuild/obj/song_final_Data.rel
                                          [ song_final_Data ]
C:/Users/BAYEK/AppData/Local/Temp/_gbsbuild/obj/song_hewillgetyou_Data.rel
                                          [ song_hewillgetyou_Data ]
C:/Users/BAYEK/AppData/Local/Temp/_gbsbuild/obj/song_m_sica_tensa_Data.rel
                                          [ song_m_sica_tensa_Data ]
C:/Users/BAYEK/AppData/Local/Temp/_gbsbuild/obj/song_main_menu_Data.rel
                                          [ song_main_menu_Data ]
C:/Users/BAYEK/AppData/Local/Temp/_gbsbuild/obj/song_navega_o_Data.rel
                                          [ song_navega_o_Data ]
C:/Users/BAYEK/AppData/Local/Temp/_gbsbuild/obj/song_song_template_Data.rel
                                          [ song_song_template_Data ]
C:/Users/BAYEK/AppData/Local/Temp/_gbsbuild/obj/song_tenso_2_Data.rel
                                          [ song_tenso_2_Data ]
C:/Users/BAYEK/AppData/Local/Temp/_gbsbuild/obj/song_villaginarroun_Data.rel
                                          [ song_villaginarroun_Data ]
C:/Users/BAYEK/AppData/Local/Temp/_gbsbuild/obj/palette_0.rel
                                          [ palette_0 ]
C:/Users/BAYEK/AppData/Local/Temp/_gbsbuild/obj/palette_1.rel
                                          [ palette_1 ]
C:/Users/BAYEK/AppData/Local/Temp/_gbsbuild/obj/scene_0_collisions.rel
                                          [ scene_0_collisions ]
C:/Users/BAYEK/AppData/Local/Temp/_gbsbuild/obj/scene_0_init.rel
                                          [ scene_0_init ]
C:/Users/BAYEK/AppData/Local/Temp/_gbsbuild/obj/scene_0.rel
                                          [ scene_0 ]
C:/Users/BAYEK/AppData/Local/Temp/_gbsbuild/obj/scene_1_collisions.rel
                                          [ scene_1_collisions ]
C:/Users/BAYEK/AppData/Local/Temp/_gbsbuild/obj/scene_1_init.rel
                                          [ scene_1_init ]
C:/Users/BAYEK/AppData/Local/Temp/_gbsbuild/obj/scene_1.rel
                                          [ scene_1 ]
C:/Users/BAYEK/AppData/Local/Temp/_gbsbuild/obj/scene_10_actors.rel
                                          [ scene_10_actors ]
C:/Users/BAYEK/AppData/Local/Temp/_gbsbuild/obj/scene_10_collisions.rel
                                          [ scene_10_collisions ]
C:/Users/BAYEK/AppData/Local/Temp/_gbsbuild/obj/scene_10_init.rel
                                          [ scene_10_init ]
C:/Users/BAYEK/AppData/Local/Temp/_gbsbuild/obj/scene_10_sprites.rel
                                          [ scene_10_sprites ]
C:/Users/BAYEK/AppData/Local/Temp/_gbsbuild/obj/scene_10.rel
                                          [ scene_10 ]
C:/Users/BAYEK/AppData/Local/Temp/_gbsbuild/obj/scene_11_collisions.rel
                                          [ scene_11_collisions ]
C:/Users/BAYEK/AppData/Local/Temp/_gbsbuild/obj/scene_11_init.rel
                                          [ scene_11_init ]
C:/Users/BAYEK/AppData/Local/Temp/_gbsbuild/obj/scene_11.rel
                                          [ scene_11 ]
C:/Users/BAYEK/AppData/Local/Temp/_gbsbuild/obj/scene_12_actors.rel
                                          [ scene_12_actors ]
C:/Users/BAYEK/AppData/Local/Temp/_gbsbuild/obj/scene_12_collisions.rel
                                          [ scene_12_collisions ]
C:/Users/BAYEK/AppData/Local/Temp/_gbsbuild/obj/scene_12_init.rel
                                          [ scene_12_init ]
C:/Users/BAYEK/AppData/Local/Temp/_gbsbuild/obj/scene_12_sprites.rel
                                          [ scene_12_sprites ]
C:/Users/BAYEK/AppData/Local/Temp/_gbsbuild/obj/scene_12.rel
                                          [ scene_12 ]
C:/Users/BAYEK/AppData/Local/Temp/_gbsbuild/obj/scene_13_actors.rel
                                          [ scene_13_actors ]
C:/Users/BAYEK/AppData/Local/Temp/_gbsbuild/obj/scene_13_collisions.rel
                                          [ scene_13_collisions ]
C:/Users/BAYEK/AppData/Local/Temp/_gbsbuild/obj/scene_13_init.rel
                                          [ scene_13_init ]
C:/Users/BAYEK/AppData/Local/Temp/_gbsbuild/obj/scene_13_sprites.rel
                                          [ scene_13_sprites ]
C:/Users/BAYEK/AppData/Local/Temp/_gbsbuild/obj/scene_13.rel
                                          [ scene_13 ]
C:/Users/BAYEK/AppData/Local/Temp/_gbsbuild/obj/scene_14_actors.rel
                                          [ scene_14_actors ]
C:/Users/BAYEK/AppData/Local/Temp/_gbsbuild/obj/scene_14_collisions.rel
                                          [ scene_14_collisions ]
C:/Users/BAYEK/AppData/Local/Temp/_gbsbuild/obj/scene_14_init.rel
                                          [ scene_14_init ]
C:/Users/BAYEK/AppData/Local/Temp/_gbsbuild/obj/scene_14_p_hit1.rel
                                          [ scene_14_p_hit1 ]
C:/Users/BAYEK/AppData/Local/Temp/_gbsbuild/obj/scene_14_projectiles.rel
                                          [ scene_14_projectiles ]
C:/Users/BAYEK/AppData/Local/Temp/_gbsbuild/obj/scene_14_sprites.rel
                                          [ scene_14_sprites ]
C:/Users/BAYEK/AppData/Local/Temp/_gbsbuild/obj/scene_14_triggers.rel
                                          [ scene_14_triggers ]
C:/Users/BAYEK/AppData/Local/Temp/_gbsbuild/obj/scene_14.rel
                                          [ scene_14 ]
C:/Users/BAYEK/AppData/Local/Temp/_gbsbuild/obj/scene_15_collisions.rel
                                          [ scene_15_collisions ]
C:/Users/BAYEK/AppData/Local/Temp/_gbsbuild/obj/scene_15_init.rel
                                          [ scene_15_init ]
C:/Users/BAYEK/AppData/Local/Temp/_gbsbuild/obj/scene_15.rel
                                          [ scene_15 ]
C:/Users/BAYEK/AppData/Local/Temp/_gbsbuild/obj/scene_16_actors.rel
                                          [ scene_16_actors ]
C:/Users/BAYEK/AppData/Local/Temp/_gbsbuild/obj/scene_16_collisions.rel
                                          [ scene_16_collisions ]
C:/Users/BAYEK/AppData/Local/Temp/_gbsbuild/obj/scene_16_init.rel
                                          [ scene_16_init ]
C:/Users/BAYEK/AppData/Local/Temp/_gbsbuild/obj/scene_16_sprites.rel
                                          [ scene_16_sprites ]
C:/Users/BAYEK/AppData/Local/Temp/_gbsbuild/obj/scene_16_triggers.rel
                                          [ scene_16_triggers ]
C:/Users/BAYEK/AppData/Local/Temp/_gbsbuild/obj/scene_16.rel
                                          [ scene_16 ]
C:/Users/BAYEK/AppData/Local/Temp/_gbsbuild/obj/scene_17_actors.rel
                                          [ scene_17_actors ]
C:/Users/BAYEK/AppData/Local/Temp/_gbsbuild/obj/scene_17_collisions.rel
                                          [ scene_17_collisions ]
C:/Users/BAYEK/AppData/Local/Temp/_gbsbuild/obj/scene_17_init.rel
                                          [ scene_17_init ]
C:/Users/BAYEK/AppData/Local/Temp/_gbsbuild/obj/scene_17_sprites.rel
                                          [ scene_17_sprites ]
C:/Users/BAYEK/AppData/Local/Temp/_gbsbuild/obj/scene_17_triggers.rel
                                          [ scene_17_triggers ]
C:/Users/BAYEK/AppData/Local/Temp/_gbsbuild/obj/scene_17.rel
                                          [ scene_17 ]
C:/Users/BAYEK/AppData/Local/Temp/_gbsbuild/obj/scene_18_actors.rel
                                          [ scene_18_actors ]
C:/Users/BAYEK/AppData/Local/Temp/_gbsbuild/obj/scene_18_collisions.rel
                                          [ scene_18_collisions ]
C:/Users/BAYEK/AppData/Local/Temp/_gbsbuild/obj/scene_18_init.rel
                                          [ scene_18_init ]
C:/Users/BAYEK/AppData/Local/Temp/_gbsbuild/obj/scene_18_sprites.rel
                                          [ scene_18_sprites ]
C:/Users/BAYEK/AppData/Local/Temp/_gbsbuild/obj/scene_18_triggers.rel
                                          [ scene_18_triggers ]
C:/Users/BAYEK/AppData/Local/Temp/_gbsbuild/obj/scene_18.rel
                                          [ scene_18 ]
C:/Users/BAYEK/AppData/Local/Temp/_gbsbuild/obj/scene_19_actors.rel
                                          [ scene_19_actors ]
C:/Users/BAYEK/AppData/Local/Temp/_gbsbuild/obj/scene_19_collisions.rel
                                          [ scene_19_collisions ]
C:/Users/BAYEK/AppData/Local/Temp/_gbsbuild/obj/scene_19_init.rel
                                          [ scene_19_init ]
C:/Users/BAYEK/AppData/Local/Temp/_gbsbuild/obj/scene_19_sprites.rel
                                          [ scene_19_sprites ]
C:/Users/BAYEK/AppData/Local/Temp/_gbsbuild/obj/scene_19_triggers.rel
                                          [ scene_19_triggers ]
C:/Users/BAYEK/AppData/Local/Temp/_gbsbuild/obj/scene_19.rel
                                          [ scene_19 ]
C:/Users/BAYEK/AppData/Local/Temp/_gbsbuild/obj/scene_2_collisions.rel
                                          [ scene_2_collisions ]
C:/Users/BAYEK/AppData/Local/Temp/_gbsbuild/obj/scene_2_init.rel
                                          [ scene_2_init ]
C:/Users/BAYEK/AppData/Local/Temp/_gbsbuild/obj/scene_2.rel
                                          [ scene_2 ]
C:/Users/BAYEK/AppData/Local/Temp/_gbsbuild/obj/scene_20_actors.rel
                                          [ scene_20_actors ]
C:/Users/BAYEK/AppData/Local/Temp/_gbsbuild/obj/scene_20_collisions.rel
                                          [ scene_20_collisions ]
C:/Users/BAYEK/AppData/Local/Temp/_gbsbuild/obj/scene_20_init.rel
                                          [ scene_20_init ]
C:/Users/BAYEK/AppData/Local/Temp/_gbsbuild/obj/scene_20_sprites.rel
                                          [ scene_20_sprites ]
C:/Users/BAYEK/AppData/Local/Temp/_gbsbuild/obj/scene_20_triggers.rel
                                          [ scene_20_triggers ]
C:/Users/BAYEK/AppData/Local/Temp/_gbsbuild/obj/scene_20.rel
                                          [ scene_20 ]
C:/Users/BAYEK/AppData/Local/Temp/_gbsbuild/obj/scene_21_actors.rel
                                          [ scene_21_actors ]
C:/Users/BAYEK/AppData/Local/Temp/_gbsbuild/obj/scene_21_collisions.rel
                                          [ scene_21_collisions ]
C:/Users/BAYEK/AppData/Local/Temp/_gbsbuild/obj/scene_21_init.rel
                                          [ scene_21_init ]
C:/Users/BAYEK/AppData/Local/Temp/_gbsbuild/obj/scene_21_sprites.rel
                                          [ scene_21_sprites ]
C:/Users/BAYEK/AppData/Local/Temp/_gbsbuild/obj/scene_21_triggers.rel
                                          [ scene_21_triggers ]
C:/Users/BAYEK/AppData/Local/Temp/_gbsbuild/obj/scene_21.rel
                                          [ scene_21 ]
C:/Users/BAYEK/AppData/Local/Temp/_gbsbuild/obj/scene_22_actors.rel
                                          [ scene_22_actors ]
C:/Users/BAYEK/AppData/Local/Temp/_gbsbuild/obj/scene_22_collisions.rel
                                          [ scene_22_collisions ]
C:/Users/BAYEK/AppData/Local/Temp/_gbsbuild/obj/scene_22_init.rel
                                          [ scene_22_init ]
C:/Users/BAYEK/AppData/Local/Temp/_gbsbuild/obj/scene_22_sprites.rel
                                          [ scene_22_sprites ]
C:/Users/BAYEK/AppData/Local/Temp/_gbsbuild/obj/scene_22_triggers.rel
                                          [ scene_22_triggers ]
C:/Users/BAYEK/AppData/Local/Temp/_gbsbuild/obj/scene_22.rel
                                          [ scene_22 ]
C:/Users/BAYEK/AppData/Local/Temp/_gbsbuild/obj/scene_23_collisions.rel
                                          [ scene_23_collisions ]
C:/Users/BAYEK/AppData/Local/Temp/_gbsbuild/obj/scene_23_init.rel
                                          [ scene_23_init ]
C:/Users/BAYEK/AppData/Local/Temp/_gbsbuild/obj/scene_23.rel
                                          [ scene_23 ]
C:/Users/BAYEK/AppData/Local/Temp/_gbsbuild/obj/scene_24_actors.rel
                                          [ scene_24_actors ]
C:/Users/BAYEK/AppData/Local/Temp/_gbsbuild/obj/scene_24_collisions.rel
                                          [ scene_24_collisions ]
C:/Users/BAYEK/AppData/Local/Temp/_gbsbuild/obj/scene_24_init.rel
                                          [ scene_24_init ]
C:/Users/BAYEK/AppData/Local/Temp/_gbsbuild/obj/scene_24_p_hit1.rel
                                          [ scene_24_p_hit1 ]
C:/Users/BAYEK/AppData/Local/Temp/_gbsbuild/obj/scene_24_projectiles.rel
                                          [ scene_24_projectiles ]
C:/Users/BAYEK/AppData/Local/Temp/_gbsbuild/obj/scene_24_sprites.rel
                                          [ scene_24_sprites ]
C:/Users/BAYEK/AppData/Local/Temp/_gbsbuild/obj/scene_24_triggers.rel
                                          [ scene_24_triggers ]
C:/Users/BAYEK/AppData/Local/Temp/_gbsbuild/obj/scene_24.rel
                                          [ scene_24 ]
C:/Users/BAYEK/AppData/Local/Temp/_gbsbuild/obj/scene_25_actors.rel
                                          [ scene_25_actors ]
C:/Users/BAYEK/AppData/Local/Temp/_gbsbuild/obj/scene_25_collisions.rel
                                          [ scene_25_collisions ]
C:/Users/BAYEK/AppData/Local/Temp/_gbsbuild/obj/scene_25_init.rel
                                          [ scene_25_init ]
C:/Users/BAYEK/AppData/Local/Temp/_gbsbuild/obj/scene_25_sprites.rel
                                          [ scene_25_sprites ]
C:/Users/BAYEK/AppData/Local/Temp/_gbsbuild/obj/scene_25_triggers.rel
                                          [ scene_25_triggers ]
C:/Users/BAYEK/AppData/Local/Temp/_gbsbuild/obj/scene_25.rel
                                          [ scene_25 ]
C:/Users/BAYEK/AppData/Local/Temp/_gbsbuild/obj/scene_26_collisions.rel
                                          [ scene_26_collisions ]
C:/Users/BAYEK/AppData/Local/Temp/_gbsbuild/obj/scene_26_init.rel
                                          [ scene_26_init ]
C:/Users/BAYEK/AppData/Local/Temp/_gbsbuild/obj/scene_26.rel
                                          [ scene_26 ]
C:/Users/BAYEK/AppData/Local/Temp/_gbsbuild/obj/scene_27_actors.rel
                                          [ scene_27_actors ]
C:/Users/BAYEK/AppData/Local/Temp/_gbsbuild/obj/scene_27_collisions.rel
                                          [ scene_27_collisions ]
C:/Users/BAYEK/AppData/Local/Temp/_gbsbuild/obj/scene_27_init.rel
                                          [ scene_27_init ]
C:/Users/BAYEK/AppData/Local/Temp/_gbsbuild/obj/scene_27_sprites.rel
                                          [ scene_27_sprites ]
C:/Users/BAYEK/AppData/Local/Temp/_gbsbuild/obj/scene_27_triggers.rel
                                          [ scene_27_triggers ]
C:/Users/BAYEK/AppData/Local/Temp/_gbsbuild/obj/scene_27.rel
                                          [ scene_27 ]
C:/Users/BAYEK/AppData/Local/Temp/_gbsbuild/obj/scene_28_collisions.rel
                                          [ scene_28_collisions ]
C:/Users/BAYEK/AppData/Local/Temp/_gbsbuild/obj/scene_28_init.rel
                                          [ scene_28_init ]
C:/Users/BAYEK/AppData/Local/Temp/_gbsbuild/obj/scene_28.rel
                                          [ scene_28 ]
C:/Users/BAYEK/AppData/Local/Temp/_gbsbuild/obj/scene_29_actors.rel
                                          [ scene_29_actors ]
C:/Users/BAYEK/AppData/Local/Temp/_gbsbuild/obj/scene_29_collisions.rel
                                          [ scene_29_collisions ]
C:/Users/BAYEK/AppData/Local/Temp/_gbsbuild/obj/scene_29_init.rel
                                          [ scene_29_init ]
C:/Users/BAYEK/AppData/Local/Temp/_gbsbuild/obj/scene_29_sprites.rel
                                          [ scene_29_sprites ]
C:/Users/BAYEK/AppData/Local/Temp/_gbsbuild/obj/scene_29_triggers.rel
                                          [ scene_29_triggers ]
C:/Users/BAYEK/AppData/Local/Temp/_gbsbuild/obj/scene_29.rel
                                          [ scene_29 ]
C:/Users/BAYEK/AppData/Local/Temp/_gbsbuild/obj/scene_3_collisions.rel
                                          [ scene_3_collisions ]
C:/Users/BAYEK/AppData/Local/Temp/_gbsbuild/obj/scene_3_init.rel
                                          [ scene_3_init ]
C:/Users/BAYEK/AppData/Local/Temp/_gbsbuild/obj/scene_3.rel
                                          [ scene_3 ]
C:/Users/BAYEK/AppData/Local/Temp/_gbsbuild/obj/scene_30_actors.rel
                                          [ scene_30_actors ]
C:/Users/BAYEK/AppData/Local/Temp/_gbsbuild/obj/scene_30_collisions.rel
                                          [ scene_30_collisions ]
C:/Users/BAYEK/AppData/Local/Temp/_gbsbuild/obj/scene_30_init.rel
                                          [ scene_30_init ]
C:/Users/BAYEK/AppData/Local/Temp/_gbsbuild/obj/scene_30_sprites.rel
                                          [ scene_30_sprites ]
C:/Users/BAYEK/AppData/Local/Temp/_gbsbuild/obj/scene_30_triggers.rel
                                          [ scene_30_triggers ]
C:/Users/BAYEK/AppData/Local/Temp/_gbsbuild/obj/scene_30.rel
                                          [ scene_30 ]
C:/Users/BAYEK/AppData/Local/Temp/_gbsbuild/obj/scene_31_actors.rel
                                          [ scene_31_actors ]
C:/Users/BAYEK/AppData/Local/Temp/_gbsbuild/obj/scene_31_collisions.rel
                                          [ scene_31_collisions ]
C:/Users/BAYEK/AppData/Local/Temp/_gbsbuild/obj/scene_31_init.rel
                                          [ scene_31_init ]
C:/Users/BAYEK/AppData/Local/Temp/_gbsbuild/obj/scene_31_sprites.rel
                                          [ scene_31_sprites ]
C:/Users/BAYEK/AppData/Local/Temp/_gbsbuild/obj/scene_31_triggers.rel
                                          [ scene_31_triggers ]
C:/Users/BAYEK/AppData/Local/Temp/_gbsbuild/obj/scene_31.rel
                                          [ scene_31 ]
C:/Users/BAYEK/AppData/Local/Temp/_gbsbuild/obj/scene_32_actors.rel
                                          [ scene_32_actors ]
C:/Users/BAYEK/AppData/Local/Temp/_gbsbuild/obj/scene_32_collisions.rel
                                          [ scene_32_collisions ]
C:/Users/BAYEK/AppData/Local/Temp/_gbsbuild/obj/scene_32_init.rel
                                          [ scene_32_init ]
C:/Users/BAYEK/AppData/Local/Temp/_gbsbuild/obj/scene_32_sprites.rel
                                          [ scene_32_sprites ]
C:/Users/BAYEK/AppData/Local/Temp/_gbsbuild/obj/scene_32_triggers.rel
                                          [ scene_32_triggers ]
C:/Users/BAYEK/AppData/Local/Temp/_gbsbuild/obj/scene_32.rel
                                          [ scene_32 ]
C:/Users/BAYEK/AppData/Local/Temp/_gbsbuild/obj/scene_33_collisions.rel
                                          [ scene_33_collisions ]
C:/Users/BAYEK/AppData/Local/Temp/_gbsbuild/obj/scene_33_init.rel
                                          [ scene_33_init ]
C:/Users/BAYEK/AppData/Local/Temp/_gbsbuild/obj/scene_33.rel
                                          [ scene_33 ]
C:/Users/BAYEK/AppData/Local/Temp/_gbsbuild/obj/scene_34_collisions.rel
                                          [ scene_34_collisions ]
C:/Users/BAYEK/AppData/Local/Temp/_gbsbuild/obj/scene_34_init.rel
                                          [ scene_34_init ]
C:/Users/BAYEK/AppData/Local/Temp/_gbsbuild/obj/scene_34.rel
                                          [ scene_34 ]
C:/Users/BAYEK/AppData/Local/Temp/_gbsbuild/obj/scene_35_collisions.rel
                                          [ scene_35_collisions ]
C:/Users/BAYEK/AppData/Local/Temp/_gbsbuild/obj/scene_35_init.rel
                                          [ scene_35_init ]
C:/Users/BAYEK/AppData/Local/Temp/_gbsbuild/obj/scene_35.rel
                                          [ scene_35 ]
C:/Users/BAYEK/AppData/Local/Temp/_gbsbuild/obj/scene_36_collisions.rel
                                          [ scene_36_collisions ]
C:/Users/BAYEK/AppData/Local/Temp/_gbsbuild/obj/scene_36_init.rel
                                          [ scene_36_init ]
C:/Users/BAYEK/AppData/Local/Temp/_gbsbuild/obj/scene_36.rel
                                          [ scene_36 ]
C:/Users/BAYEK/AppData/Local/Temp/_gbsbuild/obj/scene_37_collisions.rel
                                          [ scene_37_collisions ]
C:/Users/BAYEK/AppData/Local/Temp/_gbsbuild/obj/scene_37_init.rel
                                          [ scene_37_init ]
C:/Users/BAYEK/AppData/Local/Temp/_gbsbuild/obj/scene_37.rel
                                          [ scene_37 ]
C:/Users/BAYEK/AppData/Local/Temp/_gbsbuild/obj/scene_38_collisions.rel
                                          [ scene_38_collisions ]
C:/Users/BAYEK/AppData/Local/Temp/_gbsbuild/obj/scene_38_init.rel
                                          [ scene_38_init ]
C:/Users/BAYEK/AppData/Local/Temp/_gbsbuild/obj/scene_38.rel
                                          [ scene_38 ]
C:/Users/BAYEK/AppData/Local/Temp/_gbsbuild/obj/scene_39_actors.rel
                                          [ scene_39_actors ]
C:/Users/BAYEK/AppData/Local/Temp/_gbsbuild/obj/scene_39_collisions.rel
                                          [ scene_39_collisions ]
C:/Users/BAYEK/AppData/Local/Temp/_gbsbuild/obj/scene_39_init.rel
                                          [ scene_39_init ]
C:/Users/BAYEK/AppData/Local/Temp/_gbsbuild/obj/scene_39_sprites.rel
                                          [ scene_39_sprites ]
C:/Users/BAYEK/AppData/Local/Temp/_gbsbuild/obj/scene_39.rel
                                          [ scene_39 ]
C:/Users/BAYEK/AppData/Local/Temp/_gbsbuild/obj/scene_4_collisions.rel
                                          [ scene_4_collisions ]
C:/Users/BAYEK/AppData/Local/Temp/_gbsbuild/obj/scene_4_init.rel
                                          [ scene_4_init ]
C:/Users/BAYEK/AppData/Local/Temp/_gbsbuild/obj/scene_4_triggers.rel
                                          [ scene_4_triggers ]
C:/Users/BAYEK/AppData/Local/Temp/_gbsbuild/obj/scene_4.rel
                                          [ scene_4 ]
C:/Users/BAYEK/AppData/Local/Temp/_gbsbuild/obj/scene_40_actors.rel
                                          [ scene_40_actors ]
C:/Users/BAYEK/AppData/Local/Temp/_gbsbuild/obj/scene_40_collisions.rel
                                          [ scene_40_collisions ]
C:/Users/BAYEK/AppData/Local/Temp/_gbsbuild/obj/scene_40_init.rel
                                          [ scene_40_init ]
C:/Users/BAYEK/AppData/Local/Temp/_gbsbuild/obj/scene_40_projectiles.rel
                                          [ scene_40_projectiles ]
C:/Users/BAYEK/AppData/Local/Temp/_gbsbuild/obj/scene_40_sprites.rel
                                          [ scene_40_sprites ]
C:/Users/BAYEK/AppData/Local/Temp/_gbsbuild/obj/scene_40_triggers.rel
                                          [ scene_40_triggers ]
C:/Users/BAYEK/AppData/Local/Temp/_gbsbuild/obj/scene_40.rel
                                          [ scene_40 ]
C:/Users/BAYEK/AppData/Local/Temp/_gbsbuild/obj/scene_41_actors.rel
                                          [ scene_41_actors ]
C:/Users/BAYEK/AppData/Local/Temp/_gbsbuild/obj/scene_41_collisions.rel
                                          [ scene_41_collisions ]
C:/Users/BAYEK/AppData/Local/Temp/_gbsbuild/obj/scene_41_init.rel
                                          [ scene_41_init ]
C:/Users/BAYEK/AppData/Local/Temp/_gbsbuild/obj/scene_41_sprites.rel
                                          [ scene_41_sprites ]
C:/Users/BAYEK/AppData/Local/Temp/_gbsbuild/obj/scene_41_triggers.rel
                                          [ scene_41_triggers ]
C:/Users/BAYEK/AppData/Local/Temp/_gbsbuild/obj/scene_41.rel
                                          [ scene_41 ]
C:/Users/BAYEK/AppData/Local/Temp/_gbsbuild/obj/scene_42_actors.rel
                                          [ scene_42_actors ]
C:/Users/BAYEK/AppData/Local/Temp/_gbsbuild/obj/scene_42_collisions.rel
                                          [ scene_42_collisions ]
C:/Users/BAYEK/AppData/Local/Temp/_gbsbuild/obj/scene_42_init.rel
                                          [ scene_42_init ]
C:/Users/BAYEK/AppData/Local/Temp/_gbsbuild/obj/scene_42_sprites.rel
                                          [ scene_42_sprites ]
C:/Users/BAYEK/AppData/Local/Temp/_gbsbuild/obj/scene_42_triggers.rel
                                          [ scene_42_triggers ]
C:/Users/BAYEK/AppData/Local/Temp/_gbsbuild/obj/scene_42.rel
                                          [ scene_42 ]
C:/Users/BAYEK/AppData/Local/Temp/_gbsbuild/obj/scene_43_actors.rel
                                          [ scene_43_actors ]
C:/Users/BAYEK/AppData/Local/Temp/_gbsbuild/obj/scene_43_collisions.rel
                                          [ scene_43_collisions ]
C:/Users/BAYEK/AppData/Local/Temp/_gbsbuild/obj/scene_43_init.rel
                                          [ scene_43_init ]
C:/Users/BAYEK/AppData/Local/Temp/_gbsbuild/obj/scene_43_sprites.rel
                                          [ scene_43_sprites ]
C:/Users/BAYEK/AppData/Local/Temp/_gbsbuild/obj/scene_43_triggers.rel
                                          [ scene_43_triggers ]
C:/Users/BAYEK/AppData/Local/Temp/_gbsbuild/obj/scene_43.rel
                                          [ scene_43 ]
C:/Users/BAYEK/AppData/Local/Temp/_gbsbuild/obj/scene_44_actors.rel
                                          [ scene_44_actors ]
C:/Users/BAYEK/AppData/Local/Temp/_gbsbuild/obj/scene_44_collisions.rel
                                          [ scene_44_collisions ]
C:/Users/BAYEK/AppData/Local/Temp/_gbsbuild/obj/scene_44_init.rel
                                          [ scene_44_init ]
C:/Users/BAYEK/AppData/Local/Temp/_gbsbuild/obj/scene_44_sprites.rel
                                          [ scene_44_sprites ]
C:/Users/BAYEK/AppData/Local/Temp/_gbsbuild/obj/scene_44_triggers.rel
                                          [ scene_44_triggers ]
C:/Users/BAYEK/AppData/Local/Temp/_gbsbuild/obj/scene_44.rel
                                          [ scene_44 ]
C:/Users/BAYEK/AppData/Local/Temp/_gbsbuild/obj/scene_46_actors.rel
                                          [ scene_46_actors ]
C:/Users/BAYEK/AppData/Local/Temp/_gbsbuild/obj/scene_46_collisions.rel
                                          [ scene_46_collisions ]
C:/Users/BAYEK/AppData/Local/Temp/_gbsbuild/obj/scene_46_init.rel
                                          [ scene_46_init ]
C:/Users/BAYEK/AppData/Local/Temp/_gbsbuild/obj/scene_46_projectiles.rel
                                          [ scene_46_projectiles ]
C:/Users/BAYEK/AppData/Local/Temp/_gbsbuild/obj/scene_46_sprites.rel
                                          [ scene_46_sprites ]
C:/Users/BAYEK/AppData/Local/Temp/_gbsbuild/obj/scene_46_triggers.rel
                                          [ scene_46_triggers ]
C:/Users/BAYEK/AppData/Local/Temp/_gbsbuild/obj/scene_46.rel
                                          [ scene_46 ]
C:/Users/BAYEK/AppData/Local/Temp/_gbsbuild/obj/scene_5_actors.rel
                                          [ scene_5_actors ]
C:/Users/BAYEK/AppData/Local/Temp/_gbsbuild/obj/scene_5_collisions.rel
                                          [ scene_5_collisions ]
C:/Users/BAYEK/AppData/Local/Temp/_gbsbuild/obj/scene_5_init.rel
                                          [ scene_5_init ]
C:/Users/BAYEK/AppData/Local/Temp/_gbsbuild/obj/scene_5_sprites.rel
                                          [ scene_5_sprites ]
C:/Users/BAYEK/AppData/Local/Temp/_gbsbuild/obj/scene_5.rel
                                          [ scene_5 ]
C:/Users/BAYEK/AppData/Local/Temp/_gbsbuild/obj/scene_6_actors.rel
                                          [ scene_6_actors ]
C:/Users/BAYEK/AppData/Local/Temp/_gbsbuild/obj/scene_6_collisions.rel
                                          [ scene_6_collisions ]
C:/Users/BAYEK/AppData/Local/Temp/_gbsbuild/obj/scene_6_init.rel
                                          [ scene_6_init ]
C:/Users/BAYEK/AppData/Local/Temp/_gbsbuild/obj/scene_6_p_hit1.rel
                                          [ scene_6_p_hit1 ]
C:/Users/BAYEK/AppData/Local/Temp/_gbsbuild/obj/scene_6_projectiles.rel
                                          [ scene_6_projectiles ]
C:/Users/BAYEK/AppData/Local/Temp/_gbsbuild/obj/scene_6_sprites.rel
                                          [ scene_6_sprites ]
C:/Users/BAYEK/AppData/Local/Temp/_gbsbuild/obj/scene_6_triggers.rel
                                          [ scene_6_triggers ]
C:/Users/BAYEK/AppData/Local/Temp/_gbsbuild/obj/scene_6.rel
                                          [ scene_6 ]
C:/Users/BAYEK/AppData/Local/Temp/_gbsbuild/obj/scene_7_actors.rel
                                          [ scene_7_actors ]
C:/Users/BAYEK/AppData/Local/Temp/_gbsbuild/obj/scene_7_collisions.rel
                                          [ scene_7_collisions ]
C:/Users/BAYEK/AppData/Local/Temp/_gbsbuild/obj/scene_7_init.rel
                                          [ scene_7_init ]
C:/Users/BAYEK/AppData/Local/Temp/_gbsbuild/obj/scene_7_sprites.rel
                                          [ scene_7_sprites ]
C:/Users/BAYEK/AppData/Local/Temp/_gbsbuild/obj/scene_7_triggers.rel
                                          [ scene_7_triggers ]
C:/Users/BAYEK/AppData/Local/Temp/_gbsbuild/obj/scene_7.rel
                                          [ scene_7 ]
C:/Users/BAYEK/AppData/Local/Temp/_gbsbuild/obj/scene_8_collisions.rel
                                          [ scene_8_collisions ]
C:/Users/BAYEK/AppData/Local/Temp/_gbsbuild/obj/scene_8_init.rel
                                          [ scene_8_init ]
C:/Users/BAYEK/AppData/Local/Temp/_gbsbuild/obj/scene_8.rel
                                          [ scene_8 ]
C:/Users/BAYEK/AppData/Local/Temp/_gbsbuild/obj/scene_9_collisions.rel
                                          [ scene_9_collisions ]
C:/Users/BAYEK/AppData/Local/Temp/_gbsbuild/obj/scene_9_init.rel
                                          [ scene_9_init ]
C:/Users/BAYEK/AppData/Local/Temp/_gbsbuild/obj/scene_9.rel
                                          [ scene_9 ]
C:/Users/BAYEK/AppData/Local/Temp/_gbsbuild/obj/script_1.rel
                                          [ script_1 ]
C:/Users/BAYEK/AppData/Local/Temp/_gbsbuild/obj/script_2.rel
                                          [ script_2 ]
C:/Users/BAYEK/AppData/Local/Temp/_gbsbuild/obj/script_3.rel
                                          [ script_3 ]
C:/Users/BAYEK/AppData/Local/Temp/_gbsbuild/obj/script_4.rel
                                          [ script_4 ]
C:/Users/BAYEK/AppData/Local/Temp/_gbsbuild/obj/script_6.rel
                                          [ script_6 ]
C:/Users/BAYEK/AppData/Local/Temp/_gbsbuild/obj/script_engine_init.rel
                                          [  ]
C:/Users/BAYEK/AppData/Local/Temp/_gbsbuild/obj/script_input_0.rel
                                          [ script_input_0 ]
C:/Users/BAYEK/AppData/Local/Temp/_gbsbuild/obj/script_input_1.rel
                                          [ script_input_1 ]
C:/Users/BAYEK/AppData/Local/Temp/_gbsbuild/obj/script_input_10.rel
                                          [ script_input_10 ]
C:/Users/BAYEK/AppData/Local/Temp/_gbsbuild/obj/script_input_11.rel
                                          [ script_input_11 ]
C:/Users/BAYEK/AppData/Local/Temp/_gbsbuild/obj/script_input_12.rel
                                          [ script_input_12 ]
C:/Users/BAYEK/AppData/Local/Temp/_gbsbuild/obj/script_input_13.rel
                                          [ script_input_13 ]
C:/Users/BAYEK/AppData/Local/Temp/_gbsbuild/obj/script_input_14.rel
                                          [ script_input_14 ]
C:/Users/BAYEK/AppData/Local/Temp/_gbsbuild/obj/script_input_15.rel
                                          [ script_input_15 ]
C:/Users/BAYEK/AppData/Local/Temp/_gbsbuild/obj/script_input_16.rel
                                          [ script_input_16 ]
C:/Users/BAYEK/AppData/Local/Temp/_gbsbuild/obj/script_input_17.rel
                                          [ script_input_17 ]
C:/Users/BAYEK/AppData/Local/Temp/_gbsbuild/obj/script_input_18.rel
                                          [ script_input_18 ]
C:/Users/BAYEK/AppData/Local/Temp/_gbsbuild/obj/script_input_19.rel
                                          [ script_input_19 ]
C:/Users/BAYEK/AppData/Local/Temp/_gbsbuild/obj/script_input_2.rel
                                          [ script_input_2 ]
C:/Users/BAYEK/AppData/Local/Temp/_gbsbuild/obj/script_input_20.rel
                                          [ script_input_20 ]
C:/Users/BAYEK/AppData/Local/Temp/_gbsbuild/obj/script_input_21.rel
                                          [ script_input_21 ]
C:/Users/BAYEK/AppData/Local/Temp/_gbsbuild/obj/script_input_22.rel
                                          [ script_input_22 ]
C:/Users/BAYEK/AppData/Local/Temp/_gbsbuild/obj/script_input_23.rel
                                          [ script_input_23 ]
C:/Users/BAYEK/AppData/Local/Temp/_gbsbuild/obj/script_input_24.rel
                                          [ script_input_24 ]
C:/Users/BAYEK/AppData/Local/Temp/_gbsbuild/obj/script_input_25.rel
                                          [ script_input_25 ]
C:/Users/BAYEK/AppData/Local/Temp/_gbsbuild/obj/script_input_26.rel
                                          [ script_input_26 ]
C:/Users/BAYEK/AppData/Local/Temp/_gbsbuild/obj/script_input_27.rel
                                          [ script_input_27 ]
C:/Users/BAYEK/AppData/Local/Temp/_gbsbuild/obj/script_input_28.rel
                                          [ script_input_28 ]
C:/Users/BAYEK/AppData/Local/Temp/_gbsbuild/obj/script_input_29.rel
                                          [ script_input_29 ]
C:/Users/BAYEK/AppData/Local/Temp/_gbsbuild/obj/script_input_3.rel
                                          [ script_input_3 ]
C:/Users/BAYEK/AppData/Local/Temp/_gbsbuild/obj/script_input_30.rel
                                          [ script_input_30 ]
C:/Users/BAYEK/AppData/Local/Temp/_gbsbuild/obj/script_input_31.rel
                                          [ script_input_31 ]
C:/Users/BAYEK/AppData/Local/Temp/_gbsbuild/obj/script_input_4.rel
                                          [ script_input_4 ]
C:/Users/BAYEK/AppData/Local/Temp/_gbsbuild/obj/script_input_5.rel
                                          [ script_input_5 ]
C:/Users/BAYEK/AppData/Local/Temp/_gbsbuild/obj/script_input_6.rel
                                          [ script_input_6 ]
C:/Users/BAYEK/AppData/Local/Temp/_gbsbuild/obj/script_input_7.rel
                                          [ script_input_7 ]
C:/Users/BAYEK/AppData/Local/Temp/_gbsbuild/obj/script_input_8.rel
                                          [ script_input_8 ]
C:/Users/BAYEK/AppData/Local/Temp/_gbsbuild/obj/script_input_9.rel
                                          [ script_input_9 ]
C:/Users/BAYEK/AppData/Local/Temp/_gbsbuild/obj/script_timer_0.rel
                                          [ script_timer_0 ]
C:/Users/BAYEK/AppData/Local/Temp/_gbsbuild/obj/script_timer_1.rel
                                          [ script_timer_1 ]
C:/Users/BAYEK/AppData/Local/Temp/_gbsbuild/obj/sound_bump_vgm.rel
                                          [ sound_bump_vgm ]
C:/Users/BAYEK/AppData/Local/Temp/_gbsbuild/obj/sound_hurt_vgm.rel
                                          [ sound_hurt_vgm ]
C:/Users/BAYEK/AppData/Local/Temp/_gbsbuild/obj/sound_legacy_0.rel
                                          [ sound_legacy_0 ]
C:/Users/BAYEK/AppData/Local/Temp/_gbsbuild/obj/sound_legacy_1.rel
                                          [ sound_legacy_1 ]
C:/Users/BAYEK/AppData/Local/Temp/_gbsbuild/obj/sound_legacy_2.rel
                                          [ sound_legacy_2 ]
C:/Users/BAYEK/AppData/Local/Temp/_gbsbuild/obj/sound_legacy_3.rel
                                          [ sound_legacy_3 ]
C:/Users/BAYEK/AppData/Local/Temp/_gbsbuild/obj/sound_legacy_4.rel
                                          [ sound_legacy_4 ]
C:/Users/BAYEK/AppData/Local/Temp/_gbsbuild/obj/sound_legacy_5.rel
                                          [ sound_legacy_5 ]
C:/Users/BAYEK/AppData/Local/Temp/_gbsbuild/obj/sound_menu_out_vgm.rel
                                          [ sound_menu_out_vgm ]
C:/Users/BAYEK/AppData/Local/Temp/_gbsbuild/obj/sound_pause_vgm.rel
                                          [ sound_pause_vgm ]
C:/Users/BAYEK/AppData/Local/Temp/_gbsbuild/obj/sound_sword_slash_vgm.rel
                                          [ sound_sword_slash_vgm ]
C:/Users/BAYEK/AppData/Local/Temp/_gbsbuild/obj/sprite_actor_animated_tileset.rel
                                          [ sprite_actor_animated_tileset ]
C:/Users/BAYEK/AppData/Local/Temp/_gbsbuild/obj/sprite_actor_animated.rel
                                          [ sprite_actor_animated ]
C:/Users/BAYEK/AppData/Local/Temp/_gbsbuild/obj/sprite_actor_tileset.rel
                                          [ sprite_actor_tileset ]
C:/Users/BAYEK/AppData/Local/Temp/_gbsbuild/obj/sprite_actor.rel
                                          [ sprite_actor ]
C:/Users/BAYEK/AppData/Local/Temp/_gbsbuild/obj/sprite_arcabuz_tileset.rel
                                          [ sprite_arcabuz_tileset ]
C:/Users/BAYEK/AppData/Local/Temp/_gbsbuild/obj/sprite_arcabuz.rel
                                          [ sprite_arcabuz ]
C:/Users/BAYEK/AppData/Local/Temp/_gbsbuild/obj/sprite_boat_life_bar_tileset.rel
                                          [ sprite_boat_life_bar_tileset ]
C:/Users/BAYEK/AppData/Local/Temp/_gbsbuild/obj/sprite_boat_life_bar.rel
                                          [ sprite_boat_life_bar ]
C:/Users/BAYEK/AppData/Local/Temp/_gbsbuild/obj/sprite_boat_life_reverse_tileset.rel
                                          [ sprite_boat_life_reverse_tileset ]
C:/Users/BAYEK/AppData/Local/Temp/_gbsbuild/obj/sprite_boat_life_reverse.rel
                                          [ sprite_boat_life_reverse ]
C:/Users/BAYEK/AppData/Local/Temp/_gbsbuild/obj/sprite_caixa_1_tileset.rel
                                          [ sprite_caixa_1_tileset ]
C:/Users/BAYEK/AppData/Local/Temp/_gbsbuild/obj/sprite_caixa_1.rel
                                          [ sprite_caixa_1 ]
C:/Users/BAYEK/AppData/Local/Temp/_gbsbuild/obj/sprite_chefe_vila_tileset.rel
                                          [ sprite_chefe_vila_tileset ]
C:/Users/BAYEK/AppData/Local/Temp/_gbsbuild/obj/sprite_chefe_vila.rel
                                          [ sprite_chefe_vila ]
C:/Users/BAYEK/AppData/Local/Temp/_gbsbuild/obj/sprite_comerciante1_1_tileset.rel
                                          [ sprite_comerciante1_1_tileset ]
C:/Users/BAYEK/AppData/Local/Temp/_gbsbuild/obj/sprite_comerciante1_1.rel
                                          [ sprite_comerciante1_1 ]
C:/Users/BAYEK/AppData/Local/Temp/_gbsbuild/obj/sprite_comerciante1_2_tileset.rel
                                          [ sprite_comerciante1_2_tileset ]
C:/Users/BAYEK/AppData/Local/Temp/_gbsbuild/obj/sprite_comerciante1_2.rel
                                          [ sprite_comerciante1_2 ]
C:/Users/BAYEK/AppData/Local/Temp/_gbsbuild/obj/sprite_comerciante2_1_tileset.rel
                                          [ sprite_comerciante2_1_tileset ]
C:/Users/BAYEK/AppData/Local/Temp/_gbsbuild/obj/sprite_comerciante2_1.rel
                                          [ sprite_comerciante2_1 ]
C:/Users/BAYEK/AppData/Local/Temp/_gbsbuild/obj/sprite_comerciante2_2_tileset.rel
                                          [ sprite_comerciante2_2_tileset ]
C:/Users/BAYEK/AppData/Local/Temp/_gbsbuild/obj/sprite_comerciante2_2.rel
                                          [ sprite_comerciante2_2 ]
C:/Users/BAYEK/AppData/Local/Temp/_gbsbuild/obj/sprite_espada_europeia_tileset.rel
                                          [ sprite_espada_europeia_tileset ]
C:/Users/BAYEK/AppData/Local/Temp/_gbsbuild/obj/sprite_espada_europeia.rel
                                          [ sprite_espada_europeia ]
C:/Users/BAYEK/AppData/Local/Temp/_gbsbuild/obj/sprite_espanhol_og_tileset.rel
                                          [ sprite_espanhol_og_tileset ]
C:/Users/BAYEK/AppData/Local/Temp/_gbsbuild/obj/sprite_espanhol_og.rel
                                          [ sprite_espanhol_og ]
C:/Users/BAYEK/AppData/Local/Temp/_gbsbuild/obj/sprite_estatua_buda_tileset.rel
                                          [ sprite_estatua_buda_tileset ]
C:/Users/BAYEK/AppData/Local/Temp/_gbsbuild/obj/sprite_estatua_buda.rel
                                          [ sprite_estatua_buda ]
C:/Users/BAYEK/AppData/Local/Temp/_gbsbuild/obj/sprite_franciscano_og_tileset.rel
                                          [ sprite_franciscano_og_tileset ]
C:/Users/BAYEK/AppData/Local/Temp/_gbsbuild/obj/sprite_franciscano_og.rel
                                          [ sprite_franciscano_og ]
C:/Users/BAYEK/AppData/Local/Temp/_gbsbuild/obj/sprite_gunpointer_tileset.rel
                                          [ sprite_gunpointer_tileset ]
C:/Users/BAYEK/AppData/Local/Temp/_gbsbuild/obj/sprite_gunpointer.rel
                                          [ sprite_gunpointer ]
C:/Users/BAYEK/AppData/Local/Temp/_gbsbuild/obj/sprite_inventory_cursor_tileset.rel
                                          [ sprite_inventory_cursor_tileset ]
C:/Users/BAYEK/AppData/Local/Temp/_gbsbuild/obj/sprite_inventory_cursor.rel
                                          [ sprite_inventory_cursor ]
C:/Users/BAYEK/AppData/Local/Temp/_gbsbuild/obj/sprite_kunai_tileset.rel
                                          [ sprite_kunai_tileset ]
C:/Users/BAYEK/AppData/Local/Temp/_gbsbuild/obj/sprite_kunai.rel
                                          [ sprite_kunai ]
C:/Users/BAYEK/AppData/Local/Temp/_gbsbuild/obj/sprite_main_character_tileset.rel
                                          [ sprite_main_character_tileset ]
C:/Users/BAYEK/AppData/Local/Temp/_gbsbuild/obj/sprite_main_character.rel
                                          [ sprite_main_character ]
C:/Users/BAYEK/AppData/Local/Temp/_gbsbuild/obj/sprite_navio_portugues_inve_tileset.rel
                                          [ sprite_navio_portugues_inve_tile ]
C:/Users/BAYEK/AppData/Local/Temp/_gbsbuild/obj/sprite_navio_portugues_inve.rel
                                          [ sprite_navio_portugues_inve ]
C:/Users/BAYEK/AppData/Local/Temp/_gbsbuild/obj/sprite_navio_portugues_tileset.rel
                                          [ sprite_navio_portugues_tileset ]
C:/Users/BAYEK/AppData/Local/Temp/_gbsbuild/obj/sprite_navio_portugues.rel
                                          [ sprite_navio_portugues ]
C:/Users/BAYEK/AppData/Local/Temp/_gbsbuild/obj/sprite_ninja_tileset.rel
                                          [ sprite_ninja_tileset ]
C:/Users/BAYEK/AppData/Local/Temp/_gbsbuild/obj/sprite_ninja.rel
                                          [ sprite_ninja ]
C:/Users/BAYEK/AppData/Local/Temp/_gbsbuild/obj/sprite_pirata1_tileset.rel
                                          [ sprite_pirata1_tileset ]
C:/Users/BAYEK/AppData/Local/Temp/_gbsbuild/obj/sprite_pirata1.rel
                                          [ sprite_pirata1 ]
C:/Users/BAYEK/AppData/Local/Temp/_gbsbuild/obj/sprite_pirata2_tileset.rel
                                          [ sprite_pirata2_tileset ]
C:/Users/BAYEK/AppData/Local/Temp/_gbsbuild/obj/sprite_pirata2.rel
                                          [ sprite_pirata2 ]
C:/Users/BAYEK/AppData/Local/Temp/_gbsbuild/obj/sprite_samurai_tileset.rel
                                          [ sprite_samurai_tileset ]
C:/Users/BAYEK/AppData/Local/Temp/_gbsbuild/obj/sprite_samurai.rel
                                          [ sprite_samurai ]
C:/Users/BAYEK/AppData/Local/Temp/_gbsbuild/obj/sprite_samurai1_tileset.rel
                                          [ sprite_samurai1_tileset ]
C:/Users/BAYEK/AppData/Local/Temp/_gbsbuild/obj/sprite_samurai1.rel
                                          [ sprite_samurai1 ]
C:/Users/BAYEK/AppData/Local/Temp/_gbsbuild/obj/sprite_skull_tileset.rel
                                          [ sprite_skull_tileset ]
C:/Users/BAYEK/AppData/Local/Temp/_gbsbuild/obj/sprite_skull.rel
                                          [ sprite_skull ]
C:/Users/BAYEK/AppData/Local/Temp/_gbsbuild/obj/sprite_slash_placeholder_tileset.rel
                                          [ sprite_slash_placeholder_tileset ]
C:/Users/BAYEK/AppData/Local/Temp/_gbsbuild/obj/sprite_slash_placeholder.rel
                                          [ sprite_slash_placeholder ]
C:/Users/BAYEK/AppData/Local/Temp/_gbsbuild/obj/sprite_sprite_level_23_cris_tileset.rel
                                          [ sprite_sprite_level_23_cris_tile ]
C:/Users/BAYEK/AppData/Local/Temp/_gbsbuild/obj/sprite_sprite_level_23_cris.rel
                                          [ sprite_sprite_level_23_cris ]
C:/Users/BAYEK/AppData/Local/Temp/_gbsbuild/obj/sprite_sprite_level_4_ninja_tileset.rel
                                          [ sprite_sprite_level_4_ninja_tile ]
C:/Users/BAYEK/AppData/Local/Temp/_gbsbuild/obj/sprite_sprite_level_4_ninja.rel
                                          [ sprite_sprite_level_4_ninja ]
C:/Users/BAYEK/AppData/Local/Temp/_gbsbuild/obj/sprite_sprite_level_cris_0_tileset.rel
                                          [ sprite_sprite_level_cris_0_tiles ]
C:/Users/BAYEK/AppData/Local/Temp/_gbsbuild/obj/sprite_sprite_level_cris_0.rel
                                          [ sprite_sprite_level_cris_0 ]
C:/Users/BAYEK/AppData/Local/Temp/_gbsbuild/obj/sprite_static_tileset.rel
                                          [ sprite_static_tileset ]
C:/Users/BAYEK/AppData/Local/Temp/_gbsbuild/obj/sprite_static.rel
                                          [ sprite_static ]
C:/Users/BAYEK/AppData/Local/Temp/_gbsbuild/obj/sprite_tradutor_tileset.rel
                                          [ sprite_tradutor_tileset ]
C:/Users/BAYEK/AppData/Local/Temp/_gbsbuild/obj/sprite_tradutor.rel
                                          [ sprite_tradutor ]
C:/Users/BAYEK/AppData/Local/Temp/_gbsbuild/obj/sprite_tripulante1_tileset.rel
                                          [ sprite_tripulante1_tileset ]
C:/Users/BAYEK/AppData/Local/Temp/_gbsbuild/obj/sprite_tripulante1.rel
                                          [ sprite_tripulante1 ]
C:/Users/BAYEK/AppData/Local/Temp/_gbsbuild/obj/sprite_tripulante2_tileset.rel
                                          [ sprite_tripulante2_tileset ]
C:/Users/BAYEK/AppData/Local/Temp/_gbsbuild/obj/sprite_tripulante2.rel
                                          [ sprite_tripulante2 ]
C:/Users/BAYEK/AppData/Local/Temp/_gbsbuild/obj/sprite_yipper_tileset.rel
                                          [ sprite_yipper_tileset ]
C:/Users/BAYEK/AppData/Local/Temp/_gbsbuild/obj/sprite_yipper.rel
                                          [ sprite_yipper ]
C:/Users/BAYEK/AppData/Local/Temp/_gbsbuild/obj/spritesheet_none.rel
                                          [ spritesheet_none ]
C:/Users/BAYEK/AppData/Local/Temp/_gbsbuild/obj/trigger_0_interact.rel
                                          [ trigger_0_interact ]
C:/Users/BAYEK/AppData/Local/Temp/_gbsbuild/obj/trigger_1_interact.rel
                                          [ trigger_1_interact ]
C:/Users/BAYEK/AppData/Local/Temp/_gbsbuild/obj/trigger_10_interact.rel
                                          [ trigger_10_interact ]
C:/Users/BAYEK/AppData/Local/Temp/_gbsbuild/obj/trigger_11_interact.rel
                                          [ trigger_11_interact ]
C:/Users/BAYEK/AppData/Local/Temp/_gbsbuild/obj/trigger_12_interact.rel
                                          [ trigger_12_interact ]
C:/Users/BAYEK/AppData/Local/Temp/_gbsbuild/obj/trigger_13_interact.rel
                                          [ trigger_13_interact ]
C:/Users/BAYEK/AppData/Local/Temp/_gbsbuild/obj/trigger_14_interact.rel
                                          [ trigger_14_interact ]
C:/Users/BAYEK/AppData/Local/Temp/_gbsbuild/obj/trigger_15_interact.rel
                                          [ trigger_15_interact ]
C:/Users/BAYEK/AppData/Local/Temp/_gbsbuild/obj/trigger_16_interact.rel
                                          [ trigger_16_interact ]
C:/Users/BAYEK/AppData/Local/Temp/_gbsbuild/obj/trigger_17_interact.rel
                                          [ trigger_17_interact ]
C:/Users/BAYEK/AppData/Local/Temp/_gbsbuild/obj/trigger_18_interact.rel
                                          [ trigger_18_interact ]
C:/Users/BAYEK/AppData/Local/Temp/_gbsbuild/obj/trigger_19_interact.rel
                                          [ trigger_19_interact ]
C:/Users/BAYEK/AppData/Local/Temp/_gbsbuild/obj/trigger_2_interact.rel
                                          [ trigger_2_interact ]
C:/Users/BAYEK/AppData/Local/Temp/_gbsbuild/obj/trigger_20_interact.rel
                                          [ trigger_20_interact ]
C:/Users/BAYEK/AppData/Local/Temp/_gbsbuild/obj/trigger_21_interact.rel
                                          [ trigger_21_interact ]
C:/Users/BAYEK/AppData/Local/Temp/_gbsbuild/obj/trigger_22_interact.rel
                                          [ trigger_22_interact ]
C:/Users/BAYEK/AppData/Local/Temp/_gbsbuild/obj/trigger_23_interact.rel
                                          [ trigger_23_interact ]
C:/Users/BAYEK/AppData/Local/Temp/_gbsbuild/obj/trigger_24_interact.rel
                                          [ trigger_24_interact ]
C:/Users/BAYEK/AppData/Local/Temp/_gbsbuild/obj/trigger_25_interact.rel
                                          [ trigger_25_interact ]
C:/Users/BAYEK/AppData/Local/Temp/_gbsbuild/obj/trigger_26_interact.rel
                                          [ trigger_26_interact ]
C:/Users/BAYEK/AppData/Local/Temp/_gbsbuild/obj/trigger_27_interact.rel
                                          [ trigger_27_interact ]
C:/Users/BAYEK/AppData/Local/Temp/_gbsbuild/obj/trigger_28_interact.rel
                                          [ trigger_28_interact ]
C:/Users/BAYEK/AppData/Local/Temp/_gbsbuild/obj/trigger_29_interact.rel
                                          [ trigger_29_interact ]
C:/Users/BAYEK/AppData/Local/Temp/_gbsbuild/obj/trigger_3_interact.rel
                                          [ trigger_3_interact ]
C:/Users/BAYEK/AppData/Local/Temp/_gbsbuild/obj/trigger_30_interact.rel
                                          [ trigger_30_interact ]
C:/Users/BAYEK/AppData/Local/Temp/_gbsbuild/obj/trigger_31_interact.rel
                                          [ trigger_31_interact ]
C:/Users/BAYEK/AppData/Local/Temp/_gbsbuild/obj/trigger_32_interact.rel
                                          [ trigger_32_interact ]
C:/Users/BAYEK/AppData/Local/Temp/_gbsbuild/obj/trigger_33_interact.rel
                                          [ trigger_33_interact ]
C:/Users/BAYEK/AppData/Local/Temp/_gbsbuild/obj/trigger_34_interact.rel
                                          [ trigger_34_interact ]
C:/Users/BAYEK/AppData/Local/Temp/_gbsbuild/obj/trigger_35_interact.rel
                                          [ trigger_35_interact ]
C:/Users/BAYEK/AppData/Local/Temp/_gbsbuild/obj/trigger_36_interact.rel
                                          [ trigger_36_interact ]
C:/Users/BAYEK/AppData/Local/Temp/_gbsbuild/obj/trigger_37_interact.rel
                                          [ trigger_37_interact ]
C:/Users/BAYEK/AppData/Local/Temp/_gbsbuild/obj/trigger_38_interact.rel
                                          [ trigger_38_interact ]
C:/Users/BAYEK/AppData/Local/Temp/_gbsbuild/obj/trigger_39_interact.rel
                                          [ trigger_39_interact ]
C:/Users/BAYEK/AppData/Local/Temp/_gbsbuild/obj/trigger_4_interact.rel
                                          [ trigger_4_interact ]
C:/Users/BAYEK/AppData/Local/Temp/_gbsbuild/obj/trigger_40_interact.rel
                                          [ trigger_40_interact ]
C:/Users/BAYEK/AppData/Local/Temp/_gbsbuild/obj/trigger_41_interact.rel
                                          [ trigger_41_interact ]
C:/Users/BAYEK/AppData/Local/Temp/_gbsbuild/obj/trigger_42_interact.rel
                                          [ trigger_42_interact ]
C:/Users/BAYEK/AppData/Local/Temp/_gbsbuild/obj/trigger_43_interact.rel
                                          [ trigger_43_interact ]
C:/Users/BAYEK/AppData/Local/Temp/_gbsbuild/obj/trigger_44_interact.rel
                                          [ trigger_44_interact ]
C:/Users/BAYEK/AppData/Local/Temp/_gbsbuild/obj/trigger_45_interact.rel
                                          [ trigger_45_interact ]
C:/Users/BAYEK/AppData/Local/Temp/_gbsbuild/obj/trigger_46_interact.rel
                                          [ trigger_46_interact ]
C:/Users/BAYEK/AppData/Local/Temp/_gbsbuild/obj/trigger_47_interact.rel
                                          [ trigger_47_interact ]
C:/Users/BAYEK/AppData/Local/Temp/_gbsbuild/obj/trigger_48_interact.rel
                                          [ trigger_48_interact ]
C:/Users/BAYEK/AppData/Local/Temp/_gbsbuild/obj/trigger_49_interact.rel
                                          [ trigger_49_interact ]
C:/Users/BAYEK/AppData/Local/Temp/_gbsbuild/obj/trigger_5_interact.rel
                                          [ trigger_5_interact ]
C:/Users/BAYEK/AppData/Local/Temp/_gbsbuild/obj/trigger_50_interact.rel
                                          [ trigger_50_interact ]
C:/Users/BAYEK/AppData/Local/Temp/_gbsbuild/obj/trigger_51_interact.rel
                                          [ trigger_51_interact ]
C:/Users/BAYEK/AppData/Local/Temp/_gbsbuild/obj/trigger_52_interact.rel
                                          [ trigger_52_interact ]
C:/Users/BAYEK/AppData/Local/Temp/_gbsbuild/obj/trigger_54_interact.rel
                                          [ trigger_54_interact ]
C:/Users/BAYEK/AppData/Local/Temp/_gbsbuild/obj/trigger_55_interact.rel
                                          [ trigger_55_interact ]
C:/Users/BAYEK/AppData/Local/Temp/_gbsbuild/obj/trigger_56_interact.rel
                                          [ trigger_56_interact ]
C:/Users/BAYEK/AppData/Local/Temp/_gbsbuild/obj/trigger_57_interact.rel
                                          [ trigger_57_interact ]
C:/Users/BAYEK/AppData/Local/Temp/_gbsbuild/obj/trigger_58_interact.rel
                                          [ trigger_58_interact ]
C:/Users/BAYEK/AppData/Local/Temp/_gbsbuild/obj/trigger_59_interact.rel
                                          [ trigger_59_interact ]
C:/Users/BAYEK/AppData/Local/Temp/_gbsbuild/obj/trigger_6_interact.rel
                                          [ trigger_6_interact ]
C:/Users/BAYEK/AppData/Local/Temp/_gbsbuild/obj/trigger_60_interact.rel
                                          [ trigger_60_interact ]
C:/Users/BAYEK/AppData/Local/Temp/_gbsbuild/obj/trigger_61_interact.rel
                                          [ trigger_61_interact ]
C:/Users/BAYEK/AppData/Local/Temp/_gbsbuild/obj/trigger_63_interact.rel
                                          [ trigger_63_interact ]
C:/Users/BAYEK/AppData/Local/Temp/_gbsbuild/obj/trigger_64_interact.rel
                                          [ trigger_64_interact ]
C:/Users/BAYEK/AppData/Local/Temp/_gbsbuild/obj/trigger_65_interact.rel
                                          [ trigger_65_interact ]
C:/Users/BAYEK/AppData/Local/Temp/_gbsbuild/obj/trigger_66_interact.rel
                                          [ trigger_66_interact ]
C:/Users/BAYEK/AppData/Local/Temp/_gbsbuild/obj/trigger_67_interact.rel
                                          [ trigger_67_interact ]
C:/Users/BAYEK/AppData/Local/Temp/_gbsbuild/obj/trigger_68_interact.rel
                                          [ trigger_68_interact ]
C:/Users/BAYEK/AppData/Local/Temp/_gbsbuild/obj/trigger_7_interact.rel
                                          [ trigger_7_interact ]
C:/Users/BAYEK/AppData/Local/Temp/_gbsbuild/obj/trigger_70_interact.rel
                                          [ trigger_70_interact ]
C:/Users/BAYEK/AppData/Local/Temp/_gbsbuild/obj/trigger_71_interact.rel
                                          [ trigger_71_interact ]
C:/Users/BAYEK/AppData/Local/Temp/_gbsbuild/obj/trigger_72_interact.rel
                                          [ trigger_72_interact ]
C:/Users/BAYEK/AppData/Local/Temp/_gbsbuild/obj/trigger_73_interact.rel
                                          [ trigger_73_interact ]
C:/Users/BAYEK/AppData/Local/Temp/_gbsbuild/obj/trigger_8_interact.rel
                                          [ trigger_8_interact ]
C:/Users/BAYEK/AppData/Local/Temp/_gbsbuild/obj/trigger_9_interact.rel
                                          [ trigger_9_interact ]
C:/Users/BAYEK/AppData/Local/Temp/_gbsbuild/obj/main.rel
                                          [ main ]
C:/Users/BAYEK/AppData/Local/Temp/_gbsbuild/obj/adventure.rel
                                          [ adventure ]
C:/Users/BAYEK/AppData/Local/Temp/_gbsbuild/obj/logo.rel
                                          [ logo ]
C:/Users/BAYEK/AppData/Local/Temp/_gbsbuild/obj/platform.rel
                                          [ platform ]
C:/Users/BAYEK/AppData/Local/Temp/_gbsbuild/obj/pointnclick.rel
                                          [ pointnclick ]
C:/Users/BAYEK/AppData/Local/Temp/_gbsbuild/obj/shmup.rel
                                          [ shmup ]
C:/Users/BAYEK/AppData/Local/Temp/_gbsbuild/obj/states_ptrs.rel
                                          [  ]
C:/Users/BAYEK/AppData/Local/Temp/_gbsbuild/obj/topdown.rel
                                          [ topdown ]


Libraries Linked                          [ object file ]

C:\Users\BAYEK\AppData\Local\Temp/_gbstools/gbdk/lib/gb/gb.lib
                                          [ fill_rect_wi.o ]
C:\Users\BAYEK\AppData\Local\Temp/_gbstools/gbdk/lib/sm83/sm83.lib
                                          [ rand.o ]
lib/hUGEDriver.lib                        [ hUGEDriver.o ]
C:\Users\BAYEK\AppData\Local\Temp/_gbstools/gbdk/lib/gb/gb.lib
                                          [ sfr.o ]
C:\Users\BAYEK\AppData\Local\Temp/_gbstools/gbdk/lib/gb/gb.lib
                                          [ get_data.o ]
C:\Users\BAYEK\AppData\Local\Temp/_gbstools/gbdk/lib/gb/gb.lib
                                          [ get_tile.o ]
C:\Users\BAYEK\AppData\Local\Temp/_gbstools/gbdk/lib/gb/gb.lib
                                          [ metasprites_hide_spr.o ]
C:\Users\BAYEK\AppData\Local\Temp/_gbstools/gbdk/lib/sm83/sm83.lib
                                          [ mul.o ]
C:\Users\BAYEK\AppData\Local\Temp/_gbstools/gbdk/lib/gb/gb.lib
                                          [ set_tile.o ]
C:\Users\BAYEK\AppData\Local\Temp/_gbstools/gbdk/lib/sm83/sm83.lib
                                          [ abs.o ]
C:\Users\BAYEK\AppData\Local\Temp/_gbstools/gbdk/lib/gb/gb.lib
                                          [ set_wi_t.o ]
C:\Users\BAYEK\AppData\Local\Temp/_gbstools/gbdk/lib/gb/gb.lib
                                          [ set_data.o ]
C:\Users\BAYEK\AppData\Local\Temp/_gbstools/gbdk/lib/sm83/sm83.lib
                                          [ reverse.o ]
C:\Users\BAYEK\AppData\Local\Temp/_gbstools/gbdk/lib/gb/gb.lib
                                          [ far_ptr.o ]
C:\Users\BAYEK\AppData\Local\Temp/_gbstools/gbdk/lib/gb/gb.lib
                                          [ sgb.o ]
C:\Users\BAYEK\AppData\Local\Temp/_gbstools/gbdk/lib/gb/gb.lib
                                          [ lcd.o ]
C:\Users\BAYEK\AppData\Local\Temp/_gbstools/gbdk/lib/gb/gb.lib
                                          [ fill_rect.o ]
C:\Users\BAYEK\AppData\Local\Temp/_gbstools/gbdk/lib/gb/gb.lib
                                          [ cpy_data.o ]
C:\Users\BAYEK\AppData\Local\Temp/_gbstools/gbdk/lib/gb/gb.lib
                                          [ fill_rect_bk.o ]
C:\Users\BAYEK\AppData\Local\Temp/_gbstools/gbdk/lib/gb/gb.lib
                                          [ pad.o ]
C:\Users\BAYEK\AppData\Local\Temp/_gbstools/gbdk/lib/gb/gb.lib
                                          [ metasprites.o ]
C:\Users\BAYEK\AppData\Local\Temp/_gbstools/gbdk/lib/sm83/sm83.lib
                                          [ __sdcc_call_hl.o ]
C:\Users\BAYEK\AppData\Local\Temp/_gbstools/gbdk/lib/sm83/sm83.lib
                                          [ memcpy.o ]
C:\Users\BAYEK\AppData\Local\Temp/_gbstools/gbdk/lib/sm83/sm83.lib
                                          [ _memset.o ]
C:\Users\BAYEK\AppData\Local\Temp/_gbstools/gbdk/lib/gb/gb.lib
                                          [ set_xy_t.o ]
C:\Users\BAYEK\AppData\Local\Temp/_gbstools/gbdk/lib/gb/gb.lib
                                          [ ___sdcc_bcall_ehl.o ]
C:\Users\BAYEK\AppData\Local\Temp/_gbstools/gbdk/lib/sm83/sm83.lib
                                          [ div.o ]
C:\Users\BAYEK\AppData\Local\Temp/_gbstools/gbdk/lib/gb/gb.lib
                                          [ set_bk_t.o ]

ASxxxx Linker V03.00/V05.40 + sdld,  page 144.

User Base Address Definitions

_DATA=0xC0A0
_CODE=0x0200
ASxxxx Linker V03.00/V05.40 + sdld,  page 145.

User Global Definitions

.STACK=0xDF00
_shadow_OAM=0xC000
.refresh_OAM=0xFF80
__start_save=28

